
iot_firmware.elf:     file format elf32-littlearm

Sections:
Idx Name          Size      VMA       LMA       File off  Algn
  0 .isr_vector   00000188  08000000  08000000  00010000  2**0
                  CONTENTS, ALLOC, LOAD, READONLY, DATA
  1 .text         000070d8  08000190  08000190  00010190  2**4
                  CONTENTS, ALLOC, LOAD, READONLY, CODE
  2 .rodata       000000c0  08007268  08007268  00017268  2**2
                  CONTENTS, ALLOC, LOAD, READONLY, DATA
  3 .ARM.extab    00000000  08007328  08007328  00020010  2**0
                  CONTENTS
  4 .ARM          00000008  08007328  08007328  00017328  2**2
                  CONTENTS, ALLOC, LOAD, READONLY, DATA
  5 .preinit_array 00000000  08007330  08007330  00020010  2**0
                  CONTENTS, ALLOC, LOAD, DATA
  6 .init_array   00000004  08007330  08007330  00017330  2**2
                  CONTENTS, ALLOC, LOAD, DATA
  7 .fini_array   00000004  08007334  08007334  00017334  2**2
                  CONTENTS, ALLOC, LOAD, DATA
  8 .data         00000010  20000000  08007338  00020000  2**2
                  CONTENTS, ALLOC, LOAD, DATA
  9 .bss          0000112c  20000010  08007348  00020010  2**2
                  ALLOC
 10 ._user_heap_stack 00006004  2000113c  08007348  0002113c  2**0
                  ALLOC
 11 .ARM.attributes 00000030  00000000  00000000  00020010  2**0
                  CONTENTS, READONLY
 12 .debug_info   0002297f  00000000  00000000  00020040  2**0
                  CONTENTS, READONLY, DEBUGGING, OCTETS
 13 .debug_abbrev 0000405a  00000000  00000000  000429bf  2**0
                  CONTENTS, READONLY, DEBUGGING, OCTETS
 14 .debug_aranges 00001998  00000000  00000000  00046a20  2**3
                  CONTENTS, READONLY, DEBUGGING, OCTETS
 15 .debug_ranges 000017f0  00000000  00000000  000483b8  2**3
                  CONTENTS, READONLY, DEBUGGING, OCTETS
 16 .debug_macro  0002a770  00000000  00000000  00049ba8  2**0
                  CONTENTS, READONLY, DEBUGGING, OCTETS
 17 .debug_line   0001d373  00000000  00000000  00074318  2**0
                  CONTENTS, READONLY, DEBUGGING, OCTETS
 18 .debug_str    0010e422  00000000  00000000  0009168b  2**0
                  CONTENTS, READONLY, DEBUGGING, OCTETS
 19 .comment      00000053  00000000  00000000  0019faad  2**0
                  CONTENTS, READONLY
 20 .debug_frame  00006b34  00000000  00000000  0019fb00  2**2
                  CONTENTS, READONLY, DEBUGGING, OCTETS

Disassembly of section .text:

08000190 <__do_global_dtors_aux>:
 8000190:	b510      	push	{r4, lr}
 8000192:	4c05      	ldr	r4, [pc, #20]	; (80001a8 <__do_global_dtors_aux+0x18>)
 8000194:	7823      	ldrb	r3, [r4, #0]
 8000196:	b933      	cbnz	r3, 80001a6 <__do_global_dtors_aux+0x16>
 8000198:	4b04      	ldr	r3, [pc, #16]	; (80001ac <__do_global_dtors_aux+0x1c>)
 800019a:	b113      	cbz	r3, 80001a2 <__do_global_dtors_aux+0x12>
 800019c:	4804      	ldr	r0, [pc, #16]	; (80001b0 <__do_global_dtors_aux+0x20>)
 800019e:	f3af 8000 	nop.w
 80001a2:	2301      	movs	r3, #1
 80001a4:	7023      	strb	r3, [r4, #0]
 80001a6:	bd10      	pop	{r4, pc}
 80001a8:	20000010 	.word	0x20000010
 80001ac:	00000000 	.word	0x00000000
 80001b0:	08007250 	.word	0x08007250

080001b4 <frame_dummy>:
 80001b4:	b508      	push	{r3, lr}
 80001b6:	4b03      	ldr	r3, [pc, #12]	; (80001c4 <frame_dummy+0x10>)
 80001b8:	b11b      	cbz	r3, 80001c2 <frame_dummy+0xe>
 80001ba:	4903      	ldr	r1, [pc, #12]	; (80001c8 <frame_dummy+0x14>)
 80001bc:	4803      	ldr	r0, [pc, #12]	; (80001cc <frame_dummy+0x18>)
 80001be:	f3af 8000 	nop.w
 80001c2:	bd08      	pop	{r3, pc}
 80001c4:	00000000 	.word	0x00000000
 80001c8:	20000014 	.word	0x20000014
 80001cc:	08007250 	.word	0x08007250

080001d0 <__aeabi_uldivmod>:
 80001d0:	b953      	cbnz	r3, 80001e8 <__aeabi_uldivmod+0x18>
 80001d2:	b94a      	cbnz	r2, 80001e8 <__aeabi_uldivmod+0x18>
 80001d4:	2900      	cmp	r1, #0
 80001d6:	bf08      	it	eq
 80001d8:	2800      	cmpeq	r0, #0
 80001da:	bf1c      	itt	ne
 80001dc:	f04f 31ff 	movne.w	r1, #4294967295
 80001e0:	f04f 30ff 	movne.w	r0, #4294967295
 80001e4:	f000 b96e 	b.w	80004c4 <__aeabi_idiv0>
 80001e8:	f1ad 0c08 	sub.w	ip, sp, #8
 80001ec:	e96d ce04 	strd	ip, lr, [sp, #-16]!
 80001f0:	f000 f806 	bl	8000200 <__udivmoddi4>
 80001f4:	f8dd e004 	ldr.w	lr, [sp, #4]
 80001f8:	e9dd 2302 	ldrd	r2, r3, [sp, #8]
 80001fc:	b004      	add	sp, #16
 80001fe:	4770      	bx	lr

08000200 <__udivmoddi4>:
 8000200:	e92d 47f0 	stmdb	sp!, {r4, r5, r6, r7, r8, r9, sl, lr}
 8000204:	9d08      	ldr	r5, [sp, #32]
 8000206:	4604      	mov	r4, r0
 8000208:	468c      	mov	ip, r1
 800020a:	2b00      	cmp	r3, #0
 800020c:	f040 8083 	bne.w	8000316 <__udivmoddi4+0x116>
 8000210:	428a      	cmp	r2, r1
 8000212:	4617      	mov	r7, r2
 8000214:	d947      	bls.n	80002a6 <__udivmoddi4+0xa6>
 8000216:	fab2 f282 	clz	r2, r2
 800021a:	b142      	cbz	r2, 800022e <__udivmoddi4+0x2e>
 800021c:	f1c2 0020 	rsb	r0, r2, #32
 8000220:	fa24 f000 	lsr.w	r0, r4, r0
 8000224:	4091      	lsls	r1, r2
 8000226:	4097      	lsls	r7, r2
 8000228:	ea40 0c01 	orr.w	ip, r0, r1
 800022c:	4094      	lsls	r4, r2
 800022e:	ea4f 4817 	mov.w	r8, r7, lsr #16
 8000232:	0c23      	lsrs	r3, r4, #16
 8000234:	fbbc f6f8 	udiv	r6, ip, r8
 8000238:	fa1f fe87 	uxth.w	lr, r7
 800023c:	fb08 c116 	mls	r1, r8, r6, ip
 8000240:	ea43 4301 	orr.w	r3, r3, r1, lsl #16
 8000244:	fb06 f10e 	mul.w	r1, r6, lr
 8000248:	4299      	cmp	r1, r3
 800024a:	d909      	bls.n	8000260 <__udivmoddi4+0x60>
 800024c:	18fb      	adds	r3, r7, r3
 800024e:	f106 30ff 	add.w	r0, r6, #4294967295
 8000252:	f080 8119 	bcs.w	8000488 <__udivmoddi4+0x288>
 8000256:	4299      	cmp	r1, r3
 8000258:	f240 8116 	bls.w	8000488 <__udivmoddi4+0x288>
 800025c:	3e02      	subs	r6, #2
 800025e:	443b      	add	r3, r7
 8000260:	1a5b      	subs	r3, r3, r1
 8000262:	b2a4      	uxth	r4, r4
 8000264:	fbb3 f0f8 	udiv	r0, r3, r8
 8000268:	fb08 3310 	mls	r3, r8, r0, r3
 800026c:	ea44 4403 	orr.w	r4, r4, r3, lsl #16
 8000270:	fb00 fe0e 	mul.w	lr, r0, lr
 8000274:	45a6      	cmp	lr, r4
 8000276:	d909      	bls.n	800028c <__udivmoddi4+0x8c>
 8000278:	193c      	adds	r4, r7, r4
 800027a:	f100 33ff 	add.w	r3, r0, #4294967295
 800027e:	f080 8105 	bcs.w	800048c <__udivmoddi4+0x28c>
 8000282:	45a6      	cmp	lr, r4
 8000284:	f240 8102 	bls.w	800048c <__udivmoddi4+0x28c>
 8000288:	3802      	subs	r0, #2
 800028a:	443c      	add	r4, r7
 800028c:	ea40 4006 	orr.w	r0, r0, r6, lsl #16
 8000290:	eba4 040e 	sub.w	r4, r4, lr
 8000294:	2600      	movs	r6, #0
 8000296:	b11d      	cbz	r5, 80002a0 <__udivmoddi4+0xa0>
 8000298:	40d4      	lsrs	r4, r2
 800029a:	2300      	movs	r3, #0
 800029c:	e9c5 4300 	strd	r4, r3, [r5]
 80002a0:	4631      	mov	r1, r6
 80002a2:	e8bd 87f0 	ldmia.w	sp!, {r4, r5, r6, r7, r8, r9, sl, pc}
 80002a6:	b902      	cbnz	r2, 80002aa <__udivmoddi4+0xaa>
 80002a8:	deff      	udf	#255	; 0xff
 80002aa:	fab2 f282 	clz	r2, r2
 80002ae:	2a00      	cmp	r2, #0
 80002b0:	d150      	bne.n	8000354 <__udivmoddi4+0x154>
 80002b2:	1bcb      	subs	r3, r1, r7
 80002b4:	ea4f 4e17 	mov.w	lr, r7, lsr #16
 80002b8:	fa1f f887 	uxth.w	r8, r7
 80002bc:	2601      	movs	r6, #1
 80002be:	fbb3 fcfe 	udiv	ip, r3, lr
 80002c2:	0c21      	lsrs	r1, r4, #16
 80002c4:	fb0e 331c 	mls	r3, lr, ip, r3
 80002c8:	ea41 4103 	orr.w	r1, r1, r3, lsl #16
 80002cc:	fb08 f30c 	mul.w	r3, r8, ip
 80002d0:	428b      	cmp	r3, r1
 80002d2:	d907      	bls.n	80002e4 <__udivmoddi4+0xe4>
 80002d4:	1879      	adds	r1, r7, r1
 80002d6:	f10c 30ff 	add.w	r0, ip, #4294967295
 80002da:	d202      	bcs.n	80002e2 <__udivmoddi4+0xe2>
 80002dc:	428b      	cmp	r3, r1
 80002de:	f200 80e9 	bhi.w	80004b4 <__udivmoddi4+0x2b4>
 80002e2:	4684      	mov	ip, r0
 80002e4:	1ac9      	subs	r1, r1, r3
 80002e6:	b2a3      	uxth	r3, r4
 80002e8:	fbb1 f0fe 	udiv	r0, r1, lr
 80002ec:	fb0e 1110 	mls	r1, lr, r0, r1
 80002f0:	ea43 4401 	orr.w	r4, r3, r1, lsl #16
 80002f4:	fb08 f800 	mul.w	r8, r8, r0
 80002f8:	45a0      	cmp	r8, r4
 80002fa:	d907      	bls.n	800030c <__udivmoddi4+0x10c>
 80002fc:	193c      	adds	r4, r7, r4
 80002fe:	f100 33ff 	add.w	r3, r0, #4294967295
 8000302:	d202      	bcs.n	800030a <__udivmoddi4+0x10a>
 8000304:	45a0      	cmp	r8, r4
 8000306:	f200 80d9 	bhi.w	80004bc <__udivmoddi4+0x2bc>
 800030a:	4618      	mov	r0, r3
 800030c:	eba4 0408 	sub.w	r4, r4, r8
 8000310:	ea40 400c 	orr.w	r0, r0, ip, lsl #16
 8000314:	e7bf      	b.n	8000296 <__udivmoddi4+0x96>
 8000316:	428b      	cmp	r3, r1
 8000318:	d909      	bls.n	800032e <__udivmoddi4+0x12e>
 800031a:	2d00      	cmp	r5, #0
 800031c:	f000 80b1 	beq.w	8000482 <__udivmoddi4+0x282>
 8000320:	2600      	movs	r6, #0
 8000322:	e9c5 0100 	strd	r0, r1, [r5]
 8000326:	4630      	mov	r0, r6
 8000328:	4631      	mov	r1, r6
 800032a:	e8bd 87f0 	ldmia.w	sp!, {r4, r5, r6, r7, r8, r9, sl, pc}
 800032e:	fab3 f683 	clz	r6, r3
 8000332:	2e00      	cmp	r6, #0
 8000334:	d14a      	bne.n	80003cc <__udivmoddi4+0x1cc>
 8000336:	428b      	cmp	r3, r1
 8000338:	d302      	bcc.n	8000340 <__udivmoddi4+0x140>
 800033a:	4282      	cmp	r2, r0
 800033c:	f200 80b8 	bhi.w	80004b0 <__udivmoddi4+0x2b0>
 8000340:	1a84      	subs	r4, r0, r2
 8000342:	eb61 0103 	sbc.w	r1, r1, r3
 8000346:	2001      	movs	r0, #1
 8000348:	468c      	mov	ip, r1
 800034a:	2d00      	cmp	r5, #0
 800034c:	d0a8      	beq.n	80002a0 <__udivmoddi4+0xa0>
 800034e:	e9c5 4c00 	strd	r4, ip, [r5]
 8000352:	e7a5      	b.n	80002a0 <__udivmoddi4+0xa0>
 8000354:	f1c2 0320 	rsb	r3, r2, #32
 8000358:	fa20 f603 	lsr.w	r6, r0, r3
 800035c:	4097      	lsls	r7, r2
 800035e:	fa01 f002 	lsl.w	r0, r1, r2
 8000362:	ea4f 4e17 	mov.w	lr, r7, lsr #16
 8000366:	40d9      	lsrs	r1, r3
 8000368:	4330      	orrs	r0, r6
 800036a:	0c03      	lsrs	r3, r0, #16
 800036c:	fbb1 f6fe 	udiv	r6, r1, lr
 8000370:	fa1f f887 	uxth.w	r8, r7
 8000374:	fb0e 1116 	mls	r1, lr, r6, r1
 8000378:	ea43 4301 	orr.w	r3, r3, r1, lsl #16
 800037c:	fb06 f108 	mul.w	r1, r6, r8
 8000380:	4299      	cmp	r1, r3
 8000382:	fa04 f402 	lsl.w	r4, r4, r2
 8000386:	d909      	bls.n	800039c <__udivmoddi4+0x19c>
 8000388:	18fb      	adds	r3, r7, r3
 800038a:	f106 3cff 	add.w	ip, r6, #4294967295
 800038e:	f080 808d 	bcs.w	80004ac <__udivmoddi4+0x2ac>
 8000392:	4299      	cmp	r1, r3
 8000394:	f240 808a 	bls.w	80004ac <__udivmoddi4+0x2ac>
 8000398:	3e02      	subs	r6, #2
 800039a:	443b      	add	r3, r7
 800039c:	1a5b      	subs	r3, r3, r1
 800039e:	b281      	uxth	r1, r0
 80003a0:	fbb3 f0fe 	udiv	r0, r3, lr
 80003a4:	fb0e 3310 	mls	r3, lr, r0, r3
 80003a8:	ea41 4103 	orr.w	r1, r1, r3, lsl #16
 80003ac:	fb00 f308 	mul.w	r3, r0, r8
 80003b0:	428b      	cmp	r3, r1
 80003b2:	d907      	bls.n	80003c4 <__udivmoddi4+0x1c4>
 80003b4:	1879      	adds	r1, r7, r1
 80003b6:	f100 3cff 	add.w	ip, r0, #4294967295
 80003ba:	d273      	bcs.n	80004a4 <__udivmoddi4+0x2a4>
 80003bc:	428b      	cmp	r3, r1
 80003be:	d971      	bls.n	80004a4 <__udivmoddi4+0x2a4>
 80003c0:	3802      	subs	r0, #2
 80003c2:	4439      	add	r1, r7
 80003c4:	1acb      	subs	r3, r1, r3
 80003c6:	ea40 4606 	orr.w	r6, r0, r6, lsl #16
 80003ca:	e778      	b.n	80002be <__udivmoddi4+0xbe>
 80003cc:	f1c6 0c20 	rsb	ip, r6, #32
 80003d0:	fa03 f406 	lsl.w	r4, r3, r6
 80003d4:	fa22 f30c 	lsr.w	r3, r2, ip
 80003d8:	431c      	orrs	r4, r3
 80003da:	fa20 f70c 	lsr.w	r7, r0, ip
 80003de:	fa01 f306 	lsl.w	r3, r1, r6
 80003e2:	ea4f 4e14 	mov.w	lr, r4, lsr #16
 80003e6:	fa21 f10c 	lsr.w	r1, r1, ip
 80003ea:	431f      	orrs	r7, r3
 80003ec:	0c3b      	lsrs	r3, r7, #16
 80003ee:	fbb1 f9fe 	udiv	r9, r1, lr
 80003f2:	fa1f f884 	uxth.w	r8, r4
 80003f6:	fb0e 1119 	mls	r1, lr, r9, r1
 80003fa:	ea43 4101 	orr.w	r1, r3, r1, lsl #16
 80003fe:	fb09 fa08 	mul.w	sl, r9, r8
 8000402:	458a      	cmp	sl, r1
 8000404:	fa02 f206 	lsl.w	r2, r2, r6
 8000408:	fa00 f306 	lsl.w	r3, r0, r6
 800040c:	d908      	bls.n	8000420 <__udivmoddi4+0x220>
 800040e:	1861      	adds	r1, r4, r1
 8000410:	f109 30ff 	add.w	r0, r9, #4294967295
 8000414:	d248      	bcs.n	80004a8 <__udivmoddi4+0x2a8>
 8000416:	458a      	cmp	sl, r1
 8000418:	d946      	bls.n	80004a8 <__udivmoddi4+0x2a8>
 800041a:	f1a9 0902 	sub.w	r9, r9, #2
 800041e:	4421      	add	r1, r4
 8000420:	eba1 010a 	sub.w	r1, r1, sl
 8000424:	b2bf      	uxth	r7, r7
 8000426:	fbb1 f0fe 	udiv	r0, r1, lr
 800042a:	fb0e 1110 	mls	r1, lr, r0, r1
 800042e:	ea47 4701 	orr.w	r7, r7, r1, lsl #16
 8000432:	fb00 f808 	mul.w	r8, r0, r8
 8000436:	45b8      	cmp	r8, r7
 8000438:	d907      	bls.n	800044a <__udivmoddi4+0x24a>
 800043a:	19e7      	adds	r7, r4, r7
 800043c:	f100 31ff 	add.w	r1, r0, #4294967295
 8000440:	d22e      	bcs.n	80004a0 <__udivmoddi4+0x2a0>
 8000442:	45b8      	cmp	r8, r7
 8000444:	d92c      	bls.n	80004a0 <__udivmoddi4+0x2a0>
 8000446:	3802      	subs	r0, #2
 8000448:	4427      	add	r7, r4
 800044a:	ea40 4009 	orr.w	r0, r0, r9, lsl #16
 800044e:	eba7 0708 	sub.w	r7, r7, r8
 8000452:	fba0 8902 	umull	r8, r9, r0, r2
 8000456:	454f      	cmp	r7, r9
 8000458:	46c6      	mov	lr, r8
 800045a:	4649      	mov	r1, r9
 800045c:	d31a      	bcc.n	8000494 <__udivmoddi4+0x294>
 800045e:	d017      	beq.n	8000490 <__udivmoddi4+0x290>
 8000460:	b15d      	cbz	r5, 800047a <__udivmoddi4+0x27a>
 8000462:	ebb3 020e 	subs.w	r2, r3, lr
 8000466:	eb67 0701 	sbc.w	r7, r7, r1
 800046a:	fa07 fc0c 	lsl.w	ip, r7, ip
 800046e:	40f2      	lsrs	r2, r6
 8000470:	ea4c 0202 	orr.w	r2, ip, r2
 8000474:	40f7      	lsrs	r7, r6
 8000476:	e9c5 2700 	strd	r2, r7, [r5]
 800047a:	2600      	movs	r6, #0
 800047c:	4631      	mov	r1, r6
 800047e:	e8bd 87f0 	ldmia.w	sp!, {r4, r5, r6, r7, r8, r9, sl, pc}
 8000482:	462e      	mov	r6, r5
 8000484:	4628      	mov	r0, r5
 8000486:	e70b      	b.n	80002a0 <__udivmoddi4+0xa0>
 8000488:	4606      	mov	r6, r0
 800048a:	e6e9      	b.n	8000260 <__udivmoddi4+0x60>
 800048c:	4618      	mov	r0, r3
 800048e:	e6fd      	b.n	800028c <__udivmoddi4+0x8c>
 8000490:	4543      	cmp	r3, r8
 8000492:	d2e5      	bcs.n	8000460 <__udivmoddi4+0x260>
 8000494:	ebb8 0e02 	subs.w	lr, r8, r2
 8000498:	eb69 0104 	sbc.w	r1, r9, r4
 800049c:	3801      	subs	r0, #1
 800049e:	e7df      	b.n	8000460 <__udivmoddi4+0x260>
 80004a0:	4608      	mov	r0, r1
 80004a2:	e7d2      	b.n	800044a <__udivmoddi4+0x24a>
 80004a4:	4660      	mov	r0, ip
 80004a6:	e78d      	b.n	80003c4 <__udivmoddi4+0x1c4>
 80004a8:	4681      	mov	r9, r0
 80004aa:	e7b9      	b.n	8000420 <__udivmoddi4+0x220>
 80004ac:	4666      	mov	r6, ip
 80004ae:	e775      	b.n	800039c <__udivmoddi4+0x19c>
 80004b0:	4630      	mov	r0, r6
 80004b2:	e74a      	b.n	800034a <__udivmoddi4+0x14a>
 80004b4:	f1ac 0c02 	sub.w	ip, ip, #2
 80004b8:	4439      	add	r1, r7
 80004ba:	e713      	b.n	80002e4 <__udivmoddi4+0xe4>
 80004bc:	3802      	subs	r0, #2
 80004be:	443c      	add	r4, r7
 80004c0:	e724      	b.n	800030c <__udivmoddi4+0x10c>
 80004c2:	bf00      	nop

080004c4 <__aeabi_idiv0>:
 80004c4:	4770      	bx	lr
 80004c6:	bf00      	nop

080004c8 <MX_ADC1_Init>:
 80004c8:	b580      	push	{r7, lr}
 80004ca:	b08a      	sub	sp, #40	; 0x28
 80004cc:	af00      	add	r7, sp, #0
 80004ce:	f107 031c 	add.w	r3, r7, #28
 80004d2:	2200      	movs	r2, #0
 80004d4:	601a      	str	r2, [r3, #0]
 80004d6:	605a      	str	r2, [r3, #4]
 80004d8:	609a      	str	r2, [r3, #8]
 80004da:	1d3b      	adds	r3, r7, #4
 80004dc:	2200      	movs	r2, #0
 80004de:	601a      	str	r2, [r3, #0]
 80004e0:	605a      	str	r2, [r3, #4]
 80004e2:	609a      	str	r2, [r3, #8]
 80004e4:	60da      	str	r2, [r3, #12]
 80004e6:	611a      	str	r2, [r3, #16]
 80004e8:	615a      	str	r2, [r3, #20]
 80004ea:	4b45      	ldr	r3, [pc, #276]	; (8000600 <MX_ADC1_Init+0x138>)
 80004ec:	4a45      	ldr	r2, [pc, #276]	; (8000604 <MX_ADC1_Init+0x13c>)
 80004ee:	601a      	str	r2, [r3, #0]
 80004f0:	4b43      	ldr	r3, [pc, #268]	; (8000600 <MX_ADC1_Init+0x138>)
 80004f2:	f44f 1280 	mov.w	r2, #1048576	; 0x100000
 80004f6:	605a      	str	r2, [r3, #4]
 80004f8:	4b41      	ldr	r3, [pc, #260]	; (8000600 <MX_ADC1_Init+0x138>)
 80004fa:	2200      	movs	r2, #0
 80004fc:	609a      	str	r2, [r3, #8]
 80004fe:	4b40      	ldr	r3, [pc, #256]	; (8000600 <MX_ADC1_Init+0x138>)
 8000500:	2200      	movs	r2, #0
 8000502:	60da      	str	r2, [r3, #12]
 8000504:	4b3e      	ldr	r3, [pc, #248]	; (8000600 <MX_ADC1_Init+0x138>)
 8000506:	2201      	movs	r2, #1
 8000508:	611a      	str	r2, [r3, #16]
 800050a:	4b3d      	ldr	r3, [pc, #244]	; (8000600 <MX_ADC1_Init+0x138>)
 800050c:	2204      	movs	r2, #4
 800050e:	615a      	str	r2, [r3, #20]
 8000510:	4b3b      	ldr	r3, [pc, #236]	; (8000600 <MX_ADC1_Init+0x138>)
 8000512:	2200      	movs	r2, #0
 8000514:	761a      	strb	r2, [r3, #24]
 8000516:	4b3a      	ldr	r3, [pc, #232]	; (8000600 <MX_ADC1_Init+0x138>)
 8000518:	2201      	movs	r2, #1
 800051a:	765a      	strb	r2, [r3, #25]
 800051c:	4b38      	ldr	r3, [pc, #224]	; (8000600 <MX_ADC1_Init+0x138>)
 800051e:	2204      	movs	r2, #4
 8000520:	61da      	str	r2, [r3, #28]
 8000522:	4b37      	ldr	r3, [pc, #220]	; (8000600 <MX_ADC1_Init+0x138>)
 8000524:	2200      	movs	r2, #0
 8000526:	f883 2020 	strb.w	r2, [r3, #32]
 800052a:	4b35      	ldr	r3, [pc, #212]	; (8000600 <MX_ADC1_Init+0x138>)
 800052c:	2200      	movs	r2, #0
 800052e:	629a      	str	r2, [r3, #40]	; 0x28
 8000530:	4b33      	ldr	r3, [pc, #204]	; (8000600 <MX_ADC1_Init+0x138>)
 8000532:	2200      	movs	r2, #0
 8000534:	62da      	str	r2, [r3, #44]	; 0x2c
 8000536:	4b32      	ldr	r3, [pc, #200]	; (8000600 <MX_ADC1_Init+0x138>)
 8000538:	2201      	movs	r2, #1
 800053a:	f883 2030 	strb.w	r2, [r3, #48]	; 0x30
 800053e:	4b30      	ldr	r3, [pc, #192]	; (8000600 <MX_ADC1_Init+0x138>)
 8000540:	2200      	movs	r2, #0
 8000542:	635a      	str	r2, [r3, #52]	; 0x34
 8000544:	4b2e      	ldr	r3, [pc, #184]	; (8000600 <MX_ADC1_Init+0x138>)
 8000546:	2200      	movs	r2, #0
 8000548:	f883 2038 	strb.w	r2, [r3, #56]	; 0x38
 800054c:	482c      	ldr	r0, [pc, #176]	; (8000600 <MX_ADC1_Init+0x138>)
 800054e:	f000 feb3 	bl	80012b8 <HAL_ADC_Init>
 8000552:	4603      	mov	r3, r0
 8000554:	2b00      	cmp	r3, #0
 8000556:	d001      	beq.n	800055c <MX_ADC1_Init+0x94>
 8000558:	f000 faac 	bl	8000ab4 <Error_Handler>
 800055c:	2300      	movs	r3, #0
 800055e:	61fb      	str	r3, [r7, #28]
 8000560:	f107 031c 	add.w	r3, r7, #28
 8000564:	4619      	mov	r1, r3
 8000566:	4826      	ldr	r0, [pc, #152]	; (8000600 <MX_ADC1_Init+0x138>)
 8000568:	f001 fe06 	bl	8002178 <HAL_ADCEx_MultiModeConfigChannel>
 800056c:	4603      	mov	r3, r0
 800056e:	2b00      	cmp	r3, #0
 8000570:	d001      	beq.n	8000576 <MX_ADC1_Init+0xae>
 8000572:	f000 fa9f 	bl	8000ab4 <Error_Handler>
 8000576:	4b24      	ldr	r3, [pc, #144]	; (8000608 <MX_ADC1_Init+0x140>)
 8000578:	607b      	str	r3, [r7, #4]
 800057a:	2306      	movs	r3, #6
 800057c:	60bb      	str	r3, [r7, #8]
 800057e:	2307      	movs	r3, #7
 8000580:	60fb      	str	r3, [r7, #12]
 8000582:	237f      	movs	r3, #127	; 0x7f
 8000584:	613b      	str	r3, [r7, #16]
 8000586:	2304      	movs	r3, #4
 8000588:	617b      	str	r3, [r7, #20]
 800058a:	2300      	movs	r3, #0
 800058c:	61bb      	str	r3, [r7, #24]
 800058e:	1d3b      	adds	r3, r7, #4
 8000590:	4619      	mov	r1, r3
 8000592:	481b      	ldr	r0, [pc, #108]	; (8000600 <MX_ADC1_Init+0x138>)
 8000594:	f001 f8c0 	bl	8001718 <HAL_ADC_ConfigChannel>
 8000598:	4603      	mov	r3, r0
 800059a:	2b00      	cmp	r3, #0
 800059c:	d001      	beq.n	80005a2 <MX_ADC1_Init+0xda>
 800059e:	f000 fa89 	bl	8000ab4 <Error_Handler>
 80005a2:	4b1a      	ldr	r3, [pc, #104]	; (800060c <MX_ADC1_Init+0x144>)
 80005a4:	607b      	str	r3, [r7, #4]
 80005a6:	230c      	movs	r3, #12
 80005a8:	60bb      	str	r3, [r7, #8]
 80005aa:	1d3b      	adds	r3, r7, #4
 80005ac:	4619      	mov	r1, r3
 80005ae:	4814      	ldr	r0, [pc, #80]	; (8000600 <MX_ADC1_Init+0x138>)
 80005b0:	f001 f8b2 	bl	8001718 <HAL_ADC_ConfigChannel>
 80005b4:	4603      	mov	r3, r0
 80005b6:	2b00      	cmp	r3, #0
 80005b8:	d001      	beq.n	80005be <MX_ADC1_Init+0xf6>
 80005ba:	f000 fa7b 	bl	8000ab4 <Error_Handler>
 80005be:	4b14      	ldr	r3, [pc, #80]	; (8000610 <MX_ADC1_Init+0x148>)
 80005c0:	607b      	str	r3, [r7, #4]
 80005c2:	2312      	movs	r3, #18
 80005c4:	60bb      	str	r3, [r7, #8]
 80005c6:	1d3b      	adds	r3, r7, #4
 80005c8:	4619      	mov	r1, r3
 80005ca:	480d      	ldr	r0, [pc, #52]	; (8000600 <MX_ADC1_Init+0x138>)
 80005cc:	f001 f8a4 	bl	8001718 <HAL_ADC_ConfigChannel>
 80005d0:	4603      	mov	r3, r0
 80005d2:	2b00      	cmp	r3, #0
 80005d4:	d001      	beq.n	80005da <MX_ADC1_Init+0x112>
 80005d6:	f000 fa6d 	bl	8000ab4 <Error_Handler>
 80005da:	4b0e      	ldr	r3, [pc, #56]	; (8000614 <MX_ADC1_Init+0x14c>)
 80005dc:	607b      	str	r3, [r7, #4]
 80005de:	2318      	movs	r3, #24
 80005e0:	60bb      	str	r3, [r7, #8]
 80005e2:	1d3b      	adds	r3, r7, #4
 80005e4:	4619      	mov	r1, r3
 80005e6:	4806      	ldr	r0, [pc, #24]	; (8000600 <MX_ADC1_Init+0x138>)
 80005e8:	f001 f896 	bl	8001718 <HAL_ADC_ConfigChannel>
 80005ec:	4603      	mov	r3, r0
 80005ee:	2b00      	cmp	r3, #0
 80005f0:	d001      	beq.n	80005f6 <MX_ADC1_Init+0x12e>
 80005f2:	f000 fa5f 	bl	8000ab4 <Error_Handler>
 80005f6:	bf00      	nop
 80005f8:	3728      	adds	r7, #40	; 0x28
 80005fa:	46bd      	mov	sp, r7
 80005fc:	bd80      	pop	{r7, pc}
 80005fe:	bf00      	nop
 8000600:	20000f8c 	.word	0x20000f8c
 8000604:	50040000 	.word	0x50040000
 8000608:	25b00200 	.word	0x25b00200
 800060c:	2a000400 	.word	0x2a000400
 8000610:	2e300800 	.word	0x2e300800
 8000614:	32601000 	.word	0x32601000

08000618 <HAL_ADC_MspInit>:
 8000618:	b580      	push	{r7, lr}
 800061a:	b0ac      	sub	sp, #176	; 0xb0
 800061c:	af00      	add	r7, sp, #0
 800061e:	6078      	str	r0, [r7, #4]
 8000620:	f107 039c 	add.w	r3, r7, #156	; 0x9c
 8000624:	2200      	movs	r2, #0
 8000626:	601a      	str	r2, [r3, #0]
 8000628:	605a      	str	r2, [r3, #4]
 800062a:	609a      	str	r2, [r3, #8]
 800062c:	60da      	str	r2, [r3, #12]
 800062e:	611a      	str	r2, [r3, #16]
 8000630:	f107 0314 	add.w	r3, r7, #20
 8000634:	2288      	movs	r2, #136	; 0x88
 8000636:	2100      	movs	r1, #0
 8000638:	4618      	mov	r0, r3
 800063a:	f006 fe01 	bl	8007240 <memset>
 800063e:	687b      	ldr	r3, [r7, #4]
 8000640:	681b      	ldr	r3, [r3, #0]
 8000642:	4a3d      	ldr	r2, [pc, #244]	; (8000738 <HAL_ADC_MspInit+0x120>)
 8000644:	4293      	cmp	r3, r2
 8000646:	d172      	bne.n	800072e <HAL_ADC_MspInit+0x116>
 8000648:	f44f 4380 	mov.w	r3, #16384	; 0x4000
 800064c:	617b      	str	r3, [r7, #20]
 800064e:	f04f 5380 	mov.w	r3, #268435456	; 0x10000000
 8000652:	f8c7 308c 	str.w	r3, [r7, #140]	; 0x8c
 8000656:	2301      	movs	r3, #1
 8000658:	61bb      	str	r3, [r7, #24]
 800065a:	2301      	movs	r3, #1
 800065c:	61fb      	str	r3, [r7, #28]
 800065e:	2310      	movs	r3, #16
 8000660:	623b      	str	r3, [r7, #32]
 8000662:	2307      	movs	r3, #7
 8000664:	627b      	str	r3, [r7, #36]	; 0x24
 8000666:	2302      	movs	r3, #2
 8000668:	62bb      	str	r3, [r7, #40]	; 0x28
 800066a:	2302      	movs	r3, #2
 800066c:	62fb      	str	r3, [r7, #44]	; 0x2c
 800066e:	f04f 7380 	mov.w	r3, #16777216	; 0x1000000
 8000672:	633b      	str	r3, [r7, #48]	; 0x30
 8000674:	f107 0314 	add.w	r3, r7, #20
 8000678:	4618      	mov	r0, r3
 800067a:	f003 f987 	bl	800398c <HAL_RCCEx_PeriphCLKConfig>
 800067e:	4603      	mov	r3, r0
 8000680:	2b00      	cmp	r3, #0
 8000682:	d001      	beq.n	8000688 <HAL_ADC_MspInit+0x70>
 8000684:	f000 fa16 	bl	8000ab4 <Error_Handler>
 8000688:	4b2c      	ldr	r3, [pc, #176]	; (800073c <HAL_ADC_MspInit+0x124>)
 800068a:	6cdb      	ldr	r3, [r3, #76]	; 0x4c
 800068c:	4a2b      	ldr	r2, [pc, #172]	; (800073c <HAL_ADC_MspInit+0x124>)
 800068e:	f443 5300 	orr.w	r3, r3, #8192	; 0x2000
 8000692:	64d3      	str	r3, [r2, #76]	; 0x4c
 8000694:	4b29      	ldr	r3, [pc, #164]	; (800073c <HAL_ADC_MspInit+0x124>)
 8000696:	6cdb      	ldr	r3, [r3, #76]	; 0x4c
 8000698:	f403 5300 	and.w	r3, r3, #8192	; 0x2000
 800069c:	613b      	str	r3, [r7, #16]
 800069e:	693b      	ldr	r3, [r7, #16]
 80006a0:	4b26      	ldr	r3, [pc, #152]	; (800073c <HAL_ADC_MspInit+0x124>)
 80006a2:	6cdb      	ldr	r3, [r3, #76]	; 0x4c
 80006a4:	4a25      	ldr	r2, [pc, #148]	; (800073c <HAL_ADC_MspInit+0x124>)
 80006a6:	f043 0301 	orr.w	r3, r3, #1
 80006aa:	64d3      	str	r3, [r2, #76]	; 0x4c
 80006ac:	4b23      	ldr	r3, [pc, #140]	; (800073c <HAL_ADC_MspInit+0x124>)
 80006ae:	6cdb      	ldr	r3, [r3, #76]	; 0x4c
 80006b0:	f003 0301 	and.w	r3, r3, #1
 80006b4:	60fb      	str	r3, [r7, #12]
 80006b6:	68fb      	ldr	r3, [r7, #12]
 80006b8:	23f0      	movs	r3, #240	; 0xf0
 80006ba:	f8c7 309c 	str.w	r3, [r7, #156]	; 0x9c
 80006be:	230b      	movs	r3, #11
 80006c0:	f8c7 30a0 	str.w	r3, [r7, #160]	; 0xa0
 80006c4:	2300      	movs	r3, #0
 80006c6:	f8c7 30a4 	str.w	r3, [r7, #164]	; 0xa4
 80006ca:	f107 039c 	add.w	r3, r7, #156	; 0x9c
 80006ce:	4619      	mov	r1, r3
 80006d0:	f04f 4090 	mov.w	r0, #1207959552	; 0x48000000
 80006d4:	f002 f8da 	bl	800288c <HAL_GPIO_Init>
 80006d8:	4b19      	ldr	r3, [pc, #100]	; (8000740 <HAL_ADC_MspInit+0x128>)
 80006da:	4a1a      	ldr	r2, [pc, #104]	; (8000744 <HAL_ADC_MspInit+0x12c>)
 80006dc:	601a      	str	r2, [r3, #0]
 80006de:	4b18      	ldr	r3, [pc, #96]	; (8000740 <HAL_ADC_MspInit+0x128>)
 80006e0:	2200      	movs	r2, #0
 80006e2:	605a      	str	r2, [r3, #4]
 80006e4:	4b16      	ldr	r3, [pc, #88]	; (8000740 <HAL_ADC_MspInit+0x128>)
 80006e6:	2200      	movs	r2, #0
 80006e8:	609a      	str	r2, [r3, #8]
 80006ea:	4b15      	ldr	r3, [pc, #84]	; (8000740 <HAL_ADC_MspInit+0x128>)
 80006ec:	2200      	movs	r2, #0
 80006ee:	60da      	str	r2, [r3, #12]
 80006f0:	4b13      	ldr	r3, [pc, #76]	; (8000740 <HAL_ADC_MspInit+0x128>)
 80006f2:	2280      	movs	r2, #128	; 0x80
 80006f4:	611a      	str	r2, [r3, #16]
 80006f6:	4b12      	ldr	r3, [pc, #72]	; (8000740 <HAL_ADC_MspInit+0x128>)
 80006f8:	f44f 7200 	mov.w	r2, #512	; 0x200
 80006fc:	615a      	str	r2, [r3, #20]
 80006fe:	4b10      	ldr	r3, [pc, #64]	; (8000740 <HAL_ADC_MspInit+0x128>)
 8000700:	f44f 6200 	mov.w	r2, #2048	; 0x800
 8000704:	619a      	str	r2, [r3, #24]
 8000706:	4b0e      	ldr	r3, [pc, #56]	; (8000740 <HAL_ADC_MspInit+0x128>)
 8000708:	2220      	movs	r2, #32
 800070a:	61da      	str	r2, [r3, #28]
 800070c:	4b0c      	ldr	r3, [pc, #48]	; (8000740 <HAL_ADC_MspInit+0x128>)
 800070e:	2200      	movs	r2, #0
 8000710:	621a      	str	r2, [r3, #32]
 8000712:	480b      	ldr	r0, [pc, #44]	; (8000740 <HAL_ADC_MspInit+0x128>)
 8000714:	f001 fec2 	bl	800249c <HAL_DMA_Init>
 8000718:	4603      	mov	r3, r0
 800071a:	2b00      	cmp	r3, #0
 800071c:	d001      	beq.n	8000722 <HAL_ADC_MspInit+0x10a>
 800071e:	f000 f9c9 	bl	8000ab4 <Error_Handler>
 8000722:	687b      	ldr	r3, [r7, #4]
 8000724:	4a06      	ldr	r2, [pc, #24]	; (8000740 <HAL_ADC_MspInit+0x128>)
 8000726:	64da      	str	r2, [r3, #76]	; 0x4c
 8000728:	4a05      	ldr	r2, [pc, #20]	; (8000740 <HAL_ADC_MspInit+0x128>)
 800072a:	687b      	ldr	r3, [r7, #4]
 800072c:	6293      	str	r3, [r2, #40]	; 0x28
 800072e:	bf00      	nop
 8000730:	37b0      	adds	r7, #176	; 0xb0
 8000732:	46bd      	mov	sp, r7
 8000734:	bd80      	pop	{r7, pc}
 8000736:	bf00      	nop
 8000738:	50040000 	.word	0x50040000
 800073c:	40021000 	.word	0x40021000
 8000740:	20000ff0 	.word	0x20000ff0
 8000744:	40020008 	.word	0x40020008

08000748 <MX_DMA_Init>:
 8000748:	b580      	push	{r7, lr}
 800074a:	b082      	sub	sp, #8
 800074c:	af00      	add	r7, sp, #0
 800074e:	4b0c      	ldr	r3, [pc, #48]	; (8000780 <MX_DMA_Init+0x38>)
 8000750:	6c9b      	ldr	r3, [r3, #72]	; 0x48
 8000752:	4a0b      	ldr	r2, [pc, #44]	; (8000780 <MX_DMA_Init+0x38>)
 8000754:	f043 0301 	orr.w	r3, r3, #1
 8000758:	6493      	str	r3, [r2, #72]	; 0x48
 800075a:	4b09      	ldr	r3, [pc, #36]	; (8000780 <MX_DMA_Init+0x38>)
 800075c:	6c9b      	ldr	r3, [r3, #72]	; 0x48
 800075e:	f003 0301 	and.w	r3, r3, #1
 8000762:	607b      	str	r3, [r7, #4]
 8000764:	687b      	ldr	r3, [r7, #4]
 8000766:	2200      	movs	r2, #0
 8000768:	2105      	movs	r1, #5
 800076a:	200b      	movs	r0, #11
 800076c:	f001 fe6c 	bl	8002448 <HAL_NVIC_SetPriority>
 8000770:	200b      	movs	r0, #11
 8000772:	f001 fe85 	bl	8002480 <HAL_NVIC_EnableIRQ>
 8000776:	bf00      	nop
 8000778:	3708      	adds	r7, #8
 800077a:	46bd      	mov	sp, r7
 800077c:	bd80      	pop	{r7, pc}
 800077e:	bf00      	nop
 8000780:	40021000 	.word	0x40021000

08000784 <vApplicationGetIdleTaskMemory>:
 8000784:	b480      	push	{r7}
 8000786:	b085      	sub	sp, #20
 8000788:	af00      	add	r7, sp, #0
 800078a:	60f8      	str	r0, [r7, #12]
 800078c:	60b9      	str	r1, [r7, #8]
 800078e:	607a      	str	r2, [r7, #4]
 8000790:	68fb      	ldr	r3, [r7, #12]
 8000792:	4a07      	ldr	r2, [pc, #28]	; (80007b0 <vApplicationGetIdleTaskMemory+0x2c>)
 8000794:	601a      	str	r2, [r3, #0]
 8000796:	68bb      	ldr	r3, [r7, #8]
 8000798:	4a06      	ldr	r2, [pc, #24]	; (80007b4 <vApplicationGetIdleTaskMemory+0x30>)
 800079a:	601a      	str	r2, [r3, #0]
 800079c:	687b      	ldr	r3, [r7, #4]
 800079e:	2280      	movs	r2, #128	; 0x80
 80007a0:	601a      	str	r2, [r3, #0]
 80007a2:	bf00      	nop
 80007a4:	3714      	adds	r7, #20
 80007a6:	46bd      	mov	sp, r7
 80007a8:	f85d 7b04 	ldr.w	r7, [sp], #4
 80007ac:	4770      	bx	lr
 80007ae:	bf00      	nop
 80007b0:	2000002c 	.word	0x2000002c
 80007b4:	20000080 	.word	0x20000080

080007b8 <MX_FREERTOS_Init>:
 80007b8:	b5b0      	push	{r4, r5, r7, lr}
 80007ba:	b098      	sub	sp, #96	; 0x60
 80007bc:	af00      	add	r7, sp, #0
 80007be:	2204      	movs	r2, #4
 80007c0:	4925      	ldr	r1, [pc, #148]	; (8000858 <MX_FREERTOS_Init+0xa0>)
 80007c2:	4826      	ldr	r0, [pc, #152]	; (800085c <MX_FREERTOS_Init+0xa4>)
 80007c4:	f000 fece 	bl	8001564 <HAL_ADC_Start_DMA>
 80007c8:	2300      	movs	r3, #0
 80007ca:	65bb      	str	r3, [r7, #88]	; 0x58
 80007cc:	2300      	movs	r3, #0
 80007ce:	65fb      	str	r3, [r7, #92]	; 0x5c
 80007d0:	f107 0358 	add.w	r3, r7, #88	; 0x58
 80007d4:	4618      	mov	r0, r3
 80007d6:	f004 fe11 	bl	80053fc <osMutexCreate>
 80007da:	4603      	mov	r3, r0
 80007dc:	4a20      	ldr	r2, [pc, #128]	; (8000860 <MX_FREERTOS_Init+0xa8>)
 80007de:	6013      	str	r3, [r2, #0]
 80007e0:	4b20      	ldr	r3, [pc, #128]	; (8000864 <MX_FREERTOS_Init+0xac>)
 80007e2:	f107 043c 	add.w	r4, r7, #60	; 0x3c
 80007e6:	461d      	mov	r5, r3
 80007e8:	cd0f      	ldmia	r5!, {r0, r1, r2, r3}
 80007ea:	c40f      	stmia	r4!, {r0, r1, r2, r3}
 80007ec:	e895 0007 	ldmia.w	r5, {r0, r1, r2}
 80007f0:	e884 0007 	stmia.w	r4, {r0, r1, r2}
 80007f4:	f107 033c 	add.w	r3, r7, #60	; 0x3c
 80007f8:	2100      	movs	r1, #0
 80007fa:	4618      	mov	r0, r3
 80007fc:	f004 fd9e 	bl	800533c <osThreadCreate>
 8000800:	4603      	mov	r3, r0
 8000802:	4a19      	ldr	r2, [pc, #100]	; (8000868 <MX_FREERTOS_Init+0xb0>)
 8000804:	6013      	str	r3, [r2, #0]
 8000806:	4b19      	ldr	r3, [pc, #100]	; (800086c <MX_FREERTOS_Init+0xb4>)
 8000808:	f107 0420 	add.w	r4, r7, #32
 800080c:	461d      	mov	r5, r3
 800080e:	cd0f      	ldmia	r5!, {r0, r1, r2, r3}
 8000810:	c40f      	stmia	r4!, {r0, r1, r2, r3}
 8000812:	e895 0007 	ldmia.w	r5, {r0, r1, r2}
 8000816:	e884 0007 	stmia.w	r4, {r0, r1, r2}
 800081a:	f107 0320 	add.w	r3, r7, #32
 800081e:	2100      	movs	r1, #0
 8000820:	4618      	mov	r0, r3
 8000822:	f004 fd8b 	bl	800533c <osThreadCreate>
 8000826:	4603      	mov	r3, r0
 8000828:	4a11      	ldr	r2, [pc, #68]	; (8000870 <MX_FREERTOS_Init+0xb8>)
 800082a:	6013      	str	r3, [r2, #0]
 800082c:	4b11      	ldr	r3, [pc, #68]	; (8000874 <MX_FREERTOS_Init+0xbc>)
 800082e:	1d3c      	adds	r4, r7, #4
 8000830:	461d      	mov	r5, r3
 8000832:	cd0f      	ldmia	r5!, {r0, r1, r2, r3}
 8000834:	c40f      	stmia	r4!, {r0, r1, r2, r3}
 8000836:	e895 0007 	ldmia.w	r5, {r0, r1, r2}
 800083a:	e884 0007 	stmia.w	r4, {r0, r1, r2}
 800083e:	1d3b      	adds	r3, r7, #4
 8000840:	2100      	movs	r1, #0
 8000842:	4618      	mov	r0, r3
 8000844:	f004 fd7a 	bl	800533c <osThreadCreate>
 8000848:	4603      	mov	r3, r0
 800084a:	4a0b      	ldr	r2, [pc, #44]	; (8000878 <MX_FREERTOS_Init+0xc0>)
 800084c:	6013      	str	r3, [r2, #0]
 800084e:	bf00      	nop
 8000850:	3760      	adds	r7, #96	; 0x60
 8000852:	46bd      	mov	sp, r7
 8000854:	bdb0      	pop	{r4, r5, r7, pc}
 8000856:	bf00      	nop
 8000858:	2000104c 	.word	0x2000104c
 800085c:	20000f8c 	.word	0x20000f8c
 8000860:	20001044 	.word	0x20001044
 8000864:	08007284 	.word	0x08007284
 8000868:	20001038 	.word	0x20001038
 800086c:	080072a0 	.word	0x080072a0
 8000870:	2000105c 	.word	0x2000105c
 8000874:	080072bc 	.word	0x080072bc
 8000878:	20001040 	.word	0x20001040

0800087c <StartDefaultTask>:
 800087c:	b580      	push	{r7, lr}
 800087e:	b082      	sub	sp, #8
 8000880:	af00      	add	r7, sp, #0
 8000882:	6078      	str	r0, [r7, #4]
 8000884:	4b04      	ldr	r3, [pc, #16]	; (8000898 <StartDefaultTask+0x1c>)
 8000886:	681b      	ldr	r3, [r3, #0]
 8000888:	3301      	adds	r3, #1
 800088a:	4a03      	ldr	r2, [pc, #12]	; (8000898 <StartDefaultTask+0x1c>)
 800088c:	6013      	str	r3, [r2, #0]
 800088e:	2001      	movs	r0, #1
 8000890:	f004 fda0 	bl	80053d4 <osDelay>
 8000894:	e7f6      	b.n	8000884 <StartDefaultTask+0x8>
 8000896:	bf00      	nop
 8000898:	20001048 	.word	0x20001048

0800089c <Tread1Func>:
 800089c:	b580      	push	{r7, lr}
 800089e:	b082      	sub	sp, #8
 80008a0:	af00      	add	r7, sp, #0
 80008a2:	6078      	str	r0, [r7, #4]
 80008a4:	f44f 6196 	mov.w	r1, #1200	; 0x4b0
 80008a8:	2053      	movs	r0, #83	; 0x53
 80008aa:	f000 fab9 	bl	8000e20 <uart_send_data>
 80008ae:	2001      	movs	r0, #1
 80008b0:	f004 fd90 	bl	80053d4 <osDelay>
 80008b4:	e7f6      	b.n	80008a4 <Tread1Func+0x8>
	...

080008b8 <Tread2Func>:
 80008b8:	b580      	push	{r7, lr}
 80008ba:	b082      	sub	sp, #8
 80008bc:	af00      	add	r7, sp, #0
 80008be:	6078      	str	r0, [r7, #4]
 80008c0:	2110      	movs	r1, #16
 80008c2:	4804      	ldr	r0, [pc, #16]	; (80008d4 <Tread2Func+0x1c>)
 80008c4:	f002 f9a4 	bl	8002c10 <HAL_GPIO_TogglePin>
 80008c8:	f44f 7016 	mov.w	r0, #600	; 0x258
 80008cc:	f004 fd82 	bl	80053d4 <osDelay>
 80008d0:	e7f6      	b.n	80008c0 <Tread2Func+0x8>
 80008d2:	bf00      	nop
 80008d4:	48000400 	.word	0x48000400

080008d8 <MX_GPIO_Init>:
 80008d8:	b580      	push	{r7, lr}
 80008da:	b08a      	sub	sp, #40	; 0x28
 80008dc:	af00      	add	r7, sp, #0
 80008de:	f107 0314 	add.w	r3, r7, #20
 80008e2:	2200      	movs	r2, #0
 80008e4:	601a      	str	r2, [r3, #0]
 80008e6:	605a      	str	r2, [r3, #4]
 80008e8:	609a      	str	r2, [r3, #8]
 80008ea:	60da      	str	r2, [r3, #12]
 80008ec:	611a      	str	r2, [r3, #16]
 80008ee:	4b2a      	ldr	r3, [pc, #168]	; (8000998 <MX_GPIO_Init+0xc0>)
 80008f0:	6cdb      	ldr	r3, [r3, #76]	; 0x4c
 80008f2:	4a29      	ldr	r2, [pc, #164]	; (8000998 <MX_GPIO_Init+0xc0>)
 80008f4:	f043 0304 	orr.w	r3, r3, #4
 80008f8:	64d3      	str	r3, [r2, #76]	; 0x4c
 80008fa:	4b27      	ldr	r3, [pc, #156]	; (8000998 <MX_GPIO_Init+0xc0>)
 80008fc:	6cdb      	ldr	r3, [r3, #76]	; 0x4c
 80008fe:	f003 0304 	and.w	r3, r3, #4
 8000902:	613b      	str	r3, [r7, #16]
 8000904:	693b      	ldr	r3, [r7, #16]
 8000906:	4b24      	ldr	r3, [pc, #144]	; (8000998 <MX_GPIO_Init+0xc0>)
 8000908:	6cdb      	ldr	r3, [r3, #76]	; 0x4c
 800090a:	4a23      	ldr	r2, [pc, #140]	; (8000998 <MX_GPIO_Init+0xc0>)
 800090c:	f043 0380 	orr.w	r3, r3, #128	; 0x80
 8000910:	64d3      	str	r3, [r2, #76]	; 0x4c
 8000912:	4b21      	ldr	r3, [pc, #132]	; (8000998 <MX_GPIO_Init+0xc0>)
 8000914:	6cdb      	ldr	r3, [r3, #76]	; 0x4c
 8000916:	f003 0380 	and.w	r3, r3, #128	; 0x80
 800091a:	60fb      	str	r3, [r7, #12]
 800091c:	68fb      	ldr	r3, [r7, #12]
 800091e:	4b1e      	ldr	r3, [pc, #120]	; (8000998 <MX_GPIO_Init+0xc0>)
 8000920:	6cdb      	ldr	r3, [r3, #76]	; 0x4c
 8000922:	4a1d      	ldr	r2, [pc, #116]	; (8000998 <MX_GPIO_Init+0xc0>)
 8000924:	f043 0301 	orr.w	r3, r3, #1
 8000928:	64d3      	str	r3, [r2, #76]	; 0x4c
 800092a:	4b1b      	ldr	r3, [pc, #108]	; (8000998 <MX_GPIO_Init+0xc0>)
 800092c:	6cdb      	ldr	r3, [r3, #76]	; 0x4c
 800092e:	f003 0301 	and.w	r3, r3, #1
 8000932:	60bb      	str	r3, [r7, #8]
 8000934:	68bb      	ldr	r3, [r7, #8]
 8000936:	4b18      	ldr	r3, [pc, #96]	; (8000998 <MX_GPIO_Init+0xc0>)
 8000938:	6cdb      	ldr	r3, [r3, #76]	; 0x4c
 800093a:	4a17      	ldr	r2, [pc, #92]	; (8000998 <MX_GPIO_Init+0xc0>)
 800093c:	f043 0302 	orr.w	r3, r3, #2
 8000940:	64d3      	str	r3, [r2, #76]	; 0x4c
 8000942:	4b15      	ldr	r3, [pc, #84]	; (8000998 <MX_GPIO_Init+0xc0>)
 8000944:	6cdb      	ldr	r3, [r3, #76]	; 0x4c
 8000946:	f003 0302 	and.w	r3, r3, #2
 800094a:	607b      	str	r3, [r7, #4]
 800094c:	687b      	ldr	r3, [r7, #4]
 800094e:	2200      	movs	r2, #0
 8000950:	21f0      	movs	r1, #240	; 0xf0
 8000952:	4812      	ldr	r0, [pc, #72]	; (800099c <MX_GPIO_Init+0xc4>)
 8000954:	f002 f944 	bl	8002be0 <HAL_GPIO_WritePin>
 8000958:	f44f 5300 	mov.w	r3, #8192	; 0x2000
 800095c:	617b      	str	r3, [r7, #20]
 800095e:	2300      	movs	r3, #0
 8000960:	61bb      	str	r3, [r7, #24]
 8000962:	2300      	movs	r3, #0
 8000964:	61fb      	str	r3, [r7, #28]
 8000966:	f107 0314 	add.w	r3, r7, #20
 800096a:	4619      	mov	r1, r3
 800096c:	480c      	ldr	r0, [pc, #48]	; (80009a0 <MX_GPIO_Init+0xc8>)
 800096e:	f001 ff8d 	bl	800288c <HAL_GPIO_Init>
 8000972:	23f0      	movs	r3, #240	; 0xf0
 8000974:	617b      	str	r3, [r7, #20]
 8000976:	2301      	movs	r3, #1
 8000978:	61bb      	str	r3, [r7, #24]
 800097a:	2300      	movs	r3, #0
 800097c:	61fb      	str	r3, [r7, #28]
 800097e:	2300      	movs	r3, #0
 8000980:	623b      	str	r3, [r7, #32]
 8000982:	f107 0314 	add.w	r3, r7, #20
 8000986:	4619      	mov	r1, r3
 8000988:	4804      	ldr	r0, [pc, #16]	; (800099c <MX_GPIO_Init+0xc4>)
 800098a:	f001 ff7f 	bl	800288c <HAL_GPIO_Init>
 800098e:	bf00      	nop
 8000990:	3728      	adds	r7, #40	; 0x28
 8000992:	46bd      	mov	sp, r7
 8000994:	bd80      	pop	{r7, pc}
 8000996:	bf00      	nop
 8000998:	40021000 	.word	0x40021000
 800099c:	48000400 	.word	0x48000400
 80009a0:	48000800 	.word	0x48000800

080009a4 <main>:
 80009a4:	b580      	push	{r7, lr}
 80009a6:	af00      	add	r7, sp, #0
 80009a8:	f000 fa77 	bl	8000e9a <HAL_Init>
 80009ac:	f000 f80e 	bl	80009cc <SystemClock_Config>
 80009b0:	f7ff ff92 	bl	80008d8 <MX_GPIO_Init>
 80009b4:	f7ff fec8 	bl	8000748 <MX_DMA_Init>
 80009b8:	f7ff fd86 	bl	80004c8 <MX_ADC1_Init>
 80009bc:	f000 f95e 	bl	8000c7c <MX_USART2_UART_Init>
 80009c0:	f7ff fefa 	bl	80007b8 <MX_FREERTOS_Init>
 80009c4:	f004 fcb3 	bl	800532e <osKernelStart>
 80009c8:	e7fe      	b.n	80009c8 <main+0x24>
	...

080009cc <SystemClock_Config>:
 80009cc:	b580      	push	{r7, lr}
 80009ce:	b096      	sub	sp, #88	; 0x58
 80009d0:	af00      	add	r7, sp, #0
 80009d2:	f107 0314 	add.w	r3, r7, #20
 80009d6:	2244      	movs	r2, #68	; 0x44
 80009d8:	2100      	movs	r1, #0
 80009da:	4618      	mov	r0, r3
 80009dc:	f006 fc30 	bl	8007240 <memset>
 80009e0:	463b      	mov	r3, r7
 80009e2:	2200      	movs	r2, #0
 80009e4:	601a      	str	r2, [r3, #0]
 80009e6:	605a      	str	r2, [r3, #4]
 80009e8:	609a      	str	r2, [r3, #8]
 80009ea:	60da      	str	r2, [r3, #12]
 80009ec:	611a      	str	r2, [r3, #16]
 80009ee:	f44f 7000 	mov.w	r0, #512	; 0x200
 80009f2:	f002 f945 	bl	8002c80 <HAL_PWREx_ControlVoltageScaling>
 80009f6:	4603      	mov	r3, r0
 80009f8:	2b00      	cmp	r3, #0
 80009fa:	d001      	beq.n	8000a00 <SystemClock_Config+0x34>
 80009fc:	f000 f85a 	bl	8000ab4 <Error_Handler>
 8000a00:	f002 f920 	bl	8002c44 <HAL_PWR_EnableBkUpAccess>
 8000a04:	4b21      	ldr	r3, [pc, #132]	; (8000a8c <SystemClock_Config+0xc0>)
 8000a06:	f8d3 3090 	ldr.w	r3, [r3, #144]	; 0x90
 8000a0a:	4a20      	ldr	r2, [pc, #128]	; (8000a8c <SystemClock_Config+0xc0>)
 8000a0c:	f023 0318 	bic.w	r3, r3, #24
 8000a10:	f8c2 3090 	str.w	r3, [r2, #144]	; 0x90
 8000a14:	2314      	movs	r3, #20
 8000a16:	617b      	str	r3, [r7, #20]
 8000a18:	2301      	movs	r3, #1
 8000a1a:	61fb      	str	r3, [r7, #28]
 8000a1c:	2301      	movs	r3, #1
 8000a1e:	62fb      	str	r3, [r7, #44]	; 0x2c
 8000a20:	2300      	movs	r3, #0
 8000a22:	633b      	str	r3, [r7, #48]	; 0x30
 8000a24:	2360      	movs	r3, #96	; 0x60
 8000a26:	637b      	str	r3, [r7, #52]	; 0x34
 8000a28:	2302      	movs	r3, #2
 8000a2a:	63fb      	str	r3, [r7, #60]	; 0x3c
 8000a2c:	2301      	movs	r3, #1
 8000a2e:	643b      	str	r3, [r7, #64]	; 0x40
 8000a30:	2301      	movs	r3, #1
 8000a32:	647b      	str	r3, [r7, #68]	; 0x44
 8000a34:	2328      	movs	r3, #40	; 0x28
 8000a36:	64bb      	str	r3, [r7, #72]	; 0x48
 8000a38:	2307      	movs	r3, #7
 8000a3a:	64fb      	str	r3, [r7, #76]	; 0x4c
 8000a3c:	2302      	movs	r3, #2
 8000a3e:	653b      	str	r3, [r7, #80]	; 0x50
 8000a40:	2302      	movs	r3, #2
 8000a42:	657b      	str	r3, [r7, #84]	; 0x54
 8000a44:	f107 0314 	add.w	r3, r7, #20
 8000a48:	4618      	mov	r0, r3
 8000a4a:	f002 f96f 	bl	8002d2c <HAL_RCC_OscConfig>
 8000a4e:	4603      	mov	r3, r0
 8000a50:	2b00      	cmp	r3, #0
 8000a52:	d001      	beq.n	8000a58 <SystemClock_Config+0x8c>
 8000a54:	f000 f82e 	bl	8000ab4 <Error_Handler>
 8000a58:	230f      	movs	r3, #15
 8000a5a:	603b      	str	r3, [r7, #0]
 8000a5c:	2303      	movs	r3, #3
 8000a5e:	607b      	str	r3, [r7, #4]
 8000a60:	2300      	movs	r3, #0
 8000a62:	60bb      	str	r3, [r7, #8]
 8000a64:	2300      	movs	r3, #0
 8000a66:	60fb      	str	r3, [r7, #12]
 8000a68:	2300      	movs	r3, #0
 8000a6a:	613b      	str	r3, [r7, #16]
 8000a6c:	463b      	mov	r3, r7
 8000a6e:	2104      	movs	r1, #4
 8000a70:	4618      	mov	r0, r3
 8000a72:	f002 fd35 	bl	80034e0 <HAL_RCC_ClockConfig>
 8000a76:	4603      	mov	r3, r0
 8000a78:	2b00      	cmp	r3, #0
 8000a7a:	d001      	beq.n	8000a80 <SystemClock_Config+0xb4>
 8000a7c:	f000 f81a 	bl	8000ab4 <Error_Handler>
 8000a80:	f003 fa6e 	bl	8003f60 <HAL_RCCEx_EnableMSIPLLMode>
 8000a84:	bf00      	nop
 8000a86:	3758      	adds	r7, #88	; 0x58
 8000a88:	46bd      	mov	sp, r7
 8000a8a:	bd80      	pop	{r7, pc}
 8000a8c:	40021000 	.word	0x40021000

08000a90 <HAL_TIM_PeriodElapsedCallback>:
 8000a90:	b580      	push	{r7, lr}
 8000a92:	b082      	sub	sp, #8
 8000a94:	af00      	add	r7, sp, #0
 8000a96:	6078      	str	r0, [r7, #4]
 8000a98:	687b      	ldr	r3, [r7, #4]
 8000a9a:	681b      	ldr	r3, [r3, #0]
 8000a9c:	4a04      	ldr	r2, [pc, #16]	; (8000ab0 <HAL_TIM_PeriodElapsedCallback+0x20>)
 8000a9e:	4293      	cmp	r3, r2
 8000aa0:	d101      	bne.n	8000aa6 <HAL_TIM_PeriodElapsedCallback+0x16>
 8000aa2:	f000 fa13 	bl	8000ecc <HAL_IncTick>
 8000aa6:	bf00      	nop
 8000aa8:	3708      	adds	r7, #8
 8000aaa:	46bd      	mov	sp, r7
 8000aac:	bd80      	pop	{r7, pc}
 8000aae:	bf00      	nop
 8000ab0:	40000400 	.word	0x40000400

08000ab4 <Error_Handler>:
 8000ab4:	b480      	push	{r7}
 8000ab6:	af00      	add	r7, sp, #0
 8000ab8:	b672      	cpsid	i
 8000aba:	bf00      	nop
 8000abc:	e7fe      	b.n	8000abc <Error_Handler+0x8>
	...

08000ac0 <HAL_MspInit>:
 8000ac0:	b580      	push	{r7, lr}
 8000ac2:	b082      	sub	sp, #8
 8000ac4:	af00      	add	r7, sp, #0
 8000ac6:	4b11      	ldr	r3, [pc, #68]	; (8000b0c <HAL_MspInit+0x4c>)
 8000ac8:	6e1b      	ldr	r3, [r3, #96]	; 0x60
 8000aca:	4a10      	ldr	r2, [pc, #64]	; (8000b0c <HAL_MspInit+0x4c>)
 8000acc:	f043 0301 	orr.w	r3, r3, #1
 8000ad0:	6613      	str	r3, [r2, #96]	; 0x60
 8000ad2:	4b0e      	ldr	r3, [pc, #56]	; (8000b0c <HAL_MspInit+0x4c>)
 8000ad4:	6e1b      	ldr	r3, [r3, #96]	; 0x60
 8000ad6:	f003 0301 	and.w	r3, r3, #1
 8000ada:	607b      	str	r3, [r7, #4]
 8000adc:	687b      	ldr	r3, [r7, #4]
 8000ade:	4b0b      	ldr	r3, [pc, #44]	; (8000b0c <HAL_MspInit+0x4c>)
 8000ae0:	6d9b      	ldr	r3, [r3, #88]	; 0x58
 8000ae2:	4a0a      	ldr	r2, [pc, #40]	; (8000b0c <HAL_MspInit+0x4c>)
 8000ae4:	f043 5380 	orr.w	r3, r3, #268435456	; 0x10000000
 8000ae8:	6593      	str	r3, [r2, #88]	; 0x58
 8000aea:	4b08      	ldr	r3, [pc, #32]	; (8000b0c <HAL_MspInit+0x4c>)
 8000aec:	6d9b      	ldr	r3, [r3, #88]	; 0x58
 8000aee:	f003 5380 	and.w	r3, r3, #268435456	; 0x10000000
 8000af2:	603b      	str	r3, [r7, #0]
 8000af4:	683b      	ldr	r3, [r7, #0]
 8000af6:	2200      	movs	r2, #0
 8000af8:	210f      	movs	r1, #15
 8000afa:	f06f 0001 	mvn.w	r0, #1
 8000afe:	f001 fca3 	bl	8002448 <HAL_NVIC_SetPriority>
 8000b02:	bf00      	nop
 8000b04:	3708      	adds	r7, #8
 8000b06:	46bd      	mov	sp, r7
 8000b08:	bd80      	pop	{r7, pc}
 8000b0a:	bf00      	nop
 8000b0c:	40021000 	.word	0x40021000

08000b10 <HAL_InitTick>:
 8000b10:	b580      	push	{r7, lr}
 8000b12:	b08e      	sub	sp, #56	; 0x38
 8000b14:	af00      	add	r7, sp, #0
 8000b16:	6078      	str	r0, [r7, #4]
 8000b18:	2300      	movs	r3, #0
 8000b1a:	f887 3033 	strb.w	r3, [r7, #51]	; 0x33
 8000b1e:	4b34      	ldr	r3, [pc, #208]	; (8000bf0 <HAL_InitTick+0xe0>)
 8000b20:	6d9b      	ldr	r3, [r3, #88]	; 0x58
 8000b22:	4a33      	ldr	r2, [pc, #204]	; (8000bf0 <HAL_InitTick+0xe0>)
 8000b24:	f043 0302 	orr.w	r3, r3, #2
 8000b28:	6593      	str	r3, [r2, #88]	; 0x58
 8000b2a:	4b31      	ldr	r3, [pc, #196]	; (8000bf0 <HAL_InitTick+0xe0>)
 8000b2c:	6d9b      	ldr	r3, [r3, #88]	; 0x58
 8000b2e:	f003 0302 	and.w	r3, r3, #2
 8000b32:	60fb      	str	r3, [r7, #12]
 8000b34:	68fb      	ldr	r3, [r7, #12]
 8000b36:	f107 0210 	add.w	r2, r7, #16
 8000b3a:	f107 0314 	add.w	r3, r7, #20
 8000b3e:	4611      	mov	r1, r2
 8000b40:	4618      	mov	r0, r3
 8000b42:	f002 fe91 	bl	8003868 <HAL_RCC_GetClockConfig>
 8000b46:	6a3b      	ldr	r3, [r7, #32]
 8000b48:	62fb      	str	r3, [r7, #44]	; 0x2c
 8000b4a:	6afb      	ldr	r3, [r7, #44]	; 0x2c
 8000b4c:	2b00      	cmp	r3, #0
 8000b4e:	d103      	bne.n	8000b58 <HAL_InitTick+0x48>
 8000b50:	f002 fe5e 	bl	8003810 <HAL_RCC_GetPCLK1Freq>
 8000b54:	6378      	str	r0, [r7, #52]	; 0x34
 8000b56:	e004      	b.n	8000b62 <HAL_InitTick+0x52>
 8000b58:	f002 fe5a 	bl	8003810 <HAL_RCC_GetPCLK1Freq>
 8000b5c:	4603      	mov	r3, r0
 8000b5e:	005b      	lsls	r3, r3, #1
 8000b60:	637b      	str	r3, [r7, #52]	; 0x34
 8000b62:	6b7b      	ldr	r3, [r7, #52]	; 0x34
 8000b64:	4a23      	ldr	r2, [pc, #140]	; (8000bf4 <HAL_InitTick+0xe4>)
 8000b66:	fba2 2303 	umull	r2, r3, r2, r3
 8000b6a:	0c9b      	lsrs	r3, r3, #18
 8000b6c:	3b01      	subs	r3, #1
 8000b6e:	62bb      	str	r3, [r7, #40]	; 0x28
 8000b70:	4b21      	ldr	r3, [pc, #132]	; (8000bf8 <HAL_InitTick+0xe8>)
 8000b72:	4a22      	ldr	r2, [pc, #136]	; (8000bfc <HAL_InitTick+0xec>)
 8000b74:	601a      	str	r2, [r3, #0]
 8000b76:	4b20      	ldr	r3, [pc, #128]	; (8000bf8 <HAL_InitTick+0xe8>)
 8000b78:	f240 32e7 	movw	r2, #999	; 0x3e7
 8000b7c:	60da      	str	r2, [r3, #12]
 8000b7e:	4a1e      	ldr	r2, [pc, #120]	; (8000bf8 <HAL_InitTick+0xe8>)
 8000b80:	6abb      	ldr	r3, [r7, #40]	; 0x28
 8000b82:	6053      	str	r3, [r2, #4]
 8000b84:	4b1c      	ldr	r3, [pc, #112]	; (8000bf8 <HAL_InitTick+0xe8>)
 8000b86:	2200      	movs	r2, #0
 8000b88:	611a      	str	r2, [r3, #16]
 8000b8a:	4b1b      	ldr	r3, [pc, #108]	; (8000bf8 <HAL_InitTick+0xe8>)
 8000b8c:	2200      	movs	r2, #0
 8000b8e:	609a      	str	r2, [r3, #8]
 8000b90:	4b19      	ldr	r3, [pc, #100]	; (8000bf8 <HAL_InitTick+0xe8>)
 8000b92:	2200      	movs	r2, #0
 8000b94:	619a      	str	r2, [r3, #24]
 8000b96:	4818      	ldr	r0, [pc, #96]	; (8000bf8 <HAL_InitTick+0xe8>)
 8000b98:	f003 fbc4 	bl	8004324 <HAL_TIM_Base_Init>
 8000b9c:	4603      	mov	r3, r0
 8000b9e:	f887 3033 	strb.w	r3, [r7, #51]	; 0x33
 8000ba2:	f897 3033 	ldrb.w	r3, [r7, #51]	; 0x33
 8000ba6:	2b00      	cmp	r3, #0
 8000ba8:	d11b      	bne.n	8000be2 <HAL_InitTick+0xd2>
 8000baa:	4813      	ldr	r0, [pc, #76]	; (8000bf8 <HAL_InitTick+0xe8>)
 8000bac:	f003 fc1c 	bl	80043e8 <HAL_TIM_Base_Start_IT>
 8000bb0:	4603      	mov	r3, r0
 8000bb2:	f887 3033 	strb.w	r3, [r7, #51]	; 0x33
 8000bb6:	f897 3033 	ldrb.w	r3, [r7, #51]	; 0x33
 8000bba:	2b00      	cmp	r3, #0
 8000bbc:	d111      	bne.n	8000be2 <HAL_InitTick+0xd2>
 8000bbe:	201d      	movs	r0, #29
 8000bc0:	f001 fc5e 	bl	8002480 <HAL_NVIC_EnableIRQ>
 8000bc4:	687b      	ldr	r3, [r7, #4]
 8000bc6:	2b0f      	cmp	r3, #15
 8000bc8:	d808      	bhi.n	8000bdc <HAL_InitTick+0xcc>
 8000bca:	2200      	movs	r2, #0
 8000bcc:	6879      	ldr	r1, [r7, #4]
 8000bce:	201d      	movs	r0, #29
 8000bd0:	f001 fc3a 	bl	8002448 <HAL_NVIC_SetPriority>
 8000bd4:	4a0a      	ldr	r2, [pc, #40]	; (8000c00 <HAL_InitTick+0xf0>)
 8000bd6:	687b      	ldr	r3, [r7, #4]
 8000bd8:	6013      	str	r3, [r2, #0]
 8000bda:	e002      	b.n	8000be2 <HAL_InitTick+0xd2>
 8000bdc:	2301      	movs	r3, #1
 8000bde:	f887 3033 	strb.w	r3, [r7, #51]	; 0x33
 8000be2:	f897 3033 	ldrb.w	r3, [r7, #51]	; 0x33
 8000be6:	4618      	mov	r0, r3
 8000be8:	3738      	adds	r7, #56	; 0x38
 8000bea:	46bd      	mov	sp, r7
 8000bec:	bd80      	pop	{r7, pc}
 8000bee:	bf00      	nop
 8000bf0:	40021000 	.word	0x40021000
 8000bf4:	431bde83 	.word	0x431bde83
 8000bf8:	200010ec 	.word	0x200010ec
 8000bfc:	40000400 	.word	0x40000400
 8000c00:	20000004 	.word	0x20000004

08000c04 <NMI_Handler>:
 8000c04:	b480      	push	{r7}
 8000c06:	af00      	add	r7, sp, #0
 8000c08:	e7fe      	b.n	8000c08 <NMI_Handler+0x4>

08000c0a <HardFault_Handler>:
 8000c0a:	b480      	push	{r7}
 8000c0c:	af00      	add	r7, sp, #0
 8000c0e:	e7fe      	b.n	8000c0e <HardFault_Handler+0x4>

08000c10 <MemManage_Handler>:
 8000c10:	b480      	push	{r7}
 8000c12:	af00      	add	r7, sp, #0
 8000c14:	e7fe      	b.n	8000c14 <MemManage_Handler+0x4>

08000c16 <BusFault_Handler>:
 8000c16:	b480      	push	{r7}
 8000c18:	af00      	add	r7, sp, #0
 8000c1a:	e7fe      	b.n	8000c1a <BusFault_Handler+0x4>

08000c1c <UsageFault_Handler>:
 8000c1c:	b480      	push	{r7}
 8000c1e:	af00      	add	r7, sp, #0
 8000c20:	e7fe      	b.n	8000c20 <UsageFault_Handler+0x4>

08000c22 <DebugMon_Handler>:
 8000c22:	b480      	push	{r7}
 8000c24:	af00      	add	r7, sp, #0
 8000c26:	bf00      	nop
 8000c28:	46bd      	mov	sp, r7
 8000c2a:	f85d 7b04 	ldr.w	r7, [sp], #4
 8000c2e:	4770      	bx	lr

08000c30 <DMA1_Channel1_IRQHandler>:
 8000c30:	b580      	push	{r7, lr}
 8000c32:	af00      	add	r7, sp, #0
 8000c34:	4802      	ldr	r0, [pc, #8]	; (8000c40 <DMA1_Channel1_IRQHandler+0x10>)
 8000c36:	f001 fd49 	bl	80026cc <HAL_DMA_IRQHandler>
 8000c3a:	bf00      	nop
 8000c3c:	bd80      	pop	{r7, pc}
 8000c3e:	bf00      	nop
 8000c40:	20000ff0 	.word	0x20000ff0

08000c44 <TIM3_IRQHandler>:
 8000c44:	b580      	push	{r7, lr}
 8000c46:	af00      	add	r7, sp, #0
 8000c48:	4802      	ldr	r0, [pc, #8]	; (8000c54 <TIM3_IRQHandler+0x10>)
 8000c4a:	f003 fc3d 	bl	80044c8 <HAL_TIM_IRQHandler>
 8000c4e:	bf00      	nop
 8000c50:	bd80      	pop	{r7, pc}
 8000c52:	bf00      	nop
 8000c54:	200010ec 	.word	0x200010ec

08000c58 <SystemInit>:
 8000c58:	b480      	push	{r7}
 8000c5a:	af00      	add	r7, sp, #0
 8000c5c:	4b06      	ldr	r3, [pc, #24]	; (8000c78 <SystemInit+0x20>)
 8000c5e:	f8d3 3088 	ldr.w	r3, [r3, #136]	; 0x88
 8000c62:	4a05      	ldr	r2, [pc, #20]	; (8000c78 <SystemInit+0x20>)
 8000c64:	f443 0370 	orr.w	r3, r3, #15728640	; 0xf00000
 8000c68:	f8c2 3088 	str.w	r3, [r2, #136]	; 0x88
 8000c6c:	bf00      	nop
 8000c6e:	46bd      	mov	sp, r7
 8000c70:	f85d 7b04 	ldr.w	r7, [sp], #4
 8000c74:	4770      	bx	lr
 8000c76:	bf00      	nop
 8000c78:	e000ed00 	.word	0xe000ed00

08000c7c <MX_USART2_UART_Init>:
 8000c7c:	b580      	push	{r7, lr}
 8000c7e:	af00      	add	r7, sp, #0
 8000c80:	4b14      	ldr	r3, [pc, #80]	; (8000cd4 <MX_USART2_UART_Init+0x58>)
 8000c82:	4a15      	ldr	r2, [pc, #84]	; (8000cd8 <MX_USART2_UART_Init+0x5c>)
 8000c84:	601a      	str	r2, [r3, #0]
 8000c86:	4b13      	ldr	r3, [pc, #76]	; (8000cd4 <MX_USART2_UART_Init+0x58>)
 8000c88:	f44f 32e1 	mov.w	r2, #115200	; 0x1c200
 8000c8c:	605a      	str	r2, [r3, #4]
 8000c8e:	4b11      	ldr	r3, [pc, #68]	; (8000cd4 <MX_USART2_UART_Init+0x58>)
 8000c90:	2200      	movs	r2, #0
 8000c92:	609a      	str	r2, [r3, #8]
 8000c94:	4b0f      	ldr	r3, [pc, #60]	; (8000cd4 <MX_USART2_UART_Init+0x58>)
 8000c96:	2200      	movs	r2, #0
 8000c98:	60da      	str	r2, [r3, #12]
 8000c9a:	4b0e      	ldr	r3, [pc, #56]	; (8000cd4 <MX_USART2_UART_Init+0x58>)
 8000c9c:	2200      	movs	r2, #0
 8000c9e:	611a      	str	r2, [r3, #16]
 8000ca0:	4b0c      	ldr	r3, [pc, #48]	; (8000cd4 <MX_USART2_UART_Init+0x58>)
 8000ca2:	220c      	movs	r2, #12
 8000ca4:	615a      	str	r2, [r3, #20]
 8000ca6:	4b0b      	ldr	r3, [pc, #44]	; (8000cd4 <MX_USART2_UART_Init+0x58>)
 8000ca8:	2200      	movs	r2, #0
 8000caa:	619a      	str	r2, [r3, #24]
 8000cac:	4b09      	ldr	r3, [pc, #36]	; (8000cd4 <MX_USART2_UART_Init+0x58>)
 8000cae:	2200      	movs	r2, #0
 8000cb0:	61da      	str	r2, [r3, #28]
 8000cb2:	4b08      	ldr	r3, [pc, #32]	; (8000cd4 <MX_USART2_UART_Init+0x58>)
 8000cb4:	2200      	movs	r2, #0
 8000cb6:	621a      	str	r2, [r3, #32]
 8000cb8:	4b06      	ldr	r3, [pc, #24]	; (8000cd4 <MX_USART2_UART_Init+0x58>)
 8000cba:	2200      	movs	r2, #0
 8000cbc:	625a      	str	r2, [r3, #36]	; 0x24
 8000cbe:	4805      	ldr	r0, [pc, #20]	; (8000cd4 <MX_USART2_UART_Init+0x58>)
 8000cc0:	f003 fe02 	bl	80048c8 <HAL_UART_Init>
 8000cc4:	4603      	mov	r3, r0
 8000cc6:	2b00      	cmp	r3, #0
 8000cc8:	d001      	beq.n	8000cce <MX_USART2_UART_Init+0x52>
 8000cca:	f7ff fef3 	bl	8000ab4 <Error_Handler>
 8000cce:	bf00      	nop
 8000cd0:	bd80      	pop	{r7, pc}
 8000cd2:	bf00      	nop
 8000cd4:	20001064 	.word	0x20001064
 8000cd8:	40004400 	.word	0x40004400

08000cdc <HAL_UART_MspInit>:
 8000cdc:	b580      	push	{r7, lr}
 8000cde:	b0ac      	sub	sp, #176	; 0xb0
 8000ce0:	af00      	add	r7, sp, #0
 8000ce2:	6078      	str	r0, [r7, #4]
 8000ce4:	f107 039c 	add.w	r3, r7, #156	; 0x9c
 8000ce8:	2200      	movs	r2, #0
 8000cea:	601a      	str	r2, [r3, #0]
 8000cec:	605a      	str	r2, [r3, #4]
 8000cee:	609a      	str	r2, [r3, #8]
 8000cf0:	60da      	str	r2, [r3, #12]
 8000cf2:	611a      	str	r2, [r3, #16]
 8000cf4:	f107 0314 	add.w	r3, r7, #20
 8000cf8:	2288      	movs	r2, #136	; 0x88
 8000cfa:	2100      	movs	r1, #0
 8000cfc:	4618      	mov	r0, r3
 8000cfe:	f006 fa9f 	bl	8007240 <memset>
 8000d02:	687b      	ldr	r3, [r7, #4]
 8000d04:	681b      	ldr	r3, [r3, #0]
 8000d06:	4a21      	ldr	r2, [pc, #132]	; (8000d8c <HAL_UART_MspInit+0xb0>)
 8000d08:	4293      	cmp	r3, r2
 8000d0a:	d13b      	bne.n	8000d84 <HAL_UART_MspInit+0xa8>
 8000d0c:	2302      	movs	r3, #2
 8000d0e:	617b      	str	r3, [r7, #20]
 8000d10:	2300      	movs	r3, #0
 8000d12:	653b      	str	r3, [r7, #80]	; 0x50
 8000d14:	f107 0314 	add.w	r3, r7, #20
 8000d18:	4618      	mov	r0, r3
 8000d1a:	f002 fe37 	bl	800398c <HAL_RCCEx_PeriphCLKConfig>
 8000d1e:	4603      	mov	r3, r0
 8000d20:	2b00      	cmp	r3, #0
 8000d22:	d001      	beq.n	8000d28 <HAL_UART_MspInit+0x4c>
 8000d24:	f7ff fec6 	bl	8000ab4 <Error_Handler>
 8000d28:	4b19      	ldr	r3, [pc, #100]	; (8000d90 <HAL_UART_MspInit+0xb4>)
 8000d2a:	6d9b      	ldr	r3, [r3, #88]	; 0x58
 8000d2c:	4a18      	ldr	r2, [pc, #96]	; (8000d90 <HAL_UART_MspInit+0xb4>)
 8000d2e:	f443 3300 	orr.w	r3, r3, #131072	; 0x20000
 8000d32:	6593      	str	r3, [r2, #88]	; 0x58
 8000d34:	4b16      	ldr	r3, [pc, #88]	; (8000d90 <HAL_UART_MspInit+0xb4>)
 8000d36:	6d9b      	ldr	r3, [r3, #88]	; 0x58
 8000d38:	f403 3300 	and.w	r3, r3, #131072	; 0x20000
 8000d3c:	613b      	str	r3, [r7, #16]
 8000d3e:	693b      	ldr	r3, [r7, #16]
 8000d40:	4b13      	ldr	r3, [pc, #76]	; (8000d90 <HAL_UART_MspInit+0xb4>)
 8000d42:	6cdb      	ldr	r3, [r3, #76]	; 0x4c
 8000d44:	4a12      	ldr	r2, [pc, #72]	; (8000d90 <HAL_UART_MspInit+0xb4>)
 8000d46:	f043 0301 	orr.w	r3, r3, #1
 8000d4a:	64d3      	str	r3, [r2, #76]	; 0x4c
 8000d4c:	4b10      	ldr	r3, [pc, #64]	; (8000d90 <HAL_UART_MspInit+0xb4>)
 8000d4e:	6cdb      	ldr	r3, [r3, #76]	; 0x4c
 8000d50:	f003 0301 	and.w	r3, r3, #1
 8000d54:	60fb      	str	r3, [r7, #12]
 8000d56:	68fb      	ldr	r3, [r7, #12]
 8000d58:	230c      	movs	r3, #12
 8000d5a:	f8c7 309c 	str.w	r3, [r7, #156]	; 0x9c
 8000d5e:	2302      	movs	r3, #2
 8000d60:	f8c7 30a0 	str.w	r3, [r7, #160]	; 0xa0
 8000d64:	2300      	movs	r3, #0
 8000d66:	f8c7 30a4 	str.w	r3, [r7, #164]	; 0xa4
 8000d6a:	2303      	movs	r3, #3
 8000d6c:	f8c7 30a8 	str.w	r3, [r7, #168]	; 0xa8
 8000d70:	2307      	movs	r3, #7
 8000d72:	f8c7 30ac 	str.w	r3, [r7, #172]	; 0xac
 8000d76:	f107 039c 	add.w	r3, r7, #156	; 0x9c
 8000d7a:	4619      	mov	r1, r3
 8000d7c:	f04f 4090 	mov.w	r0, #1207959552	; 0x48000000
 8000d80:	f001 fd84 	bl	800288c <HAL_GPIO_Init>
 8000d84:	bf00      	nop
 8000d86:	37b0      	adds	r7, #176	; 0xb0
 8000d88:	46bd      	mov	sp, r7
 8000d8a:	bd80      	pop	{r7, pc}
 8000d8c:	40004400 	.word	0x40004400
 8000d90:	40021000 	.word	0x40021000

08000d94 <uart_outcrfl>:
 8000d94:	b580      	push	{r7, lr}
 8000d96:	af00      	add	r7, sp, #0
 8000d98:	200d      	movs	r0, #13
 8000d9a:	f000 f805 	bl	8000da8 <uart_outchar>
 8000d9e:	200a      	movs	r0, #10
 8000da0:	f000 f802 	bl	8000da8 <uart_outchar>
 8000da4:	bf00      	nop
 8000da6:	bd80      	pop	{r7, pc}

08000da8 <uart_outchar>:
 8000da8:	b580      	push	{r7, lr}
 8000daa:	b084      	sub	sp, #16
 8000dac:	af00      	add	r7, sp, #0
 8000dae:	4603      	mov	r3, r0
 8000db0:	71fb      	strb	r3, [r7, #7]
 8000db2:	79fb      	ldrb	r3, [r7, #7]
 8000db4:	733b      	strb	r3, [r7, #12]
 8000db6:	f107 010c 	add.w	r1, r7, #12
 8000dba:	2301      	movs	r3, #1
 8000dbc:	2201      	movs	r2, #1
 8000dbe:	4803      	ldr	r0, [pc, #12]	; (8000dcc <uart_outchar+0x24>)
 8000dc0:	f003 fdd0 	bl	8004964 <HAL_UART_Transmit>
 8000dc4:	bf00      	nop
 8000dc6:	3710      	adds	r7, #16
 8000dc8:	46bd      	mov	sp, r7
 8000dca:	bd80      	pop	{r7, pc}
 8000dcc:	20001064 	.word	0x20001064

08000dd0 <uart_outdec>:
 8000dd0:	b580      	push	{r7, lr}
 8000dd2:	b082      	sub	sp, #8
 8000dd4:	af00      	add	r7, sp, #0
 8000dd6:	6078      	str	r0, [r7, #4]
 8000dd8:	687b      	ldr	r3, [r7, #4]
 8000dda:	2b09      	cmp	r3, #9
 8000ddc:	d912      	bls.n	8000e04 <uart_outdec+0x34>
 8000dde:	687b      	ldr	r3, [r7, #4]
 8000de0:	4a0e      	ldr	r2, [pc, #56]	; (8000e1c <uart_outdec+0x4c>)
 8000de2:	fba2 2303 	umull	r2, r3, r2, r3
 8000de6:	08db      	lsrs	r3, r3, #3
 8000de8:	4618      	mov	r0, r3
 8000dea:	f7ff fff1 	bl	8000dd0 <uart_outdec>
 8000dee:	687a      	ldr	r2, [r7, #4]
 8000df0:	4b0a      	ldr	r3, [pc, #40]	; (8000e1c <uart_outdec+0x4c>)
 8000df2:	fba3 1302 	umull	r1, r3, r3, r2
 8000df6:	08d9      	lsrs	r1, r3, #3
 8000df8:	460b      	mov	r3, r1
 8000dfa:	009b      	lsls	r3, r3, #2
 8000dfc:	440b      	add	r3, r1
 8000dfe:	005b      	lsls	r3, r3, #1
 8000e00:	1ad3      	subs	r3, r2, r3
 8000e02:	607b      	str	r3, [r7, #4]
 8000e04:	687b      	ldr	r3, [r7, #4]
 8000e06:	b2db      	uxtb	r3, r3
 8000e08:	3330      	adds	r3, #48	; 0x30
 8000e0a:	b2db      	uxtb	r3, r3
 8000e0c:	4618      	mov	r0, r3
 8000e0e:	f7ff ffcb 	bl	8000da8 <uart_outchar>
 8000e12:	bf00      	nop
 8000e14:	3708      	adds	r7, #8
 8000e16:	46bd      	mov	sp, r7
 8000e18:	bd80      	pop	{r7, pc}
 8000e1a:	bf00      	nop
 8000e1c:	cccccccd 	.word	0xcccccccd

08000e20 <uart_send_data>:
 8000e20:	b580      	push	{r7, lr}
 8000e22:	b082      	sub	sp, #8
 8000e24:	af00      	add	r7, sp, #0
 8000e26:	4603      	mov	r3, r0
 8000e28:	6039      	str	r1, [r7, #0]
 8000e2a:	71fb      	strb	r3, [r7, #7]
 8000e2c:	79fb      	ldrb	r3, [r7, #7]
 8000e2e:	4618      	mov	r0, r3
 8000e30:	f7ff ffba 	bl	8000da8 <uart_outchar>
 8000e34:	6838      	ldr	r0, [r7, #0]
 8000e36:	f7ff ffcb 	bl	8000dd0 <uart_outdec>
 8000e3a:	f7ff ffab 	bl	8000d94 <uart_outcrfl>
 8000e3e:	bf00      	nop
 8000e40:	3708      	adds	r7, #8
 8000e42:	46bd      	mov	sp, r7
 8000e44:	bd80      	pop	{r7, pc}
	...

08000e48 <Reset_Handler>:
 8000e48:	f8df d034 	ldr.w	sp, [pc, #52]	; 8000e80 <LoopForever+0x2>
 8000e4c:	f7ff ff04 	bl	8000c58 <SystemInit>
 8000e50:	480c      	ldr	r0, [pc, #48]	; (8000e84 <LoopForever+0x6>)
 8000e52:	490d      	ldr	r1, [pc, #52]	; (8000e88 <LoopForever+0xa>)
 8000e54:	4a0d      	ldr	r2, [pc, #52]	; (8000e8c <LoopForever+0xe>)
 8000e56:	2300      	movs	r3, #0
 8000e58:	e002      	b.n	8000e60 <LoopCopyDataInit>

08000e5a <CopyDataInit>:
 8000e5a:	58d4      	ldr	r4, [r2, r3]
 8000e5c:	50c4      	str	r4, [r0, r3]
 8000e5e:	3304      	adds	r3, #4

08000e60 <LoopCopyDataInit>:
 8000e60:	18c4      	adds	r4, r0, r3
 8000e62:	428c      	cmp	r4, r1
 8000e64:	d3f9      	bcc.n	8000e5a <CopyDataInit>
 8000e66:	4a0a      	ldr	r2, [pc, #40]	; (8000e90 <LoopForever+0x12>)
 8000e68:	4c0a      	ldr	r4, [pc, #40]	; (8000e94 <LoopForever+0x16>)
 8000e6a:	2300      	movs	r3, #0
 8000e6c:	e001      	b.n	8000e72 <LoopFillZerobss>

08000e6e <FillZerobss>:
 8000e6e:	6013      	str	r3, [r2, #0]
 8000e70:	3204      	adds	r2, #4

08000e72 <LoopFillZerobss>:
 8000e72:	42a2      	cmp	r2, r4
 8000e74:	d3fb      	bcc.n	8000e6e <FillZerobss>
 8000e76:	f006 f9b1 	bl	80071dc <__libc_init_array>
 8000e7a:	f7ff fd93 	bl	80009a4 <main>

08000e7e <LoopForever>:
 8000e7e:	e7fe      	b.n	8000e7e <LoopForever>
 8000e80:	20018000 	.word	0x20018000
 8000e84:	20000000 	.word	0x20000000
 8000e88:	20000010 	.word	0x20000010
 8000e8c:	08007338 	.word	0x08007338
 8000e90:	20000010 	.word	0x20000010
 8000e94:	2000113c 	.word	0x2000113c

08000e98 <ADC1_2_IRQHandler>:
 8000e98:	e7fe      	b.n	8000e98 <ADC1_2_IRQHandler>

08000e9a <HAL_Init>:
 8000e9a:	b580      	push	{r7, lr}
 8000e9c:	b082      	sub	sp, #8
 8000e9e:	af00      	add	r7, sp, #0
 8000ea0:	2300      	movs	r3, #0
 8000ea2:	71fb      	strb	r3, [r7, #7]
 8000ea4:	2003      	movs	r0, #3
 8000ea6:	f001 fac4 	bl	8002432 <HAL_NVIC_SetPriorityGrouping>
 8000eaa:	200f      	movs	r0, #15
 8000eac:	f7ff fe30 	bl	8000b10 <HAL_InitTick>
 8000eb0:	4603      	mov	r3, r0
 8000eb2:	2b00      	cmp	r3, #0
 8000eb4:	d002      	beq.n	8000ebc <HAL_Init+0x22>
 8000eb6:	2301      	movs	r3, #1
 8000eb8:	71fb      	strb	r3, [r7, #7]
 8000eba:	e001      	b.n	8000ec0 <HAL_Init+0x26>
 8000ebc:	f7ff fe00 	bl	8000ac0 <HAL_MspInit>
 8000ec0:	79fb      	ldrb	r3, [r7, #7]
 8000ec2:	4618      	mov	r0, r3
 8000ec4:	3708      	adds	r7, #8
 8000ec6:	46bd      	mov	sp, r7
 8000ec8:	bd80      	pop	{r7, pc}
	...

08000ecc <HAL_IncTick>:
 8000ecc:	b480      	push	{r7}
 8000ece:	af00      	add	r7, sp, #0
 8000ed0:	4b06      	ldr	r3, [pc, #24]	; (8000eec <HAL_IncTick+0x20>)
 8000ed2:	781b      	ldrb	r3, [r3, #0]
 8000ed4:	461a      	mov	r2, r3
 8000ed6:	4b06      	ldr	r3, [pc, #24]	; (8000ef0 <HAL_IncTick+0x24>)
 8000ed8:	681b      	ldr	r3, [r3, #0]
 8000eda:	4413      	add	r3, r2
 8000edc:	4a04      	ldr	r2, [pc, #16]	; (8000ef0 <HAL_IncTick+0x24>)
 8000ede:	6013      	str	r3, [r2, #0]
 8000ee0:	bf00      	nop
 8000ee2:	46bd      	mov	sp, r7
 8000ee4:	f85d 7b04 	ldr.w	r7, [sp], #4
 8000ee8:	4770      	bx	lr
 8000eea:	bf00      	nop
 8000eec:	20000008 	.word	0x20000008
 8000ef0:	20001138 	.word	0x20001138

08000ef4 <HAL_GetTick>:
 8000ef4:	b480      	push	{r7}
 8000ef6:	af00      	add	r7, sp, #0
 8000ef8:	4b03      	ldr	r3, [pc, #12]	; (8000f08 <HAL_GetTick+0x14>)
 8000efa:	681b      	ldr	r3, [r3, #0]
 8000efc:	4618      	mov	r0, r3
 8000efe:	46bd      	mov	sp, r7
 8000f00:	f85d 7b04 	ldr.w	r7, [sp], #4
 8000f04:	4770      	bx	lr
 8000f06:	bf00      	nop
 8000f08:	20001138 	.word	0x20001138

08000f0c <LL_ADC_SetCommonClock>:
 8000f0c:	b480      	push	{r7}
 8000f0e:	b083      	sub	sp, #12
 8000f10:	af00      	add	r7, sp, #0
 8000f12:	6078      	str	r0, [r7, #4]
 8000f14:	6039      	str	r1, [r7, #0]
 8000f16:	687b      	ldr	r3, [r7, #4]
 8000f18:	689b      	ldr	r3, [r3, #8]
 8000f1a:	f423 127c 	bic.w	r2, r3, #4128768	; 0x3f0000
 8000f1e:	683b      	ldr	r3, [r7, #0]
 8000f20:	431a      	orrs	r2, r3
 8000f22:	687b      	ldr	r3, [r7, #4]
 8000f24:	609a      	str	r2, [r3, #8]
 8000f26:	bf00      	nop
 8000f28:	370c      	adds	r7, #12
 8000f2a:	46bd      	mov	sp, r7
 8000f2c:	f85d 7b04 	ldr.w	r7, [sp], #4
 8000f30:	4770      	bx	lr

08000f32 <LL_ADC_SetCommonPathInternalCh>:
 8000f32:	b480      	push	{r7}
 8000f34:	b083      	sub	sp, #12
 8000f36:	af00      	add	r7, sp, #0
 8000f38:	6078      	str	r0, [r7, #4]
 8000f3a:	6039      	str	r1, [r7, #0]
 8000f3c:	687b      	ldr	r3, [r7, #4]
 8000f3e:	689b      	ldr	r3, [r3, #8]
 8000f40:	f023 72e0 	bic.w	r2, r3, #29360128	; 0x1c00000
 8000f44:	683b      	ldr	r3, [r7, #0]
 8000f46:	431a      	orrs	r2, r3
 8000f48:	687b      	ldr	r3, [r7, #4]
 8000f4a:	609a      	str	r2, [r3, #8]
 8000f4c:	bf00      	nop
 8000f4e:	370c      	adds	r7, #12
 8000f50:	46bd      	mov	sp, r7
 8000f52:	f85d 7b04 	ldr.w	r7, [sp], #4
 8000f56:	4770      	bx	lr

08000f58 <LL_ADC_GetCommonPathInternalCh>:
 8000f58:	b480      	push	{r7}
 8000f5a:	b083      	sub	sp, #12
 8000f5c:	af00      	add	r7, sp, #0
 8000f5e:	6078      	str	r0, [r7, #4]
 8000f60:	687b      	ldr	r3, [r7, #4]
 8000f62:	689b      	ldr	r3, [r3, #8]
 8000f64:	f003 73e0 	and.w	r3, r3, #29360128	; 0x1c00000
 8000f68:	4618      	mov	r0, r3
 8000f6a:	370c      	adds	r7, #12
 8000f6c:	46bd      	mov	sp, r7
 8000f6e:	f85d 7b04 	ldr.w	r7, [sp], #4
 8000f72:	4770      	bx	lr

08000f74 <LL_ADC_SetOffset>:
 8000f74:	b480      	push	{r7}
 8000f76:	b087      	sub	sp, #28
 8000f78:	af00      	add	r7, sp, #0
 8000f7a:	60f8      	str	r0, [r7, #12]
 8000f7c:	60b9      	str	r1, [r7, #8]
 8000f7e:	607a      	str	r2, [r7, #4]
 8000f80:	603b      	str	r3, [r7, #0]
 8000f82:	68fb      	ldr	r3, [r7, #12]
 8000f84:	3360      	adds	r3, #96	; 0x60
 8000f86:	461a      	mov	r2, r3
 8000f88:	68bb      	ldr	r3, [r7, #8]
 8000f8a:	009b      	lsls	r3, r3, #2
 8000f8c:	4413      	add	r3, r2
 8000f8e:	617b      	str	r3, [r7, #20]
 8000f90:	697b      	ldr	r3, [r7, #20]
 8000f92:	681a      	ldr	r2, [r3, #0]
 8000f94:	4b08      	ldr	r3, [pc, #32]	; (8000fb8 <LL_ADC_SetOffset+0x44>)
 8000f96:	4013      	ands	r3, r2
 8000f98:	687a      	ldr	r2, [r7, #4]
 8000f9a:	f002 41f8 	and.w	r1, r2, #2080374784	; 0x7c000000
 8000f9e:	683a      	ldr	r2, [r7, #0]
 8000fa0:	430a      	orrs	r2, r1
 8000fa2:	4313      	orrs	r3, r2
 8000fa4:	f043 4200 	orr.w	r2, r3, #2147483648	; 0x80000000
 8000fa8:	697b      	ldr	r3, [r7, #20]
 8000faa:	601a      	str	r2, [r3, #0]
 8000fac:	bf00      	nop
 8000fae:	371c      	adds	r7, #28
 8000fb0:	46bd      	mov	sp, r7
 8000fb2:	f85d 7b04 	ldr.w	r7, [sp], #4
 8000fb6:	4770      	bx	lr
 8000fb8:	03fff000 	.word	0x03fff000

08000fbc <LL_ADC_GetOffsetChannel>:
 8000fbc:	b480      	push	{r7}
 8000fbe:	b085      	sub	sp, #20
 8000fc0:	af00      	add	r7, sp, #0
 8000fc2:	6078      	str	r0, [r7, #4]
 8000fc4:	6039      	str	r1, [r7, #0]
 8000fc6:	687b      	ldr	r3, [r7, #4]
 8000fc8:	3360      	adds	r3, #96	; 0x60
 8000fca:	461a      	mov	r2, r3
 8000fcc:	683b      	ldr	r3, [r7, #0]
 8000fce:	009b      	lsls	r3, r3, #2
 8000fd0:	4413      	add	r3, r2
 8000fd2:	60fb      	str	r3, [r7, #12]
 8000fd4:	68fb      	ldr	r3, [r7, #12]
 8000fd6:	681b      	ldr	r3, [r3, #0]
 8000fd8:	f003 43f8 	and.w	r3, r3, #2080374784	; 0x7c000000
 8000fdc:	4618      	mov	r0, r3
 8000fde:	3714      	adds	r7, #20
 8000fe0:	46bd      	mov	sp, r7
 8000fe2:	f85d 7b04 	ldr.w	r7, [sp], #4
 8000fe6:	4770      	bx	lr

08000fe8 <LL_ADC_SetOffsetState>:
 8000fe8:	b480      	push	{r7}
 8000fea:	b087      	sub	sp, #28
 8000fec:	af00      	add	r7, sp, #0
 8000fee:	60f8      	str	r0, [r7, #12]
 8000ff0:	60b9      	str	r1, [r7, #8]
 8000ff2:	607a      	str	r2, [r7, #4]
 8000ff4:	68fb      	ldr	r3, [r7, #12]
 8000ff6:	3360      	adds	r3, #96	; 0x60
 8000ff8:	461a      	mov	r2, r3
 8000ffa:	68bb      	ldr	r3, [r7, #8]
 8000ffc:	009b      	lsls	r3, r3, #2
 8000ffe:	4413      	add	r3, r2
 8001000:	617b      	str	r3, [r7, #20]
 8001002:	697b      	ldr	r3, [r7, #20]
 8001004:	681b      	ldr	r3, [r3, #0]
 8001006:	f023 4200 	bic.w	r2, r3, #2147483648	; 0x80000000
 800100a:	687b      	ldr	r3, [r7, #4]
 800100c:	431a      	orrs	r2, r3
 800100e:	697b      	ldr	r3, [r7, #20]
 8001010:	601a      	str	r2, [r3, #0]
 8001012:	bf00      	nop
 8001014:	371c      	adds	r7, #28
 8001016:	46bd      	mov	sp, r7
 8001018:	f85d 7b04 	ldr.w	r7, [sp], #4
 800101c:	4770      	bx	lr

0800101e <LL_ADC_REG_IsTriggerSourceSWStart>:
 800101e:	b480      	push	{r7}
 8001020:	b083      	sub	sp, #12
 8001022:	af00      	add	r7, sp, #0
 8001024:	6078      	str	r0, [r7, #4]
 8001026:	687b      	ldr	r3, [r7, #4]
 8001028:	68db      	ldr	r3, [r3, #12]
 800102a:	f403 6340 	and.w	r3, r3, #3072	; 0xc00
 800102e:	2b00      	cmp	r3, #0
 8001030:	d101      	bne.n	8001036 <LL_ADC_REG_IsTriggerSourceSWStart+0x18>
 8001032:	2301      	movs	r3, #1
 8001034:	e000      	b.n	8001038 <LL_ADC_REG_IsTriggerSourceSWStart+0x1a>
 8001036:	2300      	movs	r3, #0
 8001038:	4618      	mov	r0, r3
 800103a:	370c      	adds	r7, #12
 800103c:	46bd      	mov	sp, r7
 800103e:	f85d 7b04 	ldr.w	r7, [sp], #4
 8001042:	4770      	bx	lr

08001044 <LL_ADC_REG_SetSequencerRanks>:
 8001044:	b480      	push	{r7}
 8001046:	b087      	sub	sp, #28
 8001048:	af00      	add	r7, sp, #0
 800104a:	60f8      	str	r0, [r7, #12]
 800104c:	60b9      	str	r1, [r7, #8]
 800104e:	607a      	str	r2, [r7, #4]
 8001050:	68fb      	ldr	r3, [r7, #12]
 8001052:	3330      	adds	r3, #48	; 0x30
 8001054:	461a      	mov	r2, r3
 8001056:	68bb      	ldr	r3, [r7, #8]
 8001058:	0a1b      	lsrs	r3, r3, #8
 800105a:	009b      	lsls	r3, r3, #2
 800105c:	f003 030c 	and.w	r3, r3, #12
 8001060:	4413      	add	r3, r2
 8001062:	617b      	str	r3, [r7, #20]
 8001064:	697b      	ldr	r3, [r7, #20]
 8001066:	681a      	ldr	r2, [r3, #0]
 8001068:	68bb      	ldr	r3, [r7, #8]
 800106a:	f003 031f 	and.w	r3, r3, #31
 800106e:	211f      	movs	r1, #31
 8001070:	fa01 f303 	lsl.w	r3, r1, r3
 8001074:	43db      	mvns	r3, r3
 8001076:	401a      	ands	r2, r3
 8001078:	687b      	ldr	r3, [r7, #4]
 800107a:	0e9b      	lsrs	r3, r3, #26
 800107c:	f003 011f 	and.w	r1, r3, #31
 8001080:	68bb      	ldr	r3, [r7, #8]
 8001082:	f003 031f 	and.w	r3, r3, #31
 8001086:	fa01 f303 	lsl.w	r3, r1, r3
 800108a:	431a      	orrs	r2, r3
 800108c:	697b      	ldr	r3, [r7, #20]
 800108e:	601a      	str	r2, [r3, #0]
 8001090:	bf00      	nop
 8001092:	371c      	adds	r7, #28
 8001094:	46bd      	mov	sp, r7
 8001096:	f85d 7b04 	ldr.w	r7, [sp], #4
 800109a:	4770      	bx	lr

0800109c <LL_ADC_SetChannelSamplingTime>:
 800109c:	b480      	push	{r7}
 800109e:	b087      	sub	sp, #28
 80010a0:	af00      	add	r7, sp, #0
 80010a2:	60f8      	str	r0, [r7, #12]
 80010a4:	60b9      	str	r1, [r7, #8]
 80010a6:	607a      	str	r2, [r7, #4]
 80010a8:	68fb      	ldr	r3, [r7, #12]
 80010aa:	3314      	adds	r3, #20
 80010ac:	461a      	mov	r2, r3
 80010ae:	68bb      	ldr	r3, [r7, #8]
 80010b0:	0e5b      	lsrs	r3, r3, #25
 80010b2:	009b      	lsls	r3, r3, #2
 80010b4:	f003 0304 	and.w	r3, r3, #4
 80010b8:	4413      	add	r3, r2
 80010ba:	617b      	str	r3, [r7, #20]
 80010bc:	697b      	ldr	r3, [r7, #20]
 80010be:	681a      	ldr	r2, [r3, #0]
 80010c0:	68bb      	ldr	r3, [r7, #8]
 80010c2:	0d1b      	lsrs	r3, r3, #20
 80010c4:	f003 031f 	and.w	r3, r3, #31
 80010c8:	2107      	movs	r1, #7
 80010ca:	fa01 f303 	lsl.w	r3, r1, r3
 80010ce:	43db      	mvns	r3, r3
 80010d0:	401a      	ands	r2, r3
 80010d2:	68bb      	ldr	r3, [r7, #8]
 80010d4:	0d1b      	lsrs	r3, r3, #20
 80010d6:	f003 031f 	and.w	r3, r3, #31
 80010da:	6879      	ldr	r1, [r7, #4]
 80010dc:	fa01 f303 	lsl.w	r3, r1, r3
 80010e0:	431a      	orrs	r2, r3
 80010e2:	697b      	ldr	r3, [r7, #20]
 80010e4:	601a      	str	r2, [r3, #0]
 80010e6:	bf00      	nop
 80010e8:	371c      	adds	r7, #28
 80010ea:	46bd      	mov	sp, r7
 80010ec:	f85d 7b04 	ldr.w	r7, [sp], #4
 80010f0:	4770      	bx	lr
	...

080010f4 <LL_ADC_SetChannelSingleDiff>:
 80010f4:	b480      	push	{r7}
 80010f6:	b085      	sub	sp, #20
 80010f8:	af00      	add	r7, sp, #0
 80010fa:	60f8      	str	r0, [r7, #12]
 80010fc:	60b9      	str	r1, [r7, #8]
 80010fe:	607a      	str	r2, [r7, #4]
 8001100:	68fb      	ldr	r3, [r7, #12]
 8001102:	f8d3 20b0 	ldr.w	r2, [r3, #176]	; 0xb0
 8001106:	68bb      	ldr	r3, [r7, #8]
 8001108:	f3c3 0312 	ubfx	r3, r3, #0, #19
 800110c:	43db      	mvns	r3, r3
 800110e:	401a      	ands	r2, r3
 8001110:	687b      	ldr	r3, [r7, #4]
 8001112:	f003 0318 	and.w	r3, r3, #24
 8001116:	4908      	ldr	r1, [pc, #32]	; (8001138 <LL_ADC_SetChannelSingleDiff+0x44>)
 8001118:	40d9      	lsrs	r1, r3
 800111a:	68bb      	ldr	r3, [r7, #8]
 800111c:	400b      	ands	r3, r1
 800111e:	f3c3 0312 	ubfx	r3, r3, #0, #19
 8001122:	431a      	orrs	r2, r3
 8001124:	68fb      	ldr	r3, [r7, #12]
 8001126:	f8c3 20b0 	str.w	r2, [r3, #176]	; 0xb0
 800112a:	bf00      	nop
 800112c:	3714      	adds	r7, #20
 800112e:	46bd      	mov	sp, r7
 8001130:	f85d 7b04 	ldr.w	r7, [sp], #4
 8001134:	4770      	bx	lr
 8001136:	bf00      	nop
 8001138:	0007ffff 	.word	0x0007ffff

0800113c <LL_ADC_GetMultimode>:
 800113c:	b480      	push	{r7}
 800113e:	b083      	sub	sp, #12
 8001140:	af00      	add	r7, sp, #0
 8001142:	6078      	str	r0, [r7, #4]
 8001144:	687b      	ldr	r3, [r7, #4]
 8001146:	689b      	ldr	r3, [r3, #8]
 8001148:	f003 031f 	and.w	r3, r3, #31
 800114c:	4618      	mov	r0, r3
 800114e:	370c      	adds	r7, #12
 8001150:	46bd      	mov	sp, r7
 8001152:	f85d 7b04 	ldr.w	r7, [sp], #4
 8001156:	4770      	bx	lr

08001158 <LL_ADC_DisableDeepPowerDown>:
 8001158:	b480      	push	{r7}
 800115a:	b083      	sub	sp, #12
 800115c:	af00      	add	r7, sp, #0
 800115e:	6078      	str	r0, [r7, #4]
 8001160:	687b      	ldr	r3, [r7, #4]
 8001162:	689b      	ldr	r3, [r3, #8]
 8001164:	f023 4320 	bic.w	r3, r3, #2684354560	; 0xa0000000
 8001168:	f023 033f 	bic.w	r3, r3, #63	; 0x3f
 800116c:	687a      	ldr	r2, [r7, #4]
 800116e:	6093      	str	r3, [r2, #8]
 8001170:	bf00      	nop
 8001172:	370c      	adds	r7, #12
 8001174:	46bd      	mov	sp, r7
 8001176:	f85d 7b04 	ldr.w	r7, [sp], #4
 800117a:	4770      	bx	lr

0800117c <LL_ADC_IsDeepPowerDownEnabled>:
 800117c:	b480      	push	{r7}
 800117e:	b083      	sub	sp, #12
 8001180:	af00      	add	r7, sp, #0
 8001182:	6078      	str	r0, [r7, #4]
 8001184:	687b      	ldr	r3, [r7, #4]
 8001186:	689b      	ldr	r3, [r3, #8]
 8001188:	f003 5300 	and.w	r3, r3, #536870912	; 0x20000000
 800118c:	f1b3 5f00 	cmp.w	r3, #536870912	; 0x20000000
 8001190:	d101      	bne.n	8001196 <LL_ADC_IsDeepPowerDownEnabled+0x1a>
 8001192:	2301      	movs	r3, #1
 8001194:	e000      	b.n	8001198 <LL_ADC_IsDeepPowerDownEnabled+0x1c>
 8001196:	2300      	movs	r3, #0
 8001198:	4618      	mov	r0, r3
 800119a:	370c      	adds	r7, #12
 800119c:	46bd      	mov	sp, r7
 800119e:	f85d 7b04 	ldr.w	r7, [sp], #4
 80011a2:	4770      	bx	lr

080011a4 <LL_ADC_EnableInternalRegulator>:
 80011a4:	b480      	push	{r7}
 80011a6:	b083      	sub	sp, #12
 80011a8:	af00      	add	r7, sp, #0
 80011aa:	6078      	str	r0, [r7, #4]
 80011ac:	687b      	ldr	r3, [r7, #4]
 80011ae:	689b      	ldr	r3, [r3, #8]
 80011b0:	f023 4310 	bic.w	r3, r3, #2415919104	; 0x90000000
 80011b4:	f023 033f 	bic.w	r3, r3, #63	; 0x3f
 80011b8:	f043 5280 	orr.w	r2, r3, #268435456	; 0x10000000
 80011bc:	687b      	ldr	r3, [r7, #4]
 80011be:	609a      	str	r2, [r3, #8]
 80011c0:	bf00      	nop
 80011c2:	370c      	adds	r7, #12
 80011c4:	46bd      	mov	sp, r7
 80011c6:	f85d 7b04 	ldr.w	r7, [sp], #4
 80011ca:	4770      	bx	lr

080011cc <LL_ADC_IsInternalRegulatorEnabled>:
 80011cc:	b480      	push	{r7}
 80011ce:	b083      	sub	sp, #12
 80011d0:	af00      	add	r7, sp, #0
 80011d2:	6078      	str	r0, [r7, #4]
 80011d4:	687b      	ldr	r3, [r7, #4]
 80011d6:	689b      	ldr	r3, [r3, #8]
 80011d8:	f003 5380 	and.w	r3, r3, #268435456	; 0x10000000
 80011dc:	f1b3 5f80 	cmp.w	r3, #268435456	; 0x10000000
 80011e0:	d101      	bne.n	80011e6 <LL_ADC_IsInternalRegulatorEnabled+0x1a>
 80011e2:	2301      	movs	r3, #1
 80011e4:	e000      	b.n	80011e8 <LL_ADC_IsInternalRegulatorEnabled+0x1c>
 80011e6:	2300      	movs	r3, #0
 80011e8:	4618      	mov	r0, r3
 80011ea:	370c      	adds	r7, #12
 80011ec:	46bd      	mov	sp, r7
 80011ee:	f85d 7b04 	ldr.w	r7, [sp], #4
 80011f2:	4770      	bx	lr

080011f4 <LL_ADC_Enable>:
 80011f4:	b480      	push	{r7}
 80011f6:	b083      	sub	sp, #12
 80011f8:	af00      	add	r7, sp, #0
 80011fa:	6078      	str	r0, [r7, #4]
 80011fc:	687b      	ldr	r3, [r7, #4]
 80011fe:	689b      	ldr	r3, [r3, #8]
 8001200:	f023 4300 	bic.w	r3, r3, #2147483648	; 0x80000000
 8001204:	f023 033f 	bic.w	r3, r3, #63	; 0x3f
 8001208:	f043 0201 	orr.w	r2, r3, #1
 800120c:	687b      	ldr	r3, [r7, #4]
 800120e:	609a      	str	r2, [r3, #8]
 8001210:	bf00      	nop
 8001212:	370c      	adds	r7, #12
 8001214:	46bd      	mov	sp, r7
 8001216:	f85d 7b04 	ldr.w	r7, [sp], #4
 800121a:	4770      	bx	lr

0800121c <LL_ADC_IsEnabled>:
 800121c:	b480      	push	{r7}
 800121e:	b083      	sub	sp, #12
 8001220:	af00      	add	r7, sp, #0
 8001222:	6078      	str	r0, [r7, #4]
 8001224:	687b      	ldr	r3, [r7, #4]
 8001226:	689b      	ldr	r3, [r3, #8]
 8001228:	f003 0301 	and.w	r3, r3, #1
 800122c:	2b01      	cmp	r3, #1
 800122e:	d101      	bne.n	8001234 <LL_ADC_IsEnabled+0x18>
 8001230:	2301      	movs	r3, #1
 8001232:	e000      	b.n	8001236 <LL_ADC_IsEnabled+0x1a>
 8001234:	2300      	movs	r3, #0
 8001236:	4618      	mov	r0, r3
 8001238:	370c      	adds	r7, #12
 800123a:	46bd      	mov	sp, r7
 800123c:	f85d 7b04 	ldr.w	r7, [sp], #4
 8001240:	4770      	bx	lr

08001242 <LL_ADC_REG_StartConversion>:
 8001242:	b480      	push	{r7}
 8001244:	b083      	sub	sp, #12
 8001246:	af00      	add	r7, sp, #0
 8001248:	6078      	str	r0, [r7, #4]
 800124a:	687b      	ldr	r3, [r7, #4]
 800124c:	689b      	ldr	r3, [r3, #8]
 800124e:	f023 4300 	bic.w	r3, r3, #2147483648	; 0x80000000
 8001252:	f023 033f 	bic.w	r3, r3, #63	; 0x3f
 8001256:	f043 0204 	orr.w	r2, r3, #4
 800125a:	687b      	ldr	r3, [r7, #4]
 800125c:	609a      	str	r2, [r3, #8]
 800125e:	bf00      	nop
 8001260:	370c      	adds	r7, #12
 8001262:	46bd      	mov	sp, r7
 8001264:	f85d 7b04 	ldr.w	r7, [sp], #4
 8001268:	4770      	bx	lr

0800126a <LL_ADC_REG_IsConversionOngoing>:
 800126a:	b480      	push	{r7}
 800126c:	b083      	sub	sp, #12
 800126e:	af00      	add	r7, sp, #0
 8001270:	6078      	str	r0, [r7, #4]
 8001272:	687b      	ldr	r3, [r7, #4]
 8001274:	689b      	ldr	r3, [r3, #8]
 8001276:	f003 0304 	and.w	r3, r3, #4
 800127a:	2b04      	cmp	r3, #4
 800127c:	d101      	bne.n	8001282 <LL_ADC_REG_IsConversionOngoing+0x18>
 800127e:	2301      	movs	r3, #1
 8001280:	e000      	b.n	8001284 <LL_ADC_REG_IsConversionOngoing+0x1a>
 8001282:	2300      	movs	r3, #0
 8001284:	4618      	mov	r0, r3
 8001286:	370c      	adds	r7, #12
 8001288:	46bd      	mov	sp, r7
 800128a:	f85d 7b04 	ldr.w	r7, [sp], #4
 800128e:	4770      	bx	lr

08001290 <LL_ADC_INJ_IsConversionOngoing>:
 8001290:	b480      	push	{r7}
 8001292:	b083      	sub	sp, #12
 8001294:	af00      	add	r7, sp, #0
 8001296:	6078      	str	r0, [r7, #4]
 8001298:	687b      	ldr	r3, [r7, #4]
 800129a:	689b      	ldr	r3, [r3, #8]
 800129c:	f003 0308 	and.w	r3, r3, #8
 80012a0:	2b08      	cmp	r3, #8
 80012a2:	d101      	bne.n	80012a8 <LL_ADC_INJ_IsConversionOngoing+0x18>
 80012a4:	2301      	movs	r3, #1
 80012a6:	e000      	b.n	80012aa <LL_ADC_INJ_IsConversionOngoing+0x1a>
 80012a8:	2300      	movs	r3, #0
 80012aa:	4618      	mov	r0, r3
 80012ac:	370c      	adds	r7, #12
 80012ae:	46bd      	mov	sp, r7
 80012b0:	f85d 7b04 	ldr.w	r7, [sp], #4
 80012b4:	4770      	bx	lr
	...

080012b8 <HAL_ADC_Init>:
 80012b8:	b590      	push	{r4, r7, lr}
 80012ba:	b089      	sub	sp, #36	; 0x24
 80012bc:	af00      	add	r7, sp, #0
 80012be:	6078      	str	r0, [r7, #4]
 80012c0:	2300      	movs	r3, #0
 80012c2:	77fb      	strb	r3, [r7, #31]
 80012c4:	2300      	movs	r3, #0
 80012c6:	60bb      	str	r3, [r7, #8]
 80012c8:	687b      	ldr	r3, [r7, #4]
 80012ca:	2b00      	cmp	r3, #0
 80012cc:	d101      	bne.n	80012d2 <HAL_ADC_Init+0x1a>
 80012ce:	2301      	movs	r3, #1
 80012d0:	e136      	b.n	8001540 <HAL_ADC_Init+0x288>
 80012d2:	687b      	ldr	r3, [r7, #4]
 80012d4:	691b      	ldr	r3, [r3, #16]
 80012d6:	2b00      	cmp	r3, #0
 80012d8:	687b      	ldr	r3, [r7, #4]
 80012da:	6d5b      	ldr	r3, [r3, #84]	; 0x54
 80012dc:	2b00      	cmp	r3, #0
 80012de:	d109      	bne.n	80012f4 <HAL_ADC_Init+0x3c>
 80012e0:	6878      	ldr	r0, [r7, #4]
 80012e2:	f7ff f999 	bl	8000618 <HAL_ADC_MspInit>
 80012e6:	687b      	ldr	r3, [r7, #4]
 80012e8:	2200      	movs	r2, #0
 80012ea:	659a      	str	r2, [r3, #88]	; 0x58
 80012ec:	687b      	ldr	r3, [r7, #4]
 80012ee:	2200      	movs	r2, #0
 80012f0:	f883 2050 	strb.w	r2, [r3, #80]	; 0x50
 80012f4:	687b      	ldr	r3, [r7, #4]
 80012f6:	681b      	ldr	r3, [r3, #0]
 80012f8:	4618      	mov	r0, r3
 80012fa:	f7ff ff3f 	bl	800117c <LL_ADC_IsDeepPowerDownEnabled>
 80012fe:	4603      	mov	r3, r0
 8001300:	2b00      	cmp	r3, #0
 8001302:	d004      	beq.n	800130e <HAL_ADC_Init+0x56>
 8001304:	687b      	ldr	r3, [r7, #4]
 8001306:	681b      	ldr	r3, [r3, #0]
 8001308:	4618      	mov	r0, r3
 800130a:	f7ff ff25 	bl	8001158 <LL_ADC_DisableDeepPowerDown>
 800130e:	687b      	ldr	r3, [r7, #4]
 8001310:	681b      	ldr	r3, [r3, #0]
 8001312:	4618      	mov	r0, r3
 8001314:	f7ff ff5a 	bl	80011cc <LL_ADC_IsInternalRegulatorEnabled>
 8001318:	4603      	mov	r3, r0
 800131a:	2b00      	cmp	r3, #0
 800131c:	d115      	bne.n	800134a <HAL_ADC_Init+0x92>
 800131e:	687b      	ldr	r3, [r7, #4]
 8001320:	681b      	ldr	r3, [r3, #0]
 8001322:	4618      	mov	r0, r3
 8001324:	f7ff ff3e 	bl	80011a4 <LL_ADC_EnableInternalRegulator>
 8001328:	4b87      	ldr	r3, [pc, #540]	; (8001548 <HAL_ADC_Init+0x290>)
 800132a:	681b      	ldr	r3, [r3, #0]
 800132c:	099b      	lsrs	r3, r3, #6
 800132e:	4a87      	ldr	r2, [pc, #540]	; (800154c <HAL_ADC_Init+0x294>)
 8001330:	fba2 2303 	umull	r2, r3, r2, r3
 8001334:	099b      	lsrs	r3, r3, #6
 8001336:	3301      	adds	r3, #1
 8001338:	005b      	lsls	r3, r3, #1
 800133a:	60bb      	str	r3, [r7, #8]
 800133c:	e002      	b.n	8001344 <HAL_ADC_Init+0x8c>
 800133e:	68bb      	ldr	r3, [r7, #8]
 8001340:	3b01      	subs	r3, #1
 8001342:	60bb      	str	r3, [r7, #8]
 8001344:	68bb      	ldr	r3, [r7, #8]
 8001346:	2b00      	cmp	r3, #0
 8001348:	d1f9      	bne.n	800133e <HAL_ADC_Init+0x86>
 800134a:	687b      	ldr	r3, [r7, #4]
 800134c:	681b      	ldr	r3, [r3, #0]
 800134e:	4618      	mov	r0, r3
 8001350:	f7ff ff3c 	bl	80011cc <LL_ADC_IsInternalRegulatorEnabled>
 8001354:	4603      	mov	r3, r0
 8001356:	2b00      	cmp	r3, #0
 8001358:	d10d      	bne.n	8001376 <HAL_ADC_Init+0xbe>
 800135a:	687b      	ldr	r3, [r7, #4]
 800135c:	6d5b      	ldr	r3, [r3, #84]	; 0x54
 800135e:	f043 0210 	orr.w	r2, r3, #16
 8001362:	687b      	ldr	r3, [r7, #4]
 8001364:	655a      	str	r2, [r3, #84]	; 0x54
 8001366:	687b      	ldr	r3, [r7, #4]
 8001368:	6d9b      	ldr	r3, [r3, #88]	; 0x58
 800136a:	f043 0201 	orr.w	r2, r3, #1
 800136e:	687b      	ldr	r3, [r7, #4]
 8001370:	659a      	str	r2, [r3, #88]	; 0x58
 8001372:	2301      	movs	r3, #1
 8001374:	77fb      	strb	r3, [r7, #31]
 8001376:	687b      	ldr	r3, [r7, #4]
 8001378:	681b      	ldr	r3, [r3, #0]
 800137a:	4618      	mov	r0, r3
 800137c:	f7ff ff75 	bl	800126a <LL_ADC_REG_IsConversionOngoing>
 8001380:	6178      	str	r0, [r7, #20]
 8001382:	687b      	ldr	r3, [r7, #4]
 8001384:	6d5b      	ldr	r3, [r3, #84]	; 0x54
 8001386:	f003 0310 	and.w	r3, r3, #16
 800138a:	2b00      	cmp	r3, #0
 800138c:	f040 80cf 	bne.w	800152e <HAL_ADC_Init+0x276>
 8001390:	697b      	ldr	r3, [r7, #20]
 8001392:	2b00      	cmp	r3, #0
 8001394:	f040 80cb 	bne.w	800152e <HAL_ADC_Init+0x276>
 8001398:	687b      	ldr	r3, [r7, #4]
 800139a:	6d5b      	ldr	r3, [r3, #84]	; 0x54
 800139c:	f423 7381 	bic.w	r3, r3, #258	; 0x102
 80013a0:	f043 0202 	orr.w	r2, r3, #2
 80013a4:	687b      	ldr	r3, [r7, #4]
 80013a6:	655a      	str	r2, [r3, #84]	; 0x54
 80013a8:	687b      	ldr	r3, [r7, #4]
 80013aa:	681b      	ldr	r3, [r3, #0]
 80013ac:	4618      	mov	r0, r3
 80013ae:	f7ff ff35 	bl	800121c <LL_ADC_IsEnabled>
 80013b2:	4603      	mov	r3, r0
 80013b4:	2b00      	cmp	r3, #0
 80013b6:	d115      	bne.n	80013e4 <HAL_ADC_Init+0x12c>
 80013b8:	4865      	ldr	r0, [pc, #404]	; (8001550 <HAL_ADC_Init+0x298>)
 80013ba:	f7ff ff2f 	bl	800121c <LL_ADC_IsEnabled>
 80013be:	4604      	mov	r4, r0
 80013c0:	4864      	ldr	r0, [pc, #400]	; (8001554 <HAL_ADC_Init+0x29c>)
 80013c2:	f7ff ff2b 	bl	800121c <LL_ADC_IsEnabled>
 80013c6:	4603      	mov	r3, r0
 80013c8:	431c      	orrs	r4, r3
 80013ca:	4863      	ldr	r0, [pc, #396]	; (8001558 <HAL_ADC_Init+0x2a0>)
 80013cc:	f7ff ff26 	bl	800121c <LL_ADC_IsEnabled>
 80013d0:	4603      	mov	r3, r0
 80013d2:	4323      	orrs	r3, r4
 80013d4:	2b00      	cmp	r3, #0
 80013d6:	d105      	bne.n	80013e4 <HAL_ADC_Init+0x12c>
 80013d8:	687b      	ldr	r3, [r7, #4]
 80013da:	685b      	ldr	r3, [r3, #4]
 80013dc:	4619      	mov	r1, r3
 80013de:	485f      	ldr	r0, [pc, #380]	; (800155c <HAL_ADC_Init+0x2a4>)
 80013e0:	f7ff fd94 	bl	8000f0c <LL_ADC_SetCommonClock>
 80013e4:	687b      	ldr	r3, [r7, #4]
 80013e6:	7e5b      	ldrb	r3, [r3, #25]
 80013e8:	035a      	lsls	r2, r3, #13
 80013ea:	687b      	ldr	r3, [r7, #4]
 80013ec:	6b5b      	ldr	r3, [r3, #52]	; 0x34
 80013ee:	431a      	orrs	r2, r3
 80013f0:	687b      	ldr	r3, [r7, #4]
 80013f2:	68db      	ldr	r3, [r3, #12]
 80013f4:	431a      	orrs	r2, r3
 80013f6:	687b      	ldr	r3, [r7, #4]
 80013f8:	689b      	ldr	r3, [r3, #8]
 80013fa:	431a      	orrs	r2, r3
 80013fc:	687b      	ldr	r3, [r7, #4]
 80013fe:	f893 3020 	ldrb.w	r3, [r3, #32]
 8001402:	041b      	lsls	r3, r3, #16
 8001404:	4313      	orrs	r3, r2
 8001406:	61bb      	str	r3, [r7, #24]
 8001408:	687b      	ldr	r3, [r7, #4]
 800140a:	f893 3020 	ldrb.w	r3, [r3, #32]
 800140e:	2b01      	cmp	r3, #1
 8001410:	d106      	bne.n	8001420 <HAL_ADC_Init+0x168>
 8001412:	687b      	ldr	r3, [r7, #4]
 8001414:	6a5b      	ldr	r3, [r3, #36]	; 0x24
 8001416:	3b01      	subs	r3, #1
 8001418:	045b      	lsls	r3, r3, #17
 800141a:	69ba      	ldr	r2, [r7, #24]
 800141c:	4313      	orrs	r3, r2
 800141e:	61bb      	str	r3, [r7, #24]
 8001420:	687b      	ldr	r3, [r7, #4]
 8001422:	6a9b      	ldr	r3, [r3, #40]	; 0x28
 8001424:	2b00      	cmp	r3, #0
 8001426:	d009      	beq.n	800143c <HAL_ADC_Init+0x184>
 8001428:	687b      	ldr	r3, [r7, #4]
 800142a:	6a9b      	ldr	r3, [r3, #40]	; 0x28
 800142c:	f403 7270 	and.w	r2, r3, #960	; 0x3c0
 8001430:	687b      	ldr	r3, [r7, #4]
 8001432:	6adb      	ldr	r3, [r3, #44]	; 0x2c
 8001434:	4313      	orrs	r3, r2
 8001436:	69ba      	ldr	r2, [r7, #24]
 8001438:	4313      	orrs	r3, r2
 800143a:	61bb      	str	r3, [r7, #24]
 800143c:	687b      	ldr	r3, [r7, #4]
 800143e:	681b      	ldr	r3, [r3, #0]
 8001440:	68da      	ldr	r2, [r3, #12]
 8001442:	4b47      	ldr	r3, [pc, #284]	; (8001560 <HAL_ADC_Init+0x2a8>)
 8001444:	4013      	ands	r3, r2
 8001446:	687a      	ldr	r2, [r7, #4]
 8001448:	6812      	ldr	r2, [r2, #0]
 800144a:	69b9      	ldr	r1, [r7, #24]
 800144c:	430b      	orrs	r3, r1
 800144e:	60d3      	str	r3, [r2, #12]
 8001450:	687b      	ldr	r3, [r7, #4]
 8001452:	681b      	ldr	r3, [r3, #0]
 8001454:	4618      	mov	r0, r3
 8001456:	f7ff ff08 	bl	800126a <LL_ADC_REG_IsConversionOngoing>
 800145a:	6138      	str	r0, [r7, #16]
 800145c:	687b      	ldr	r3, [r7, #4]
 800145e:	681b      	ldr	r3, [r3, #0]
 8001460:	4618      	mov	r0, r3
 8001462:	f7ff ff15 	bl	8001290 <LL_ADC_INJ_IsConversionOngoing>
 8001466:	60f8      	str	r0, [r7, #12]
 8001468:	693b      	ldr	r3, [r7, #16]
 800146a:	2b00      	cmp	r3, #0
 800146c:	d13d      	bne.n	80014ea <HAL_ADC_Init+0x232>
 800146e:	68fb      	ldr	r3, [r7, #12]
 8001470:	2b00      	cmp	r3, #0
 8001472:	d13a      	bne.n	80014ea <HAL_ADC_Init+0x232>
 8001474:	687b      	ldr	r3, [r7, #4]
 8001476:	7e1b      	ldrb	r3, [r3, #24]
 8001478:	039a      	lsls	r2, r3, #14
 800147a:	687b      	ldr	r3, [r7, #4]
 800147c:	f893 3030 	ldrb.w	r3, [r3, #48]	; 0x30
 8001480:	005b      	lsls	r3, r3, #1
 8001482:	4313      	orrs	r3, r2
 8001484:	61bb      	str	r3, [r7, #24]
 8001486:	687b      	ldr	r3, [r7, #4]
 8001488:	681b      	ldr	r3, [r3, #0]
 800148a:	68db      	ldr	r3, [r3, #12]
 800148c:	f423 4380 	bic.w	r3, r3, #16384	; 0x4000
 8001490:	f023 0302 	bic.w	r3, r3, #2
 8001494:	687a      	ldr	r2, [r7, #4]
 8001496:	6812      	ldr	r2, [r2, #0]
 8001498:	69b9      	ldr	r1, [r7, #24]
 800149a:	430b      	orrs	r3, r1
 800149c:	60d3      	str	r3, [r2, #12]
 800149e:	687b      	ldr	r3, [r7, #4]
 80014a0:	f893 3038 	ldrb.w	r3, [r3, #56]	; 0x38
 80014a4:	2b01      	cmp	r3, #1
 80014a6:	d118      	bne.n	80014da <HAL_ADC_Init+0x222>
 80014a8:	687b      	ldr	r3, [r7, #4]
 80014aa:	681b      	ldr	r3, [r3, #0]
 80014ac:	691b      	ldr	r3, [r3, #16]
 80014ae:	f423 63ff 	bic.w	r3, r3, #2040	; 0x7f8
 80014b2:	f023 0304 	bic.w	r3, r3, #4
 80014b6:	687a      	ldr	r2, [r7, #4]
 80014b8:	6bd1      	ldr	r1, [r2, #60]	; 0x3c
 80014ba:	687a      	ldr	r2, [r7, #4]
 80014bc:	6c12      	ldr	r2, [r2, #64]	; 0x40
 80014be:	4311      	orrs	r1, r2
 80014c0:	687a      	ldr	r2, [r7, #4]
 80014c2:	6c52      	ldr	r2, [r2, #68]	; 0x44
 80014c4:	4311      	orrs	r1, r2
 80014c6:	687a      	ldr	r2, [r7, #4]
 80014c8:	6c92      	ldr	r2, [r2, #72]	; 0x48
 80014ca:	430a      	orrs	r2, r1
 80014cc:	431a      	orrs	r2, r3
 80014ce:	687b      	ldr	r3, [r7, #4]
 80014d0:	681b      	ldr	r3, [r3, #0]
 80014d2:	f042 0201 	orr.w	r2, r2, #1
 80014d6:	611a      	str	r2, [r3, #16]
 80014d8:	e007      	b.n	80014ea <HAL_ADC_Init+0x232>
 80014da:	687b      	ldr	r3, [r7, #4]
 80014dc:	681b      	ldr	r3, [r3, #0]
 80014de:	691a      	ldr	r2, [r3, #16]
 80014e0:	687b      	ldr	r3, [r7, #4]
 80014e2:	681b      	ldr	r3, [r3, #0]
 80014e4:	f022 0201 	bic.w	r2, r2, #1
 80014e8:	611a      	str	r2, [r3, #16]
 80014ea:	687b      	ldr	r3, [r7, #4]
 80014ec:	691b      	ldr	r3, [r3, #16]
 80014ee:	2b01      	cmp	r3, #1
 80014f0:	d10c      	bne.n	800150c <HAL_ADC_Init+0x254>
 80014f2:	687b      	ldr	r3, [r7, #4]
 80014f4:	681b      	ldr	r3, [r3, #0]
 80014f6:	6b1b      	ldr	r3, [r3, #48]	; 0x30
 80014f8:	f023 010f 	bic.w	r1, r3, #15
 80014fc:	687b      	ldr	r3, [r7, #4]
 80014fe:	69db      	ldr	r3, [r3, #28]
 8001500:	1e5a      	subs	r2, r3, #1
 8001502:	687b      	ldr	r3, [r7, #4]
 8001504:	681b      	ldr	r3, [r3, #0]
 8001506:	430a      	orrs	r2, r1
 8001508:	631a      	str	r2, [r3, #48]	; 0x30
 800150a:	e007      	b.n	800151c <HAL_ADC_Init+0x264>
 800150c:	687b      	ldr	r3, [r7, #4]
 800150e:	681b      	ldr	r3, [r3, #0]
 8001510:	6b1a      	ldr	r2, [r3, #48]	; 0x30
 8001512:	687b      	ldr	r3, [r7, #4]
 8001514:	681b      	ldr	r3, [r3, #0]
 8001516:	f022 020f 	bic.w	r2, r2, #15
 800151a:	631a      	str	r2, [r3, #48]	; 0x30
 800151c:	687b      	ldr	r3, [r7, #4]
 800151e:	6d5b      	ldr	r3, [r3, #84]	; 0x54
 8001520:	f023 0303 	bic.w	r3, r3, #3
 8001524:	f043 0201 	orr.w	r2, r3, #1
 8001528:	687b      	ldr	r3, [r7, #4]
 800152a:	655a      	str	r2, [r3, #84]	; 0x54
 800152c:	e007      	b.n	800153e <HAL_ADC_Init+0x286>
 800152e:	687b      	ldr	r3, [r7, #4]
 8001530:	6d5b      	ldr	r3, [r3, #84]	; 0x54
 8001532:	f043 0210 	orr.w	r2, r3, #16
 8001536:	687b      	ldr	r3, [r7, #4]
 8001538:	655a      	str	r2, [r3, #84]	; 0x54
 800153a:	2301      	movs	r3, #1
 800153c:	77fb      	strb	r3, [r7, #31]
 800153e:	7ffb      	ldrb	r3, [r7, #31]
 8001540:	4618      	mov	r0, r3
 8001542:	3724      	adds	r7, #36	; 0x24
 8001544:	46bd      	mov	sp, r7
 8001546:	bd90      	pop	{r4, r7, pc}
 8001548:	20000000 	.word	0x20000000
 800154c:	053e2d63 	.word	0x053e2d63
 8001550:	50040000 	.word	0x50040000
 8001554:	50040100 	.word	0x50040100
 8001558:	50040200 	.word	0x50040200
 800155c:	50040300 	.word	0x50040300
 8001560:	fff0c007 	.word	0xfff0c007

08001564 <HAL_ADC_Start_DMA>:
 8001564:	b580      	push	{r7, lr}
 8001566:	b086      	sub	sp, #24
 8001568:	af00      	add	r7, sp, #0
 800156a:	60f8      	str	r0, [r7, #12]
 800156c:	60b9      	str	r1, [r7, #8]
 800156e:	607a      	str	r2, [r7, #4]
 8001570:	4853      	ldr	r0, [pc, #332]	; (80016c0 <HAL_ADC_Start_DMA+0x15c>)
 8001572:	f7ff fde3 	bl	800113c <LL_ADC_GetMultimode>
 8001576:	6138      	str	r0, [r7, #16]
 8001578:	68fb      	ldr	r3, [r7, #12]
 800157a:	681b      	ldr	r3, [r3, #0]
 800157c:	4618      	mov	r0, r3
 800157e:	f7ff fe74 	bl	800126a <LL_ADC_REG_IsConversionOngoing>
 8001582:	4603      	mov	r3, r0
 8001584:	2b00      	cmp	r3, #0
 8001586:	f040 8093 	bne.w	80016b0 <HAL_ADC_Start_DMA+0x14c>
 800158a:	68fb      	ldr	r3, [r7, #12]
 800158c:	f893 3050 	ldrb.w	r3, [r3, #80]	; 0x50
 8001590:	2b01      	cmp	r3, #1
 8001592:	d101      	bne.n	8001598 <HAL_ADC_Start_DMA+0x34>
 8001594:	2302      	movs	r3, #2
 8001596:	e08e      	b.n	80016b6 <HAL_ADC_Start_DMA+0x152>
 8001598:	68fb      	ldr	r3, [r7, #12]
 800159a:	2201      	movs	r2, #1
 800159c:	f883 2050 	strb.w	r2, [r3, #80]	; 0x50
 80015a0:	68fb      	ldr	r3, [r7, #12]
 80015a2:	681b      	ldr	r3, [r3, #0]
 80015a4:	4a47      	ldr	r2, [pc, #284]	; (80016c4 <HAL_ADC_Start_DMA+0x160>)
 80015a6:	4293      	cmp	r3, r2
 80015a8:	d008      	beq.n	80015bc <HAL_ADC_Start_DMA+0x58>
 80015aa:	693b      	ldr	r3, [r7, #16]
 80015ac:	2b00      	cmp	r3, #0
 80015ae:	d005      	beq.n	80015bc <HAL_ADC_Start_DMA+0x58>
 80015b0:	693b      	ldr	r3, [r7, #16]
 80015b2:	2b05      	cmp	r3, #5
 80015b4:	d002      	beq.n	80015bc <HAL_ADC_Start_DMA+0x58>
 80015b6:	693b      	ldr	r3, [r7, #16]
 80015b8:	2b09      	cmp	r3, #9
 80015ba:	d172      	bne.n	80016a2 <HAL_ADC_Start_DMA+0x13e>
 80015bc:	68f8      	ldr	r0, [r7, #12]
 80015be:	f000 fc9b 	bl	8001ef8 <ADC_Enable>
 80015c2:	4603      	mov	r3, r0
 80015c4:	75fb      	strb	r3, [r7, #23]
 80015c6:	7dfb      	ldrb	r3, [r7, #23]
 80015c8:	2b00      	cmp	r3, #0
 80015ca:	d165      	bne.n	8001698 <HAL_ADC_Start_DMA+0x134>
 80015cc:	68fb      	ldr	r3, [r7, #12]
 80015ce:	6d5b      	ldr	r3, [r3, #84]	; 0x54
 80015d0:	f423 6370 	bic.w	r3, r3, #3840	; 0xf00
 80015d4:	f023 0301 	bic.w	r3, r3, #1
 80015d8:	f443 7280 	orr.w	r2, r3, #256	; 0x100
 80015dc:	68fb      	ldr	r3, [r7, #12]
 80015de:	655a      	str	r2, [r3, #84]	; 0x54
 80015e0:	68fb      	ldr	r3, [r7, #12]
 80015e2:	681b      	ldr	r3, [r3, #0]
 80015e4:	4a38      	ldr	r2, [pc, #224]	; (80016c8 <HAL_ADC_Start_DMA+0x164>)
 80015e6:	4293      	cmp	r3, r2
 80015e8:	d002      	beq.n	80015f0 <HAL_ADC_Start_DMA+0x8c>
 80015ea:	68fb      	ldr	r3, [r7, #12]
 80015ec:	681b      	ldr	r3, [r3, #0]
 80015ee:	e000      	b.n	80015f2 <HAL_ADC_Start_DMA+0x8e>
 80015f0:	4b36      	ldr	r3, [pc, #216]	; (80016cc <HAL_ADC_Start_DMA+0x168>)
 80015f2:	68fa      	ldr	r2, [r7, #12]
 80015f4:	6812      	ldr	r2, [r2, #0]
 80015f6:	4293      	cmp	r3, r2
 80015f8:	d002      	beq.n	8001600 <HAL_ADC_Start_DMA+0x9c>
 80015fa:	693b      	ldr	r3, [r7, #16]
 80015fc:	2b00      	cmp	r3, #0
 80015fe:	d105      	bne.n	800160c <HAL_ADC_Start_DMA+0xa8>
 8001600:	68fb      	ldr	r3, [r7, #12]
 8001602:	6d5b      	ldr	r3, [r3, #84]	; 0x54
 8001604:	f423 1280 	bic.w	r2, r3, #1048576	; 0x100000
 8001608:	68fb      	ldr	r3, [r7, #12]
 800160a:	655a      	str	r2, [r3, #84]	; 0x54
 800160c:	68fb      	ldr	r3, [r7, #12]
 800160e:	6d5b      	ldr	r3, [r3, #84]	; 0x54
 8001610:	f403 5380 	and.w	r3, r3, #4096	; 0x1000
 8001614:	2b00      	cmp	r3, #0
 8001616:	d006      	beq.n	8001626 <HAL_ADC_Start_DMA+0xc2>
 8001618:	68fb      	ldr	r3, [r7, #12]
 800161a:	6d9b      	ldr	r3, [r3, #88]	; 0x58
 800161c:	f023 0206 	bic.w	r2, r3, #6
 8001620:	68fb      	ldr	r3, [r7, #12]
 8001622:	659a      	str	r2, [r3, #88]	; 0x58
 8001624:	e002      	b.n	800162c <HAL_ADC_Start_DMA+0xc8>
 8001626:	68fb      	ldr	r3, [r7, #12]
 8001628:	2200      	movs	r2, #0
 800162a:	659a      	str	r2, [r3, #88]	; 0x58
 800162c:	68fb      	ldr	r3, [r7, #12]
 800162e:	6cdb      	ldr	r3, [r3, #76]	; 0x4c
 8001630:	4a27      	ldr	r2, [pc, #156]	; (80016d0 <HAL_ADC_Start_DMA+0x16c>)
 8001632:	62da      	str	r2, [r3, #44]	; 0x2c
 8001634:	68fb      	ldr	r3, [r7, #12]
 8001636:	6cdb      	ldr	r3, [r3, #76]	; 0x4c
 8001638:	4a26      	ldr	r2, [pc, #152]	; (80016d4 <HAL_ADC_Start_DMA+0x170>)
 800163a:	631a      	str	r2, [r3, #48]	; 0x30
 800163c:	68fb      	ldr	r3, [r7, #12]
 800163e:	6cdb      	ldr	r3, [r3, #76]	; 0x4c
 8001640:	4a25      	ldr	r2, [pc, #148]	; (80016d8 <HAL_ADC_Start_DMA+0x174>)
 8001642:	635a      	str	r2, [r3, #52]	; 0x34
 8001644:	68fb      	ldr	r3, [r7, #12]
 8001646:	681b      	ldr	r3, [r3, #0]
 8001648:	221c      	movs	r2, #28
 800164a:	601a      	str	r2, [r3, #0]
 800164c:	68fb      	ldr	r3, [r7, #12]
 800164e:	2200      	movs	r2, #0
 8001650:	f883 2050 	strb.w	r2, [r3, #80]	; 0x50
 8001654:	68fb      	ldr	r3, [r7, #12]
 8001656:	681b      	ldr	r3, [r3, #0]
 8001658:	685a      	ldr	r2, [r3, #4]
 800165a:	68fb      	ldr	r3, [r7, #12]
 800165c:	681b      	ldr	r3, [r3, #0]
 800165e:	f042 0210 	orr.w	r2, r2, #16
 8001662:	605a      	str	r2, [r3, #4]
 8001664:	68fb      	ldr	r3, [r7, #12]
 8001666:	681b      	ldr	r3, [r3, #0]
 8001668:	68da      	ldr	r2, [r3, #12]
 800166a:	68fb      	ldr	r3, [r7, #12]
 800166c:	681b      	ldr	r3, [r3, #0]
 800166e:	f042 0201 	orr.w	r2, r2, #1
 8001672:	60da      	str	r2, [r3, #12]
 8001674:	68fb      	ldr	r3, [r7, #12]
 8001676:	6cd8      	ldr	r0, [r3, #76]	; 0x4c
 8001678:	68fb      	ldr	r3, [r7, #12]
 800167a:	681b      	ldr	r3, [r3, #0]
 800167c:	3340      	adds	r3, #64	; 0x40
 800167e:	4619      	mov	r1, r3
 8001680:	68ba      	ldr	r2, [r7, #8]
 8001682:	687b      	ldr	r3, [r7, #4]
 8001684:	f000 ffc2 	bl	800260c <HAL_DMA_Start_IT>
 8001688:	4603      	mov	r3, r0
 800168a:	75fb      	strb	r3, [r7, #23]
 800168c:	68fb      	ldr	r3, [r7, #12]
 800168e:	681b      	ldr	r3, [r3, #0]
 8001690:	4618      	mov	r0, r3
 8001692:	f7ff fdd6 	bl	8001242 <LL_ADC_REG_StartConversion>
 8001696:	e00d      	b.n	80016b4 <HAL_ADC_Start_DMA+0x150>
 8001698:	68fb      	ldr	r3, [r7, #12]
 800169a:	2200      	movs	r2, #0
 800169c:	f883 2050 	strb.w	r2, [r3, #80]	; 0x50
 80016a0:	e008      	b.n	80016b4 <HAL_ADC_Start_DMA+0x150>
 80016a2:	2301      	movs	r3, #1
 80016a4:	75fb      	strb	r3, [r7, #23]
 80016a6:	68fb      	ldr	r3, [r7, #12]
 80016a8:	2200      	movs	r2, #0
 80016aa:	f883 2050 	strb.w	r2, [r3, #80]	; 0x50
 80016ae:	e001      	b.n	80016b4 <HAL_ADC_Start_DMA+0x150>
 80016b0:	2302      	movs	r3, #2
 80016b2:	75fb      	strb	r3, [r7, #23]
 80016b4:	7dfb      	ldrb	r3, [r7, #23]
 80016b6:	4618      	mov	r0, r3
 80016b8:	3718      	adds	r7, #24
 80016ba:	46bd      	mov	sp, r7
 80016bc:	bd80      	pop	{r7, pc}
 80016be:	bf00      	nop
 80016c0:	50040300 	.word	0x50040300
 80016c4:	50040200 	.word	0x50040200
 80016c8:	50040100 	.word	0x50040100
 80016cc:	50040000 	.word	0x50040000
 80016d0:	08002005 	.word	0x08002005
 80016d4:	080020dd 	.word	0x080020dd
 80016d8:	080020f9 	.word	0x080020f9

080016dc <HAL_ADC_ConvCpltCallback>:
 80016dc:	b480      	push	{r7}
 80016de:	b083      	sub	sp, #12
 80016e0:	af00      	add	r7, sp, #0
 80016e2:	6078      	str	r0, [r7, #4]
 80016e4:	bf00      	nop
 80016e6:	370c      	adds	r7, #12
 80016e8:	46bd      	mov	sp, r7
 80016ea:	f85d 7b04 	ldr.w	r7, [sp], #4
 80016ee:	4770      	bx	lr

080016f0 <HAL_ADC_ConvHalfCpltCallback>:
 80016f0:	b480      	push	{r7}
 80016f2:	b083      	sub	sp, #12
 80016f4:	af00      	add	r7, sp, #0
 80016f6:	6078      	str	r0, [r7, #4]
 80016f8:	bf00      	nop
 80016fa:	370c      	adds	r7, #12
 80016fc:	46bd      	mov	sp, r7
 80016fe:	f85d 7b04 	ldr.w	r7, [sp], #4
 8001702:	4770      	bx	lr

08001704 <HAL_ADC_ErrorCallback>:
 8001704:	b480      	push	{r7}
 8001706:	b083      	sub	sp, #12
 8001708:	af00      	add	r7, sp, #0
 800170a:	6078      	str	r0, [r7, #4]
 800170c:	bf00      	nop
 800170e:	370c      	adds	r7, #12
 8001710:	46bd      	mov	sp, r7
 8001712:	f85d 7b04 	ldr.w	r7, [sp], #4
 8001716:	4770      	bx	lr

08001718 <HAL_ADC_ConfigChannel>:
 8001718:	b580      	push	{r7, lr}
 800171a:	b0b6      	sub	sp, #216	; 0xd8
 800171c:	af00      	add	r7, sp, #0
 800171e:	6078      	str	r0, [r7, #4]
 8001720:	6039      	str	r1, [r7, #0]
 8001722:	2300      	movs	r3, #0
 8001724:	f887 30d7 	strb.w	r3, [r7, #215]	; 0xd7
 8001728:	2300      	movs	r3, #0
 800172a:	60fb      	str	r3, [r7, #12]
 800172c:	687b      	ldr	r3, [r7, #4]
 800172e:	f893 3050 	ldrb.w	r3, [r3, #80]	; 0x50
 8001732:	2b01      	cmp	r3, #1
 8001734:	d101      	bne.n	800173a <HAL_ADC_ConfigChannel+0x22>
 8001736:	2302      	movs	r3, #2
 8001738:	e3c7      	b.n	8001eca <HAL_ADC_ConfigChannel+0x7b2>
 800173a:	687b      	ldr	r3, [r7, #4]
 800173c:	2201      	movs	r2, #1
 800173e:	f883 2050 	strb.w	r2, [r3, #80]	; 0x50
 8001742:	687b      	ldr	r3, [r7, #4]
 8001744:	681b      	ldr	r3, [r3, #0]
 8001746:	4618      	mov	r0, r3
 8001748:	f7ff fd8f 	bl	800126a <LL_ADC_REG_IsConversionOngoing>
 800174c:	4603      	mov	r3, r0
 800174e:	2b00      	cmp	r3, #0
 8001750:	f040 83a8 	bne.w	8001ea4 <HAL_ADC_ConfigChannel+0x78c>
 8001754:	683b      	ldr	r3, [r7, #0]
 8001756:	685b      	ldr	r3, [r3, #4]
 8001758:	2b05      	cmp	r3, #5
 800175a:	d824      	bhi.n	80017a6 <HAL_ADC_ConfigChannel+0x8e>
 800175c:	683b      	ldr	r3, [r7, #0]
 800175e:	685b      	ldr	r3, [r3, #4]
 8001760:	3b02      	subs	r3, #2
 8001762:	2b03      	cmp	r3, #3
 8001764:	d81b      	bhi.n	800179e <HAL_ADC_ConfigChannel+0x86>
 8001766:	a201      	add	r2, pc, #4	; (adr r2, 800176c <HAL_ADC_ConfigChannel+0x54>)
 8001768:	f852 f023 	ldr.w	pc, [r2, r3, lsl #2]
 800176c:	0800177d 	.word	0x0800177d
 8001770:	08001785 	.word	0x08001785
 8001774:	0800178d 	.word	0x0800178d
 8001778:	08001795 	.word	0x08001795
 800177c:	683b      	ldr	r3, [r7, #0]
 800177e:	220c      	movs	r2, #12
 8001780:	605a      	str	r2, [r3, #4]
 8001782:	e011      	b.n	80017a8 <HAL_ADC_ConfigChannel+0x90>
 8001784:	683b      	ldr	r3, [r7, #0]
 8001786:	2212      	movs	r2, #18
 8001788:	605a      	str	r2, [r3, #4]
 800178a:	e00d      	b.n	80017a8 <HAL_ADC_ConfigChannel+0x90>
 800178c:	683b      	ldr	r3, [r7, #0]
 800178e:	2218      	movs	r2, #24
 8001790:	605a      	str	r2, [r3, #4]
 8001792:	e009      	b.n	80017a8 <HAL_ADC_ConfigChannel+0x90>
 8001794:	683b      	ldr	r3, [r7, #0]
 8001796:	f44f 7280 	mov.w	r2, #256	; 0x100
 800179a:	605a      	str	r2, [r3, #4]
 800179c:	e004      	b.n	80017a8 <HAL_ADC_ConfigChannel+0x90>
 800179e:	683b      	ldr	r3, [r7, #0]
 80017a0:	2206      	movs	r2, #6
 80017a2:	605a      	str	r2, [r3, #4]
 80017a4:	e000      	b.n	80017a8 <HAL_ADC_ConfigChannel+0x90>
 80017a6:	bf00      	nop
 80017a8:	687b      	ldr	r3, [r7, #4]
 80017aa:	6818      	ldr	r0, [r3, #0]
 80017ac:	683b      	ldr	r3, [r7, #0]
 80017ae:	6859      	ldr	r1, [r3, #4]
 80017b0:	683b      	ldr	r3, [r7, #0]
 80017b2:	681b      	ldr	r3, [r3, #0]
 80017b4:	461a      	mov	r2, r3
 80017b6:	f7ff fc45 	bl	8001044 <LL_ADC_REG_SetSequencerRanks>
 80017ba:	687b      	ldr	r3, [r7, #4]
 80017bc:	681b      	ldr	r3, [r3, #0]
 80017be:	4618      	mov	r0, r3
 80017c0:	f7ff fd53 	bl	800126a <LL_ADC_REG_IsConversionOngoing>
 80017c4:	f8c7 00d0 	str.w	r0, [r7, #208]	; 0xd0
 80017c8:	687b      	ldr	r3, [r7, #4]
 80017ca:	681b      	ldr	r3, [r3, #0]
 80017cc:	4618      	mov	r0, r3
 80017ce:	f7ff fd5f 	bl	8001290 <LL_ADC_INJ_IsConversionOngoing>
 80017d2:	f8c7 00cc 	str.w	r0, [r7, #204]	; 0xcc
 80017d6:	f8d7 30d0 	ldr.w	r3, [r7, #208]	; 0xd0
 80017da:	2b00      	cmp	r3, #0
 80017dc:	f040 81a6 	bne.w	8001b2c <HAL_ADC_ConfigChannel+0x414>
 80017e0:	f8d7 30cc 	ldr.w	r3, [r7, #204]	; 0xcc
 80017e4:	2b00      	cmp	r3, #0
 80017e6:	f040 81a1 	bne.w	8001b2c <HAL_ADC_ConfigChannel+0x414>
 80017ea:	687b      	ldr	r3, [r7, #4]
 80017ec:	6818      	ldr	r0, [r3, #0]
 80017ee:	683b      	ldr	r3, [r7, #0]
 80017f0:	6819      	ldr	r1, [r3, #0]
 80017f2:	683b      	ldr	r3, [r7, #0]
 80017f4:	689b      	ldr	r3, [r3, #8]
 80017f6:	461a      	mov	r2, r3
 80017f8:	f7ff fc50 	bl	800109c <LL_ADC_SetChannelSamplingTime>
 80017fc:	683b      	ldr	r3, [r7, #0]
 80017fe:	695a      	ldr	r2, [r3, #20]
 8001800:	687b      	ldr	r3, [r7, #4]
 8001802:	681b      	ldr	r3, [r3, #0]
 8001804:	68db      	ldr	r3, [r3, #12]
 8001806:	08db      	lsrs	r3, r3, #3
 8001808:	f003 0303 	and.w	r3, r3, #3
 800180c:	005b      	lsls	r3, r3, #1
 800180e:	fa02 f303 	lsl.w	r3, r2, r3
 8001812:	f8c7 30c8 	str.w	r3, [r7, #200]	; 0xc8
 8001816:	683b      	ldr	r3, [r7, #0]
 8001818:	691b      	ldr	r3, [r3, #16]
 800181a:	2b04      	cmp	r3, #4
 800181c:	d00a      	beq.n	8001834 <HAL_ADC_ConfigChannel+0x11c>
 800181e:	687b      	ldr	r3, [r7, #4]
 8001820:	6818      	ldr	r0, [r3, #0]
 8001822:	683b      	ldr	r3, [r7, #0]
 8001824:	6919      	ldr	r1, [r3, #16]
 8001826:	683b      	ldr	r3, [r7, #0]
 8001828:	681a      	ldr	r2, [r3, #0]
 800182a:	f8d7 30c8 	ldr.w	r3, [r7, #200]	; 0xc8
 800182e:	f7ff fba1 	bl	8000f74 <LL_ADC_SetOffset>
 8001832:	e17b      	b.n	8001b2c <HAL_ADC_ConfigChannel+0x414>
 8001834:	687b      	ldr	r3, [r7, #4]
 8001836:	681b      	ldr	r3, [r3, #0]
 8001838:	2100      	movs	r1, #0
 800183a:	4618      	mov	r0, r3
 800183c:	f7ff fbbe 	bl	8000fbc <LL_ADC_GetOffsetChannel>
 8001840:	4603      	mov	r3, r0
 8001842:	f3c3 0312 	ubfx	r3, r3, #0, #19
 8001846:	2b00      	cmp	r3, #0
 8001848:	d10a      	bne.n	8001860 <HAL_ADC_ConfigChannel+0x148>
 800184a:	687b      	ldr	r3, [r7, #4]
 800184c:	681b      	ldr	r3, [r3, #0]
 800184e:	2100      	movs	r1, #0
 8001850:	4618      	mov	r0, r3
 8001852:	f7ff fbb3 	bl	8000fbc <LL_ADC_GetOffsetChannel>
 8001856:	4603      	mov	r3, r0
 8001858:	0e9b      	lsrs	r3, r3, #26
 800185a:	f003 021f 	and.w	r2, r3, #31
 800185e:	e01e      	b.n	800189e <HAL_ADC_ConfigChannel+0x186>
 8001860:	687b      	ldr	r3, [r7, #4]
 8001862:	681b      	ldr	r3, [r3, #0]
 8001864:	2100      	movs	r1, #0
 8001866:	4618      	mov	r0, r3
 8001868:	f7ff fba8 	bl	8000fbc <LL_ADC_GetOffsetChannel>
 800186c:	4603      	mov	r3, r0
 800186e:	f8c7 30bc 	str.w	r3, [r7, #188]	; 0xbc
 8001872:	f8d7 30bc 	ldr.w	r3, [r7, #188]	; 0xbc
 8001876:	fa93 f3a3 	rbit	r3, r3
 800187a:	f8c7 30b8 	str.w	r3, [r7, #184]	; 0xb8
 800187e:	f8d7 30b8 	ldr.w	r3, [r7, #184]	; 0xb8
 8001882:	f8c7 30c0 	str.w	r3, [r7, #192]	; 0xc0
 8001886:	f8d7 30c0 	ldr.w	r3, [r7, #192]	; 0xc0
 800188a:	2b00      	cmp	r3, #0
 800188c:	d101      	bne.n	8001892 <HAL_ADC_ConfigChannel+0x17a>
 800188e:	2320      	movs	r3, #32
 8001890:	e004      	b.n	800189c <HAL_ADC_ConfigChannel+0x184>
 8001892:	f8d7 30c0 	ldr.w	r3, [r7, #192]	; 0xc0
 8001896:	fab3 f383 	clz	r3, r3
 800189a:	b2db      	uxtb	r3, r3
 800189c:	461a      	mov	r2, r3
 800189e:	683b      	ldr	r3, [r7, #0]
 80018a0:	681b      	ldr	r3, [r3, #0]
 80018a2:	f3c3 0312 	ubfx	r3, r3, #0, #19
 80018a6:	2b00      	cmp	r3, #0
 80018a8:	d105      	bne.n	80018b6 <HAL_ADC_ConfigChannel+0x19e>
 80018aa:	683b      	ldr	r3, [r7, #0]
 80018ac:	681b      	ldr	r3, [r3, #0]
 80018ae:	0e9b      	lsrs	r3, r3, #26
 80018b0:	f003 031f 	and.w	r3, r3, #31
 80018b4:	e018      	b.n	80018e8 <HAL_ADC_ConfigChannel+0x1d0>
 80018b6:	683b      	ldr	r3, [r7, #0]
 80018b8:	681b      	ldr	r3, [r3, #0]
 80018ba:	f8c7 30b0 	str.w	r3, [r7, #176]	; 0xb0
 80018be:	f8d7 30b0 	ldr.w	r3, [r7, #176]	; 0xb0
 80018c2:	fa93 f3a3 	rbit	r3, r3
 80018c6:	f8c7 30ac 	str.w	r3, [r7, #172]	; 0xac
 80018ca:	f8d7 30ac 	ldr.w	r3, [r7, #172]	; 0xac
 80018ce:	f8c7 30b4 	str.w	r3, [r7, #180]	; 0xb4
 80018d2:	f8d7 30b4 	ldr.w	r3, [r7, #180]	; 0xb4
 80018d6:	2b00      	cmp	r3, #0
 80018d8:	d101      	bne.n	80018de <HAL_ADC_ConfigChannel+0x1c6>
 80018da:	2320      	movs	r3, #32
 80018dc:	e004      	b.n	80018e8 <HAL_ADC_ConfigChannel+0x1d0>
 80018de:	f8d7 30b4 	ldr.w	r3, [r7, #180]	; 0xb4
 80018e2:	fab3 f383 	clz	r3, r3
 80018e6:	b2db      	uxtb	r3, r3
 80018e8:	429a      	cmp	r2, r3
 80018ea:	d106      	bne.n	80018fa <HAL_ADC_ConfigChannel+0x1e2>
 80018ec:	687b      	ldr	r3, [r7, #4]
 80018ee:	681b      	ldr	r3, [r3, #0]
 80018f0:	2200      	movs	r2, #0
 80018f2:	2100      	movs	r1, #0
 80018f4:	4618      	mov	r0, r3
 80018f6:	f7ff fb77 	bl	8000fe8 <LL_ADC_SetOffsetState>
 80018fa:	687b      	ldr	r3, [r7, #4]
 80018fc:	681b      	ldr	r3, [r3, #0]
 80018fe:	2101      	movs	r1, #1
 8001900:	4618      	mov	r0, r3
 8001902:	f7ff fb5b 	bl	8000fbc <LL_ADC_GetOffsetChannel>
 8001906:	4603      	mov	r3, r0
 8001908:	f3c3 0312 	ubfx	r3, r3, #0, #19
 800190c:	2b00      	cmp	r3, #0
 800190e:	d10a      	bne.n	8001926 <HAL_ADC_ConfigChannel+0x20e>
 8001910:	687b      	ldr	r3, [r7, #4]
 8001912:	681b      	ldr	r3, [r3, #0]
 8001914:	2101      	movs	r1, #1
 8001916:	4618      	mov	r0, r3
 8001918:	f7ff fb50 	bl	8000fbc <LL_ADC_GetOffsetChannel>
 800191c:	4603      	mov	r3, r0
 800191e:	0e9b      	lsrs	r3, r3, #26
 8001920:	f003 021f 	and.w	r2, r3, #31
 8001924:	e01e      	b.n	8001964 <HAL_ADC_ConfigChannel+0x24c>
 8001926:	687b      	ldr	r3, [r7, #4]
 8001928:	681b      	ldr	r3, [r3, #0]
 800192a:	2101      	movs	r1, #1
 800192c:	4618      	mov	r0, r3
 800192e:	f7ff fb45 	bl	8000fbc <LL_ADC_GetOffsetChannel>
 8001932:	4603      	mov	r3, r0
 8001934:	f8c7 30a4 	str.w	r3, [r7, #164]	; 0xa4
 8001938:	f8d7 30a4 	ldr.w	r3, [r7, #164]	; 0xa4
 800193c:	fa93 f3a3 	rbit	r3, r3
 8001940:	f8c7 30a0 	str.w	r3, [r7, #160]	; 0xa0
 8001944:	f8d7 30a0 	ldr.w	r3, [r7, #160]	; 0xa0
 8001948:	f8c7 30a8 	str.w	r3, [r7, #168]	; 0xa8
 800194c:	f8d7 30a8 	ldr.w	r3, [r7, #168]	; 0xa8
 8001950:	2b00      	cmp	r3, #0
 8001952:	d101      	bne.n	8001958 <HAL_ADC_ConfigChannel+0x240>
 8001954:	2320      	movs	r3, #32
 8001956:	e004      	b.n	8001962 <HAL_ADC_ConfigChannel+0x24a>
 8001958:	f8d7 30a8 	ldr.w	r3, [r7, #168]	; 0xa8
 800195c:	fab3 f383 	clz	r3, r3
 8001960:	b2db      	uxtb	r3, r3
 8001962:	461a      	mov	r2, r3
 8001964:	683b      	ldr	r3, [r7, #0]
 8001966:	681b      	ldr	r3, [r3, #0]
 8001968:	f3c3 0312 	ubfx	r3, r3, #0, #19
 800196c:	2b00      	cmp	r3, #0
 800196e:	d105      	bne.n	800197c <HAL_ADC_ConfigChannel+0x264>
 8001970:	683b      	ldr	r3, [r7, #0]
 8001972:	681b      	ldr	r3, [r3, #0]
 8001974:	0e9b      	lsrs	r3, r3, #26
 8001976:	f003 031f 	and.w	r3, r3, #31
 800197a:	e018      	b.n	80019ae <HAL_ADC_ConfigChannel+0x296>
 800197c:	683b      	ldr	r3, [r7, #0]
 800197e:	681b      	ldr	r3, [r3, #0]
 8001980:	f8c7 3098 	str.w	r3, [r7, #152]	; 0x98
 8001984:	f8d7 3098 	ldr.w	r3, [r7, #152]	; 0x98
 8001988:	fa93 f3a3 	rbit	r3, r3
 800198c:	f8c7 3094 	str.w	r3, [r7, #148]	; 0x94
 8001990:	f8d7 3094 	ldr.w	r3, [r7, #148]	; 0x94
 8001994:	f8c7 309c 	str.w	r3, [r7, #156]	; 0x9c
 8001998:	f8d7 309c 	ldr.w	r3, [r7, #156]	; 0x9c
 800199c:	2b00      	cmp	r3, #0
 800199e:	d101      	bne.n	80019a4 <HAL_ADC_ConfigChannel+0x28c>
 80019a0:	2320      	movs	r3, #32
 80019a2:	e004      	b.n	80019ae <HAL_ADC_ConfigChannel+0x296>
 80019a4:	f8d7 309c 	ldr.w	r3, [r7, #156]	; 0x9c
 80019a8:	fab3 f383 	clz	r3, r3
 80019ac:	b2db      	uxtb	r3, r3
 80019ae:	429a      	cmp	r2, r3
 80019b0:	d106      	bne.n	80019c0 <HAL_ADC_ConfigChannel+0x2a8>
 80019b2:	687b      	ldr	r3, [r7, #4]
 80019b4:	681b      	ldr	r3, [r3, #0]
 80019b6:	2200      	movs	r2, #0
 80019b8:	2101      	movs	r1, #1
 80019ba:	4618      	mov	r0, r3
 80019bc:	f7ff fb14 	bl	8000fe8 <LL_ADC_SetOffsetState>
 80019c0:	687b      	ldr	r3, [r7, #4]
 80019c2:	681b      	ldr	r3, [r3, #0]
 80019c4:	2102      	movs	r1, #2
 80019c6:	4618      	mov	r0, r3
 80019c8:	f7ff faf8 	bl	8000fbc <LL_ADC_GetOffsetChannel>
 80019cc:	4603      	mov	r3, r0
 80019ce:	f3c3 0312 	ubfx	r3, r3, #0, #19
 80019d2:	2b00      	cmp	r3, #0
 80019d4:	d10a      	bne.n	80019ec <HAL_ADC_ConfigChannel+0x2d4>
 80019d6:	687b      	ldr	r3, [r7, #4]
 80019d8:	681b      	ldr	r3, [r3, #0]
 80019da:	2102      	movs	r1, #2
 80019dc:	4618      	mov	r0, r3
 80019de:	f7ff faed 	bl	8000fbc <LL_ADC_GetOffsetChannel>
 80019e2:	4603      	mov	r3, r0
 80019e4:	0e9b      	lsrs	r3, r3, #26
 80019e6:	f003 021f 	and.w	r2, r3, #31
 80019ea:	e01e      	b.n	8001a2a <HAL_ADC_ConfigChannel+0x312>
 80019ec:	687b      	ldr	r3, [r7, #4]
 80019ee:	681b      	ldr	r3, [r3, #0]
 80019f0:	2102      	movs	r1, #2
 80019f2:	4618      	mov	r0, r3
 80019f4:	f7ff fae2 	bl	8000fbc <LL_ADC_GetOffsetChannel>
 80019f8:	4603      	mov	r3, r0
 80019fa:	f8c7 308c 	str.w	r3, [r7, #140]	; 0x8c
 80019fe:	f8d7 308c 	ldr.w	r3, [r7, #140]	; 0x8c
 8001a02:	fa93 f3a3 	rbit	r3, r3
 8001a06:	f8c7 3088 	str.w	r3, [r7, #136]	; 0x88
 8001a0a:	f8d7 3088 	ldr.w	r3, [r7, #136]	; 0x88
 8001a0e:	f8c7 3090 	str.w	r3, [r7, #144]	; 0x90
 8001a12:	f8d7 3090 	ldr.w	r3, [r7, #144]	; 0x90
 8001a16:	2b00      	cmp	r3, #0
 8001a18:	d101      	bne.n	8001a1e <HAL_ADC_ConfigChannel+0x306>
 8001a1a:	2320      	movs	r3, #32
 8001a1c:	e004      	b.n	8001a28 <HAL_ADC_ConfigChannel+0x310>
 8001a1e:	f8d7 3090 	ldr.w	r3, [r7, #144]	; 0x90
 8001a22:	fab3 f383 	clz	r3, r3
 8001a26:	b2db      	uxtb	r3, r3
 8001a28:	461a      	mov	r2, r3
 8001a2a:	683b      	ldr	r3, [r7, #0]
 8001a2c:	681b      	ldr	r3, [r3, #0]
 8001a2e:	f3c3 0312 	ubfx	r3, r3, #0, #19
 8001a32:	2b00      	cmp	r3, #0
 8001a34:	d105      	bne.n	8001a42 <HAL_ADC_ConfigChannel+0x32a>
 8001a36:	683b      	ldr	r3, [r7, #0]
 8001a38:	681b      	ldr	r3, [r3, #0]
 8001a3a:	0e9b      	lsrs	r3, r3, #26
 8001a3c:	f003 031f 	and.w	r3, r3, #31
 8001a40:	e016      	b.n	8001a70 <HAL_ADC_ConfigChannel+0x358>
 8001a42:	683b      	ldr	r3, [r7, #0]
 8001a44:	681b      	ldr	r3, [r3, #0]
 8001a46:	f8c7 3080 	str.w	r3, [r7, #128]	; 0x80
 8001a4a:	f8d7 3080 	ldr.w	r3, [r7, #128]	; 0x80
 8001a4e:	fa93 f3a3 	rbit	r3, r3
 8001a52:	67fb      	str	r3, [r7, #124]	; 0x7c
 8001a54:	6ffb      	ldr	r3, [r7, #124]	; 0x7c
 8001a56:	f8c7 3084 	str.w	r3, [r7, #132]	; 0x84
 8001a5a:	f8d7 3084 	ldr.w	r3, [r7, #132]	; 0x84
 8001a5e:	2b00      	cmp	r3, #0
 8001a60:	d101      	bne.n	8001a66 <HAL_ADC_ConfigChannel+0x34e>
 8001a62:	2320      	movs	r3, #32
 8001a64:	e004      	b.n	8001a70 <HAL_ADC_ConfigChannel+0x358>
 8001a66:	f8d7 3084 	ldr.w	r3, [r7, #132]	; 0x84
 8001a6a:	fab3 f383 	clz	r3, r3
 8001a6e:	b2db      	uxtb	r3, r3
 8001a70:	429a      	cmp	r2, r3
 8001a72:	d106      	bne.n	8001a82 <HAL_ADC_ConfigChannel+0x36a>
 8001a74:	687b      	ldr	r3, [r7, #4]
 8001a76:	681b      	ldr	r3, [r3, #0]
 8001a78:	2200      	movs	r2, #0
 8001a7a:	2102      	movs	r1, #2
 8001a7c:	4618      	mov	r0, r3
 8001a7e:	f7ff fab3 	bl	8000fe8 <LL_ADC_SetOffsetState>
 8001a82:	687b      	ldr	r3, [r7, #4]
 8001a84:	681b      	ldr	r3, [r3, #0]
 8001a86:	2103      	movs	r1, #3
 8001a88:	4618      	mov	r0, r3
 8001a8a:	f7ff fa97 	bl	8000fbc <LL_ADC_GetOffsetChannel>
 8001a8e:	4603      	mov	r3, r0
 8001a90:	f3c3 0312 	ubfx	r3, r3, #0, #19
 8001a94:	2b00      	cmp	r3, #0
 8001a96:	d10a      	bne.n	8001aae <HAL_ADC_ConfigChannel+0x396>
 8001a98:	687b      	ldr	r3, [r7, #4]
 8001a9a:	681b      	ldr	r3, [r3, #0]
 8001a9c:	2103      	movs	r1, #3
 8001a9e:	4618      	mov	r0, r3
 8001aa0:	f7ff fa8c 	bl	8000fbc <LL_ADC_GetOffsetChannel>
 8001aa4:	4603      	mov	r3, r0
 8001aa6:	0e9b      	lsrs	r3, r3, #26
 8001aa8:	f003 021f 	and.w	r2, r3, #31
 8001aac:	e017      	b.n	8001ade <HAL_ADC_ConfigChannel+0x3c6>
 8001aae:	687b      	ldr	r3, [r7, #4]
 8001ab0:	681b      	ldr	r3, [r3, #0]
 8001ab2:	2103      	movs	r1, #3
 8001ab4:	4618      	mov	r0, r3
 8001ab6:	f7ff fa81 	bl	8000fbc <LL_ADC_GetOffsetChannel>
 8001aba:	4603      	mov	r3, r0
 8001abc:	677b      	str	r3, [r7, #116]	; 0x74
 8001abe:	6f7b      	ldr	r3, [r7, #116]	; 0x74
 8001ac0:	fa93 f3a3 	rbit	r3, r3
 8001ac4:	673b      	str	r3, [r7, #112]	; 0x70
 8001ac6:	6f3b      	ldr	r3, [r7, #112]	; 0x70
 8001ac8:	67bb      	str	r3, [r7, #120]	; 0x78
 8001aca:	6fbb      	ldr	r3, [r7, #120]	; 0x78
 8001acc:	2b00      	cmp	r3, #0
 8001ace:	d101      	bne.n	8001ad4 <HAL_ADC_ConfigChannel+0x3bc>
 8001ad0:	2320      	movs	r3, #32
 8001ad2:	e003      	b.n	8001adc <HAL_ADC_ConfigChannel+0x3c4>
 8001ad4:	6fbb      	ldr	r3, [r7, #120]	; 0x78
 8001ad6:	fab3 f383 	clz	r3, r3
 8001ada:	b2db      	uxtb	r3, r3
 8001adc:	461a      	mov	r2, r3
 8001ade:	683b      	ldr	r3, [r7, #0]
 8001ae0:	681b      	ldr	r3, [r3, #0]
 8001ae2:	f3c3 0312 	ubfx	r3, r3, #0, #19
 8001ae6:	2b00      	cmp	r3, #0
 8001ae8:	d105      	bne.n	8001af6 <HAL_ADC_ConfigChannel+0x3de>
 8001aea:	683b      	ldr	r3, [r7, #0]
 8001aec:	681b      	ldr	r3, [r3, #0]
 8001aee:	0e9b      	lsrs	r3, r3, #26
 8001af0:	f003 031f 	and.w	r3, r3, #31
 8001af4:	e011      	b.n	8001b1a <HAL_ADC_ConfigChannel+0x402>
 8001af6:	683b      	ldr	r3, [r7, #0]
 8001af8:	681b      	ldr	r3, [r3, #0]
 8001afa:	66bb      	str	r3, [r7, #104]	; 0x68
 8001afc:	6ebb      	ldr	r3, [r7, #104]	; 0x68
 8001afe:	fa93 f3a3 	rbit	r3, r3
 8001b02:	667b      	str	r3, [r7, #100]	; 0x64
 8001b04:	6e7b      	ldr	r3, [r7, #100]	; 0x64
 8001b06:	66fb      	str	r3, [r7, #108]	; 0x6c
 8001b08:	6efb      	ldr	r3, [r7, #108]	; 0x6c
 8001b0a:	2b00      	cmp	r3, #0
 8001b0c:	d101      	bne.n	8001b12 <HAL_ADC_ConfigChannel+0x3fa>
 8001b0e:	2320      	movs	r3, #32
 8001b10:	e003      	b.n	8001b1a <HAL_ADC_ConfigChannel+0x402>
 8001b12:	6efb      	ldr	r3, [r7, #108]	; 0x6c
 8001b14:	fab3 f383 	clz	r3, r3
 8001b18:	b2db      	uxtb	r3, r3
 8001b1a:	429a      	cmp	r2, r3
 8001b1c:	d106      	bne.n	8001b2c <HAL_ADC_ConfigChannel+0x414>
 8001b1e:	687b      	ldr	r3, [r7, #4]
 8001b20:	681b      	ldr	r3, [r3, #0]
 8001b22:	2200      	movs	r2, #0
 8001b24:	2103      	movs	r1, #3
 8001b26:	4618      	mov	r0, r3
 8001b28:	f7ff fa5e 	bl	8000fe8 <LL_ADC_SetOffsetState>
 8001b2c:	687b      	ldr	r3, [r7, #4]
 8001b2e:	681b      	ldr	r3, [r3, #0]
 8001b30:	4618      	mov	r0, r3
 8001b32:	f7ff fb73 	bl	800121c <LL_ADC_IsEnabled>
 8001b36:	4603      	mov	r3, r0
 8001b38:	2b00      	cmp	r3, #0
 8001b3a:	f040 813f 	bne.w	8001dbc <HAL_ADC_ConfigChannel+0x6a4>
 8001b3e:	687b      	ldr	r3, [r7, #4]
 8001b40:	6818      	ldr	r0, [r3, #0]
 8001b42:	683b      	ldr	r3, [r7, #0]
 8001b44:	6819      	ldr	r1, [r3, #0]
 8001b46:	683b      	ldr	r3, [r7, #0]
 8001b48:	68db      	ldr	r3, [r3, #12]
 8001b4a:	461a      	mov	r2, r3
 8001b4c:	f7ff fad2 	bl	80010f4 <LL_ADC_SetChannelSingleDiff>
 8001b50:	683b      	ldr	r3, [r7, #0]
 8001b52:	68db      	ldr	r3, [r3, #12]
 8001b54:	4a8e      	ldr	r2, [pc, #568]	; (8001d90 <HAL_ADC_ConfigChannel+0x678>)
 8001b56:	4293      	cmp	r3, r2
 8001b58:	f040 8130 	bne.w	8001dbc <HAL_ADC_ConfigChannel+0x6a4>
 8001b5c:	687b      	ldr	r3, [r7, #4]
 8001b5e:	6818      	ldr	r0, [r3, #0]
 8001b60:	683b      	ldr	r3, [r7, #0]
 8001b62:	681b      	ldr	r3, [r3, #0]
 8001b64:	f3c3 0312 	ubfx	r3, r3, #0, #19
 8001b68:	2b00      	cmp	r3, #0
 8001b6a:	d10b      	bne.n	8001b84 <HAL_ADC_ConfigChannel+0x46c>
 8001b6c:	683b      	ldr	r3, [r7, #0]
 8001b6e:	681b      	ldr	r3, [r3, #0]
 8001b70:	0e9b      	lsrs	r3, r3, #26
 8001b72:	3301      	adds	r3, #1
 8001b74:	f003 031f 	and.w	r3, r3, #31
 8001b78:	2b09      	cmp	r3, #9
 8001b7a:	bf94      	ite	ls
 8001b7c:	2301      	movls	r3, #1
 8001b7e:	2300      	movhi	r3, #0
 8001b80:	b2db      	uxtb	r3, r3
 8001b82:	e019      	b.n	8001bb8 <HAL_ADC_ConfigChannel+0x4a0>
 8001b84:	683b      	ldr	r3, [r7, #0]
 8001b86:	681b      	ldr	r3, [r3, #0]
 8001b88:	65fb      	str	r3, [r7, #92]	; 0x5c
 8001b8a:	6dfb      	ldr	r3, [r7, #92]	; 0x5c
 8001b8c:	fa93 f3a3 	rbit	r3, r3
 8001b90:	65bb      	str	r3, [r7, #88]	; 0x58
 8001b92:	6dbb      	ldr	r3, [r7, #88]	; 0x58
 8001b94:	663b      	str	r3, [r7, #96]	; 0x60
 8001b96:	6e3b      	ldr	r3, [r7, #96]	; 0x60
 8001b98:	2b00      	cmp	r3, #0
 8001b9a:	d101      	bne.n	8001ba0 <HAL_ADC_ConfigChannel+0x488>
 8001b9c:	2320      	movs	r3, #32
 8001b9e:	e003      	b.n	8001ba8 <HAL_ADC_ConfigChannel+0x490>
 8001ba0:	6e3b      	ldr	r3, [r7, #96]	; 0x60
 8001ba2:	fab3 f383 	clz	r3, r3
 8001ba6:	b2db      	uxtb	r3, r3
 8001ba8:	3301      	adds	r3, #1
 8001baa:	f003 031f 	and.w	r3, r3, #31
 8001bae:	2b09      	cmp	r3, #9
 8001bb0:	bf94      	ite	ls
 8001bb2:	2301      	movls	r3, #1
 8001bb4:	2300      	movhi	r3, #0
 8001bb6:	b2db      	uxtb	r3, r3
 8001bb8:	2b00      	cmp	r3, #0
 8001bba:	d079      	beq.n	8001cb0 <HAL_ADC_ConfigChannel+0x598>
 8001bbc:	683b      	ldr	r3, [r7, #0]
 8001bbe:	681b      	ldr	r3, [r3, #0]
 8001bc0:	f3c3 0312 	ubfx	r3, r3, #0, #19
 8001bc4:	2b00      	cmp	r3, #0
 8001bc6:	d107      	bne.n	8001bd8 <HAL_ADC_ConfigChannel+0x4c0>
 8001bc8:	683b      	ldr	r3, [r7, #0]
 8001bca:	681b      	ldr	r3, [r3, #0]
 8001bcc:	0e9b      	lsrs	r3, r3, #26
 8001bce:	3301      	adds	r3, #1
 8001bd0:	069b      	lsls	r3, r3, #26
 8001bd2:	f003 42f8 	and.w	r2, r3, #2080374784	; 0x7c000000
 8001bd6:	e015      	b.n	8001c04 <HAL_ADC_ConfigChannel+0x4ec>
 8001bd8:	683b      	ldr	r3, [r7, #0]
 8001bda:	681b      	ldr	r3, [r3, #0]
 8001bdc:	653b      	str	r3, [r7, #80]	; 0x50
 8001bde:	6d3b      	ldr	r3, [r7, #80]	; 0x50
 8001be0:	fa93 f3a3 	rbit	r3, r3
 8001be4:	64fb      	str	r3, [r7, #76]	; 0x4c
 8001be6:	6cfb      	ldr	r3, [r7, #76]	; 0x4c
 8001be8:	657b      	str	r3, [r7, #84]	; 0x54
 8001bea:	6d7b      	ldr	r3, [r7, #84]	; 0x54
 8001bec:	2b00      	cmp	r3, #0
 8001bee:	d101      	bne.n	8001bf4 <HAL_ADC_ConfigChannel+0x4dc>
 8001bf0:	2320      	movs	r3, #32
 8001bf2:	e003      	b.n	8001bfc <HAL_ADC_ConfigChannel+0x4e4>
 8001bf4:	6d7b      	ldr	r3, [r7, #84]	; 0x54
 8001bf6:	fab3 f383 	clz	r3, r3
 8001bfa:	b2db      	uxtb	r3, r3
 8001bfc:	3301      	adds	r3, #1
 8001bfe:	069b      	lsls	r3, r3, #26
 8001c00:	f003 42f8 	and.w	r2, r3, #2080374784	; 0x7c000000
 8001c04:	683b      	ldr	r3, [r7, #0]
 8001c06:	681b      	ldr	r3, [r3, #0]
 8001c08:	f3c3 0312 	ubfx	r3, r3, #0, #19
 8001c0c:	2b00      	cmp	r3, #0
 8001c0e:	d109      	bne.n	8001c24 <HAL_ADC_ConfigChannel+0x50c>
 8001c10:	683b      	ldr	r3, [r7, #0]
 8001c12:	681b      	ldr	r3, [r3, #0]
 8001c14:	0e9b      	lsrs	r3, r3, #26
 8001c16:	3301      	adds	r3, #1
 8001c18:	f003 031f 	and.w	r3, r3, #31
 8001c1c:	2101      	movs	r1, #1
 8001c1e:	fa01 f303 	lsl.w	r3, r1, r3
 8001c22:	e017      	b.n	8001c54 <HAL_ADC_ConfigChannel+0x53c>
 8001c24:	683b      	ldr	r3, [r7, #0]
 8001c26:	681b      	ldr	r3, [r3, #0]
 8001c28:	647b      	str	r3, [r7, #68]	; 0x44
 8001c2a:	6c7b      	ldr	r3, [r7, #68]	; 0x44
 8001c2c:	fa93 f3a3 	rbit	r3, r3
 8001c30:	643b      	str	r3, [r7, #64]	; 0x40
 8001c32:	6c3b      	ldr	r3, [r7, #64]	; 0x40
 8001c34:	64bb      	str	r3, [r7, #72]	; 0x48
 8001c36:	6cbb      	ldr	r3, [r7, #72]	; 0x48
 8001c38:	2b00      	cmp	r3, #0
 8001c3a:	d101      	bne.n	8001c40 <HAL_ADC_ConfigChannel+0x528>
 8001c3c:	2320      	movs	r3, #32
 8001c3e:	e003      	b.n	8001c48 <HAL_ADC_ConfigChannel+0x530>
 8001c40:	6cbb      	ldr	r3, [r7, #72]	; 0x48
 8001c42:	fab3 f383 	clz	r3, r3
 8001c46:	b2db      	uxtb	r3, r3
 8001c48:	3301      	adds	r3, #1
 8001c4a:	f003 031f 	and.w	r3, r3, #31
 8001c4e:	2101      	movs	r1, #1
 8001c50:	fa01 f303 	lsl.w	r3, r1, r3
 8001c54:	ea42 0103 	orr.w	r1, r2, r3
 8001c58:	683b      	ldr	r3, [r7, #0]
 8001c5a:	681b      	ldr	r3, [r3, #0]
 8001c5c:	f3c3 0312 	ubfx	r3, r3, #0, #19
 8001c60:	2b00      	cmp	r3, #0
 8001c62:	d10a      	bne.n	8001c7a <HAL_ADC_ConfigChannel+0x562>
 8001c64:	683b      	ldr	r3, [r7, #0]
 8001c66:	681b      	ldr	r3, [r3, #0]
 8001c68:	0e9b      	lsrs	r3, r3, #26
 8001c6a:	3301      	adds	r3, #1
 8001c6c:	f003 021f 	and.w	r2, r3, #31
 8001c70:	4613      	mov	r3, r2
 8001c72:	005b      	lsls	r3, r3, #1
 8001c74:	4413      	add	r3, r2
 8001c76:	051b      	lsls	r3, r3, #20
 8001c78:	e018      	b.n	8001cac <HAL_ADC_ConfigChannel+0x594>
 8001c7a:	683b      	ldr	r3, [r7, #0]
 8001c7c:	681b      	ldr	r3, [r3, #0]
 8001c7e:	63bb      	str	r3, [r7, #56]	; 0x38
 8001c80:	6bbb      	ldr	r3, [r7, #56]	; 0x38
 8001c82:	fa93 f3a3 	rbit	r3, r3
 8001c86:	637b      	str	r3, [r7, #52]	; 0x34
 8001c88:	6b7b      	ldr	r3, [r7, #52]	; 0x34
 8001c8a:	63fb      	str	r3, [r7, #60]	; 0x3c
 8001c8c:	6bfb      	ldr	r3, [r7, #60]	; 0x3c
 8001c8e:	2b00      	cmp	r3, #0
 8001c90:	d101      	bne.n	8001c96 <HAL_ADC_ConfigChannel+0x57e>
 8001c92:	2320      	movs	r3, #32
 8001c94:	e003      	b.n	8001c9e <HAL_ADC_ConfigChannel+0x586>
 8001c96:	6bfb      	ldr	r3, [r7, #60]	; 0x3c
 8001c98:	fab3 f383 	clz	r3, r3
 8001c9c:	b2db      	uxtb	r3, r3
 8001c9e:	3301      	adds	r3, #1
 8001ca0:	f003 021f 	and.w	r2, r3, #31
 8001ca4:	4613      	mov	r3, r2
 8001ca6:	005b      	lsls	r3, r3, #1
 8001ca8:	4413      	add	r3, r2
 8001caa:	051b      	lsls	r3, r3, #20
 8001cac:	430b      	orrs	r3, r1
 8001cae:	e080      	b.n	8001db2 <HAL_ADC_ConfigChannel+0x69a>
 8001cb0:	683b      	ldr	r3, [r7, #0]
 8001cb2:	681b      	ldr	r3, [r3, #0]
 8001cb4:	f3c3 0312 	ubfx	r3, r3, #0, #19
 8001cb8:	2b00      	cmp	r3, #0
 8001cba:	d107      	bne.n	8001ccc <HAL_ADC_ConfigChannel+0x5b4>
 8001cbc:	683b      	ldr	r3, [r7, #0]
 8001cbe:	681b      	ldr	r3, [r3, #0]
 8001cc0:	0e9b      	lsrs	r3, r3, #26
 8001cc2:	3301      	adds	r3, #1
 8001cc4:	069b      	lsls	r3, r3, #26
 8001cc6:	f003 42f8 	and.w	r2, r3, #2080374784	; 0x7c000000
 8001cca:	e015      	b.n	8001cf8 <HAL_ADC_ConfigChannel+0x5e0>
 8001ccc:	683b      	ldr	r3, [r7, #0]
 8001cce:	681b      	ldr	r3, [r3, #0]
 8001cd0:	62fb      	str	r3, [r7, #44]	; 0x2c
 8001cd2:	6afb      	ldr	r3, [r7, #44]	; 0x2c
 8001cd4:	fa93 f3a3 	rbit	r3, r3
 8001cd8:	62bb      	str	r3, [r7, #40]	; 0x28
 8001cda:	6abb      	ldr	r3, [r7, #40]	; 0x28
 8001cdc:	633b      	str	r3, [r7, #48]	; 0x30
 8001cde:	6b3b      	ldr	r3, [r7, #48]	; 0x30
 8001ce0:	2b00      	cmp	r3, #0
 8001ce2:	d101      	bne.n	8001ce8 <HAL_ADC_ConfigChannel+0x5d0>
 8001ce4:	2320      	movs	r3, #32
 8001ce6:	e003      	b.n	8001cf0 <HAL_ADC_ConfigChannel+0x5d8>
 8001ce8:	6b3b      	ldr	r3, [r7, #48]	; 0x30
 8001cea:	fab3 f383 	clz	r3, r3
 8001cee:	b2db      	uxtb	r3, r3
 8001cf0:	3301      	adds	r3, #1
 8001cf2:	069b      	lsls	r3, r3, #26
 8001cf4:	f003 42f8 	and.w	r2, r3, #2080374784	; 0x7c000000
 8001cf8:	683b      	ldr	r3, [r7, #0]
 8001cfa:	681b      	ldr	r3, [r3, #0]
 8001cfc:	f3c3 0312 	ubfx	r3, r3, #0, #19
 8001d00:	2b00      	cmp	r3, #0
 8001d02:	d109      	bne.n	8001d18 <HAL_ADC_ConfigChannel+0x600>
 8001d04:	683b      	ldr	r3, [r7, #0]
 8001d06:	681b      	ldr	r3, [r3, #0]
 8001d08:	0e9b      	lsrs	r3, r3, #26
 8001d0a:	3301      	adds	r3, #1
 8001d0c:	f003 031f 	and.w	r3, r3, #31
 8001d10:	2101      	movs	r1, #1
 8001d12:	fa01 f303 	lsl.w	r3, r1, r3
 8001d16:	e017      	b.n	8001d48 <HAL_ADC_ConfigChannel+0x630>
 8001d18:	683b      	ldr	r3, [r7, #0]
 8001d1a:	681b      	ldr	r3, [r3, #0]
 8001d1c:	623b      	str	r3, [r7, #32]
 8001d1e:	6a3b      	ldr	r3, [r7, #32]
 8001d20:	fa93 f3a3 	rbit	r3, r3
 8001d24:	61fb      	str	r3, [r7, #28]
 8001d26:	69fb      	ldr	r3, [r7, #28]
 8001d28:	627b      	str	r3, [r7, #36]	; 0x24
 8001d2a:	6a7b      	ldr	r3, [r7, #36]	; 0x24
 8001d2c:	2b00      	cmp	r3, #0
 8001d2e:	d101      	bne.n	8001d34 <HAL_ADC_ConfigChannel+0x61c>
 8001d30:	2320      	movs	r3, #32
 8001d32:	e003      	b.n	8001d3c <HAL_ADC_ConfigChannel+0x624>
 8001d34:	6a7b      	ldr	r3, [r7, #36]	; 0x24
 8001d36:	fab3 f383 	clz	r3, r3
 8001d3a:	b2db      	uxtb	r3, r3
 8001d3c:	3301      	adds	r3, #1
 8001d3e:	f003 031f 	and.w	r3, r3, #31
 8001d42:	2101      	movs	r1, #1
 8001d44:	fa01 f303 	lsl.w	r3, r1, r3
 8001d48:	ea42 0103 	orr.w	r1, r2, r3
 8001d4c:	683b      	ldr	r3, [r7, #0]
 8001d4e:	681b      	ldr	r3, [r3, #0]
 8001d50:	f3c3 0312 	ubfx	r3, r3, #0, #19
 8001d54:	2b00      	cmp	r3, #0
 8001d56:	d10d      	bne.n	8001d74 <HAL_ADC_ConfigChannel+0x65c>
 8001d58:	683b      	ldr	r3, [r7, #0]
 8001d5a:	681b      	ldr	r3, [r3, #0]
 8001d5c:	0e9b      	lsrs	r3, r3, #26
 8001d5e:	3301      	adds	r3, #1
 8001d60:	f003 021f 	and.w	r2, r3, #31
 8001d64:	4613      	mov	r3, r2
 8001d66:	005b      	lsls	r3, r3, #1
 8001d68:	4413      	add	r3, r2
 8001d6a:	3b1e      	subs	r3, #30
 8001d6c:	051b      	lsls	r3, r3, #20
 8001d6e:	f043 7300 	orr.w	r3, r3, #33554432	; 0x2000000
 8001d72:	e01d      	b.n	8001db0 <HAL_ADC_ConfigChannel+0x698>
 8001d74:	683b      	ldr	r3, [r7, #0]
 8001d76:	681b      	ldr	r3, [r3, #0]
 8001d78:	617b      	str	r3, [r7, #20]
 8001d7a:	697b      	ldr	r3, [r7, #20]
 8001d7c:	fa93 f3a3 	rbit	r3, r3
 8001d80:	613b      	str	r3, [r7, #16]
 8001d82:	693b      	ldr	r3, [r7, #16]
 8001d84:	61bb      	str	r3, [r7, #24]
 8001d86:	69bb      	ldr	r3, [r7, #24]
 8001d88:	2b00      	cmp	r3, #0
 8001d8a:	d103      	bne.n	8001d94 <HAL_ADC_ConfigChannel+0x67c>
 8001d8c:	2320      	movs	r3, #32
 8001d8e:	e005      	b.n	8001d9c <HAL_ADC_ConfigChannel+0x684>
 8001d90:	407f0000 	.word	0x407f0000
 8001d94:	69bb      	ldr	r3, [r7, #24]
 8001d96:	fab3 f383 	clz	r3, r3
 8001d9a:	b2db      	uxtb	r3, r3
 8001d9c:	3301      	adds	r3, #1
 8001d9e:	f003 021f 	and.w	r2, r3, #31
 8001da2:	4613      	mov	r3, r2
 8001da4:	005b      	lsls	r3, r3, #1
 8001da6:	4413      	add	r3, r2
 8001da8:	3b1e      	subs	r3, #30
 8001daa:	051b      	lsls	r3, r3, #20
 8001dac:	f043 7300 	orr.w	r3, r3, #33554432	; 0x2000000
 8001db0:	430b      	orrs	r3, r1
 8001db2:	683a      	ldr	r2, [r7, #0]
 8001db4:	6892      	ldr	r2, [r2, #8]
 8001db6:	4619      	mov	r1, r3
 8001db8:	f7ff f970 	bl	800109c <LL_ADC_SetChannelSamplingTime>
 8001dbc:	683b      	ldr	r3, [r7, #0]
 8001dbe:	681a      	ldr	r2, [r3, #0]
 8001dc0:	4b44      	ldr	r3, [pc, #272]	; (8001ed4 <HAL_ADC_ConfigChannel+0x7bc>)
 8001dc2:	4013      	ands	r3, r2
 8001dc4:	2b00      	cmp	r3, #0
 8001dc6:	d07a      	beq.n	8001ebe <HAL_ADC_ConfigChannel+0x7a6>
 8001dc8:	4843      	ldr	r0, [pc, #268]	; (8001ed8 <HAL_ADC_ConfigChannel+0x7c0>)
 8001dca:	f7ff f8c5 	bl	8000f58 <LL_ADC_GetCommonPathInternalCh>
 8001dce:	f8c7 00c4 	str.w	r0, [r7, #196]	; 0xc4
 8001dd2:	683b      	ldr	r3, [r7, #0]
 8001dd4:	681b      	ldr	r3, [r3, #0]
 8001dd6:	4a41      	ldr	r2, [pc, #260]	; (8001edc <HAL_ADC_ConfigChannel+0x7c4>)
 8001dd8:	4293      	cmp	r3, r2
 8001dda:	d12c      	bne.n	8001e36 <HAL_ADC_ConfigChannel+0x71e>
 8001ddc:	f8d7 30c4 	ldr.w	r3, [r7, #196]	; 0xc4
 8001de0:	f403 0300 	and.w	r3, r3, #8388608	; 0x800000
 8001de4:	2b00      	cmp	r3, #0
 8001de6:	d126      	bne.n	8001e36 <HAL_ADC_ConfigChannel+0x71e>
 8001de8:	687b      	ldr	r3, [r7, #4]
 8001dea:	681b      	ldr	r3, [r3, #0]
 8001dec:	4a3c      	ldr	r2, [pc, #240]	; (8001ee0 <HAL_ADC_ConfigChannel+0x7c8>)
 8001dee:	4293      	cmp	r3, r2
 8001df0:	d004      	beq.n	8001dfc <HAL_ADC_ConfigChannel+0x6e4>
 8001df2:	687b      	ldr	r3, [r7, #4]
 8001df4:	681b      	ldr	r3, [r3, #0]
 8001df6:	4a3b      	ldr	r2, [pc, #236]	; (8001ee4 <HAL_ADC_ConfigChannel+0x7cc>)
 8001df8:	4293      	cmp	r3, r2
 8001dfa:	d15d      	bne.n	8001eb8 <HAL_ADC_ConfigChannel+0x7a0>
 8001dfc:	f8d7 30c4 	ldr.w	r3, [r7, #196]	; 0xc4
 8001e00:	f443 0300 	orr.w	r3, r3, #8388608	; 0x800000
 8001e04:	4619      	mov	r1, r3
 8001e06:	4834      	ldr	r0, [pc, #208]	; (8001ed8 <HAL_ADC_ConfigChannel+0x7c0>)
 8001e08:	f7ff f893 	bl	8000f32 <LL_ADC_SetCommonPathInternalCh>
 8001e0c:	4b36      	ldr	r3, [pc, #216]	; (8001ee8 <HAL_ADC_ConfigChannel+0x7d0>)
 8001e0e:	681b      	ldr	r3, [r3, #0]
 8001e10:	099b      	lsrs	r3, r3, #6
 8001e12:	4a36      	ldr	r2, [pc, #216]	; (8001eec <HAL_ADC_ConfigChannel+0x7d4>)
 8001e14:	fba2 2303 	umull	r2, r3, r2, r3
 8001e18:	099b      	lsrs	r3, r3, #6
 8001e1a:	1c5a      	adds	r2, r3, #1
 8001e1c:	4613      	mov	r3, r2
 8001e1e:	005b      	lsls	r3, r3, #1
 8001e20:	4413      	add	r3, r2
 8001e22:	009b      	lsls	r3, r3, #2
 8001e24:	60fb      	str	r3, [r7, #12]
 8001e26:	e002      	b.n	8001e2e <HAL_ADC_ConfigChannel+0x716>
 8001e28:	68fb      	ldr	r3, [r7, #12]
 8001e2a:	3b01      	subs	r3, #1
 8001e2c:	60fb      	str	r3, [r7, #12]
 8001e2e:	68fb      	ldr	r3, [r7, #12]
 8001e30:	2b00      	cmp	r3, #0
 8001e32:	d1f9      	bne.n	8001e28 <HAL_ADC_ConfigChannel+0x710>
 8001e34:	e040      	b.n	8001eb8 <HAL_ADC_ConfigChannel+0x7a0>
 8001e36:	683b      	ldr	r3, [r7, #0]
 8001e38:	681b      	ldr	r3, [r3, #0]
 8001e3a:	4a2d      	ldr	r2, [pc, #180]	; (8001ef0 <HAL_ADC_ConfigChannel+0x7d8>)
 8001e3c:	4293      	cmp	r3, r2
 8001e3e:	d118      	bne.n	8001e72 <HAL_ADC_ConfigChannel+0x75a>
 8001e40:	f8d7 30c4 	ldr.w	r3, [r7, #196]	; 0xc4
 8001e44:	f003 7380 	and.w	r3, r3, #16777216	; 0x1000000
 8001e48:	2b00      	cmp	r3, #0
 8001e4a:	d112      	bne.n	8001e72 <HAL_ADC_ConfigChannel+0x75a>
 8001e4c:	687b      	ldr	r3, [r7, #4]
 8001e4e:	681b      	ldr	r3, [r3, #0]
 8001e50:	4a23      	ldr	r2, [pc, #140]	; (8001ee0 <HAL_ADC_ConfigChannel+0x7c8>)
 8001e52:	4293      	cmp	r3, r2
 8001e54:	d004      	beq.n	8001e60 <HAL_ADC_ConfigChannel+0x748>
 8001e56:	687b      	ldr	r3, [r7, #4]
 8001e58:	681b      	ldr	r3, [r3, #0]
 8001e5a:	4a22      	ldr	r2, [pc, #136]	; (8001ee4 <HAL_ADC_ConfigChannel+0x7cc>)
 8001e5c:	4293      	cmp	r3, r2
 8001e5e:	d12d      	bne.n	8001ebc <HAL_ADC_ConfigChannel+0x7a4>
 8001e60:	f8d7 30c4 	ldr.w	r3, [r7, #196]	; 0xc4
 8001e64:	f043 7380 	orr.w	r3, r3, #16777216	; 0x1000000
 8001e68:	4619      	mov	r1, r3
 8001e6a:	481b      	ldr	r0, [pc, #108]	; (8001ed8 <HAL_ADC_ConfigChannel+0x7c0>)
 8001e6c:	f7ff f861 	bl	8000f32 <LL_ADC_SetCommonPathInternalCh>
 8001e70:	e024      	b.n	8001ebc <HAL_ADC_ConfigChannel+0x7a4>
 8001e72:	683b      	ldr	r3, [r7, #0]
 8001e74:	681b      	ldr	r3, [r3, #0]
 8001e76:	4a1f      	ldr	r2, [pc, #124]	; (8001ef4 <HAL_ADC_ConfigChannel+0x7dc>)
 8001e78:	4293      	cmp	r3, r2
 8001e7a:	d120      	bne.n	8001ebe <HAL_ADC_ConfigChannel+0x7a6>
 8001e7c:	f8d7 30c4 	ldr.w	r3, [r7, #196]	; 0xc4
 8001e80:	f403 0380 	and.w	r3, r3, #4194304	; 0x400000
 8001e84:	2b00      	cmp	r3, #0
 8001e86:	d11a      	bne.n	8001ebe <HAL_ADC_ConfigChannel+0x7a6>
 8001e88:	687b      	ldr	r3, [r7, #4]
 8001e8a:	681b      	ldr	r3, [r3, #0]
 8001e8c:	4a14      	ldr	r2, [pc, #80]	; (8001ee0 <HAL_ADC_ConfigChannel+0x7c8>)
 8001e8e:	4293      	cmp	r3, r2
 8001e90:	d115      	bne.n	8001ebe <HAL_ADC_ConfigChannel+0x7a6>
 8001e92:	f8d7 30c4 	ldr.w	r3, [r7, #196]	; 0xc4
 8001e96:	f443 0380 	orr.w	r3, r3, #4194304	; 0x400000
 8001e9a:	4619      	mov	r1, r3
 8001e9c:	480e      	ldr	r0, [pc, #56]	; (8001ed8 <HAL_ADC_ConfigChannel+0x7c0>)
 8001e9e:	f7ff f848 	bl	8000f32 <LL_ADC_SetCommonPathInternalCh>
 8001ea2:	e00c      	b.n	8001ebe <HAL_ADC_ConfigChannel+0x7a6>
 8001ea4:	687b      	ldr	r3, [r7, #4]
 8001ea6:	6d5b      	ldr	r3, [r3, #84]	; 0x54
 8001ea8:	f043 0220 	orr.w	r2, r3, #32
 8001eac:	687b      	ldr	r3, [r7, #4]
 8001eae:	655a      	str	r2, [r3, #84]	; 0x54
 8001eb0:	2301      	movs	r3, #1
 8001eb2:	f887 30d7 	strb.w	r3, [r7, #215]	; 0xd7
 8001eb6:	e002      	b.n	8001ebe <HAL_ADC_ConfigChannel+0x7a6>
 8001eb8:	bf00      	nop
 8001eba:	e000      	b.n	8001ebe <HAL_ADC_ConfigChannel+0x7a6>
 8001ebc:	bf00      	nop
 8001ebe:	687b      	ldr	r3, [r7, #4]
 8001ec0:	2200      	movs	r2, #0
 8001ec2:	f883 2050 	strb.w	r2, [r3, #80]	; 0x50
 8001ec6:	f897 30d7 	ldrb.w	r3, [r7, #215]	; 0xd7
 8001eca:	4618      	mov	r0, r3
 8001ecc:	37d8      	adds	r7, #216	; 0xd8
 8001ece:	46bd      	mov	sp, r7
 8001ed0:	bd80      	pop	{r7, pc}
 8001ed2:	bf00      	nop
 8001ed4:	80080000 	.word	0x80080000
 8001ed8:	50040300 	.word	0x50040300
 8001edc:	c7520000 	.word	0xc7520000
 8001ee0:	50040000 	.word	0x50040000
 8001ee4:	50040200 	.word	0x50040200
 8001ee8:	20000000 	.word	0x20000000
 8001eec:	053e2d63 	.word	0x053e2d63
 8001ef0:	cb840000 	.word	0xcb840000
 8001ef4:	80000001 	.word	0x80000001

08001ef8 <ADC_Enable>:
 8001ef8:	b580      	push	{r7, lr}
 8001efa:	b084      	sub	sp, #16
 8001efc:	af00      	add	r7, sp, #0
 8001efe:	6078      	str	r0, [r7, #4]
 8001f00:	2300      	movs	r3, #0
 8001f02:	60bb      	str	r3, [r7, #8]
 8001f04:	687b      	ldr	r3, [r7, #4]
 8001f06:	681b      	ldr	r3, [r3, #0]
 8001f08:	4618      	mov	r0, r3
 8001f0a:	f7ff f987 	bl	800121c <LL_ADC_IsEnabled>
 8001f0e:	4603      	mov	r3, r0
 8001f10:	2b00      	cmp	r3, #0
 8001f12:	d169      	bne.n	8001fe8 <ADC_Enable+0xf0>
 8001f14:	687b      	ldr	r3, [r7, #4]
 8001f16:	681b      	ldr	r3, [r3, #0]
 8001f18:	689a      	ldr	r2, [r3, #8]
 8001f1a:	4b36      	ldr	r3, [pc, #216]	; (8001ff4 <ADC_Enable+0xfc>)
 8001f1c:	4013      	ands	r3, r2
 8001f1e:	2b00      	cmp	r3, #0
 8001f20:	d00d      	beq.n	8001f3e <ADC_Enable+0x46>
 8001f22:	687b      	ldr	r3, [r7, #4]
 8001f24:	6d5b      	ldr	r3, [r3, #84]	; 0x54
 8001f26:	f043 0210 	orr.w	r2, r3, #16
 8001f2a:	687b      	ldr	r3, [r7, #4]
 8001f2c:	655a      	str	r2, [r3, #84]	; 0x54
 8001f2e:	687b      	ldr	r3, [r7, #4]
 8001f30:	6d9b      	ldr	r3, [r3, #88]	; 0x58
 8001f32:	f043 0201 	orr.w	r2, r3, #1
 8001f36:	687b      	ldr	r3, [r7, #4]
 8001f38:	659a      	str	r2, [r3, #88]	; 0x58
 8001f3a:	2301      	movs	r3, #1
 8001f3c:	e055      	b.n	8001fea <ADC_Enable+0xf2>
 8001f3e:	687b      	ldr	r3, [r7, #4]
 8001f40:	681b      	ldr	r3, [r3, #0]
 8001f42:	4618      	mov	r0, r3
 8001f44:	f7ff f956 	bl	80011f4 <LL_ADC_Enable>
 8001f48:	482b      	ldr	r0, [pc, #172]	; (8001ff8 <ADC_Enable+0x100>)
 8001f4a:	f7ff f805 	bl	8000f58 <LL_ADC_GetCommonPathInternalCh>
 8001f4e:	4603      	mov	r3, r0
 8001f50:	f403 0300 	and.w	r3, r3, #8388608	; 0x800000
 8001f54:	2b00      	cmp	r3, #0
 8001f56:	d013      	beq.n	8001f80 <ADC_Enable+0x88>
 8001f58:	4b28      	ldr	r3, [pc, #160]	; (8001ffc <ADC_Enable+0x104>)
 8001f5a:	681b      	ldr	r3, [r3, #0]
 8001f5c:	099b      	lsrs	r3, r3, #6
 8001f5e:	4a28      	ldr	r2, [pc, #160]	; (8002000 <ADC_Enable+0x108>)
 8001f60:	fba2 2303 	umull	r2, r3, r2, r3
 8001f64:	099b      	lsrs	r3, r3, #6
 8001f66:	1c5a      	adds	r2, r3, #1
 8001f68:	4613      	mov	r3, r2
 8001f6a:	005b      	lsls	r3, r3, #1
 8001f6c:	4413      	add	r3, r2
 8001f6e:	009b      	lsls	r3, r3, #2
 8001f70:	60bb      	str	r3, [r7, #8]
 8001f72:	e002      	b.n	8001f7a <ADC_Enable+0x82>
 8001f74:	68bb      	ldr	r3, [r7, #8]
 8001f76:	3b01      	subs	r3, #1
 8001f78:	60bb      	str	r3, [r7, #8]
 8001f7a:	68bb      	ldr	r3, [r7, #8]
 8001f7c:	2b00      	cmp	r3, #0
 8001f7e:	d1f9      	bne.n	8001f74 <ADC_Enable+0x7c>
 8001f80:	f7fe ffb8 	bl	8000ef4 <HAL_GetTick>
 8001f84:	60f8      	str	r0, [r7, #12]
 8001f86:	e028      	b.n	8001fda <ADC_Enable+0xe2>
 8001f88:	687b      	ldr	r3, [r7, #4]
 8001f8a:	681b      	ldr	r3, [r3, #0]
 8001f8c:	4618      	mov	r0, r3
 8001f8e:	f7ff f945 	bl	800121c <LL_ADC_IsEnabled>
 8001f92:	4603      	mov	r3, r0
 8001f94:	2b00      	cmp	r3, #0
 8001f96:	d104      	bne.n	8001fa2 <ADC_Enable+0xaa>
 8001f98:	687b      	ldr	r3, [r7, #4]
 8001f9a:	681b      	ldr	r3, [r3, #0]
 8001f9c:	4618      	mov	r0, r3
 8001f9e:	f7ff f929 	bl	80011f4 <LL_ADC_Enable>
 8001fa2:	f7fe ffa7 	bl	8000ef4 <HAL_GetTick>
 8001fa6:	4602      	mov	r2, r0
 8001fa8:	68fb      	ldr	r3, [r7, #12]
 8001faa:	1ad3      	subs	r3, r2, r3
 8001fac:	2b02      	cmp	r3, #2
 8001fae:	d914      	bls.n	8001fda <ADC_Enable+0xe2>
 8001fb0:	687b      	ldr	r3, [r7, #4]
 8001fb2:	681b      	ldr	r3, [r3, #0]
 8001fb4:	681b      	ldr	r3, [r3, #0]
 8001fb6:	f003 0301 	and.w	r3, r3, #1
 8001fba:	2b01      	cmp	r3, #1
 8001fbc:	d00d      	beq.n	8001fda <ADC_Enable+0xe2>
 8001fbe:	687b      	ldr	r3, [r7, #4]
 8001fc0:	6d5b      	ldr	r3, [r3, #84]	; 0x54
 8001fc2:	f043 0210 	orr.w	r2, r3, #16
 8001fc6:	687b      	ldr	r3, [r7, #4]
 8001fc8:	655a      	str	r2, [r3, #84]	; 0x54
 8001fca:	687b      	ldr	r3, [r7, #4]
 8001fcc:	6d9b      	ldr	r3, [r3, #88]	; 0x58
 8001fce:	f043 0201 	orr.w	r2, r3, #1
 8001fd2:	687b      	ldr	r3, [r7, #4]
 8001fd4:	659a      	str	r2, [r3, #88]	; 0x58
 8001fd6:	2301      	movs	r3, #1
 8001fd8:	e007      	b.n	8001fea <ADC_Enable+0xf2>
 8001fda:	687b      	ldr	r3, [r7, #4]
 8001fdc:	681b      	ldr	r3, [r3, #0]
 8001fde:	681b      	ldr	r3, [r3, #0]
 8001fe0:	f003 0301 	and.w	r3, r3, #1
 8001fe4:	2b01      	cmp	r3, #1
 8001fe6:	d1cf      	bne.n	8001f88 <ADC_Enable+0x90>
 8001fe8:	2300      	movs	r3, #0
 8001fea:	4618      	mov	r0, r3
 8001fec:	3710      	adds	r7, #16
 8001fee:	46bd      	mov	sp, r7
 8001ff0:	bd80      	pop	{r7, pc}
 8001ff2:	bf00      	nop
 8001ff4:	8000003f 	.word	0x8000003f
 8001ff8:	50040300 	.word	0x50040300
 8001ffc:	20000000 	.word	0x20000000
 8002000:	053e2d63 	.word	0x053e2d63

08002004 <ADC_DMAConvCplt>:
 8002004:	b580      	push	{r7, lr}
 8002006:	b084      	sub	sp, #16
 8002008:	af00      	add	r7, sp, #0
 800200a:	6078      	str	r0, [r7, #4]
 800200c:	687b      	ldr	r3, [r7, #4]
 800200e:	6a9b      	ldr	r3, [r3, #40]	; 0x28
 8002010:	60fb      	str	r3, [r7, #12]
 8002012:	68fb      	ldr	r3, [r7, #12]
 8002014:	6d5b      	ldr	r3, [r3, #84]	; 0x54
 8002016:	f003 0350 	and.w	r3, r3, #80	; 0x50
 800201a:	2b00      	cmp	r3, #0
 800201c:	d14b      	bne.n	80020b6 <ADC_DMAConvCplt+0xb2>
 800201e:	68fb      	ldr	r3, [r7, #12]
 8002020:	6d5b      	ldr	r3, [r3, #84]	; 0x54
 8002022:	f443 7200 	orr.w	r2, r3, #512	; 0x200
 8002026:	68fb      	ldr	r3, [r7, #12]
 8002028:	655a      	str	r2, [r3, #84]	; 0x54
 800202a:	68fb      	ldr	r3, [r7, #12]
 800202c:	681b      	ldr	r3, [r3, #0]
 800202e:	681b      	ldr	r3, [r3, #0]
 8002030:	f003 0308 	and.w	r3, r3, #8
 8002034:	2b00      	cmp	r3, #0
 8002036:	d021      	beq.n	800207c <ADC_DMAConvCplt+0x78>
 8002038:	68fb      	ldr	r3, [r7, #12]
 800203a:	681b      	ldr	r3, [r3, #0]
 800203c:	4618      	mov	r0, r3
 800203e:	f7fe ffee 	bl	800101e <LL_ADC_REG_IsTriggerSourceSWStart>
 8002042:	4603      	mov	r3, r0
 8002044:	2b00      	cmp	r3, #0
 8002046:	d032      	beq.n	80020ae <ADC_DMAConvCplt+0xaa>
 8002048:	68fb      	ldr	r3, [r7, #12]
 800204a:	681b      	ldr	r3, [r3, #0]
 800204c:	68db      	ldr	r3, [r3, #12]
 800204e:	f403 5300 	and.w	r3, r3, #8192	; 0x2000
 8002052:	2b00      	cmp	r3, #0
 8002054:	d12b      	bne.n	80020ae <ADC_DMAConvCplt+0xaa>
 8002056:	68fb      	ldr	r3, [r7, #12]
 8002058:	6d5b      	ldr	r3, [r3, #84]	; 0x54
 800205a:	f423 7280 	bic.w	r2, r3, #256	; 0x100
 800205e:	68fb      	ldr	r3, [r7, #12]
 8002060:	655a      	str	r2, [r3, #84]	; 0x54
 8002062:	68fb      	ldr	r3, [r7, #12]
 8002064:	6d5b      	ldr	r3, [r3, #84]	; 0x54
 8002066:	f403 5380 	and.w	r3, r3, #4096	; 0x1000
 800206a:	2b00      	cmp	r3, #0
 800206c:	d11f      	bne.n	80020ae <ADC_DMAConvCplt+0xaa>
 800206e:	68fb      	ldr	r3, [r7, #12]
 8002070:	6d5b      	ldr	r3, [r3, #84]	; 0x54
 8002072:	f043 0201 	orr.w	r2, r3, #1
 8002076:	68fb      	ldr	r3, [r7, #12]
 8002078:	655a      	str	r2, [r3, #84]	; 0x54
 800207a:	e018      	b.n	80020ae <ADC_DMAConvCplt+0xaa>
 800207c:	68fb      	ldr	r3, [r7, #12]
 800207e:	681b      	ldr	r3, [r3, #0]
 8002080:	68db      	ldr	r3, [r3, #12]
 8002082:	f003 0302 	and.w	r3, r3, #2
 8002086:	2b00      	cmp	r3, #0
 8002088:	d111      	bne.n	80020ae <ADC_DMAConvCplt+0xaa>
 800208a:	68fb      	ldr	r3, [r7, #12]
 800208c:	6d5b      	ldr	r3, [r3, #84]	; 0x54
 800208e:	f423 7280 	bic.w	r2, r3, #256	; 0x100
 8002092:	68fb      	ldr	r3, [r7, #12]
 8002094:	655a      	str	r2, [r3, #84]	; 0x54
 8002096:	68fb      	ldr	r3, [r7, #12]
 8002098:	6d5b      	ldr	r3, [r3, #84]	; 0x54
 800209a:	f403 5380 	and.w	r3, r3, #4096	; 0x1000
 800209e:	2b00      	cmp	r3, #0
 80020a0:	d105      	bne.n	80020ae <ADC_DMAConvCplt+0xaa>
 80020a2:	68fb      	ldr	r3, [r7, #12]
 80020a4:	6d5b      	ldr	r3, [r3, #84]	; 0x54
 80020a6:	f043 0201 	orr.w	r2, r3, #1
 80020aa:	68fb      	ldr	r3, [r7, #12]
 80020ac:	655a      	str	r2, [r3, #84]	; 0x54
 80020ae:	68f8      	ldr	r0, [r7, #12]
 80020b0:	f7ff fb14 	bl	80016dc <HAL_ADC_ConvCpltCallback>
 80020b4:	e00e      	b.n	80020d4 <ADC_DMAConvCplt+0xd0>
 80020b6:	68fb      	ldr	r3, [r7, #12]
 80020b8:	6d5b      	ldr	r3, [r3, #84]	; 0x54
 80020ba:	f003 0310 	and.w	r3, r3, #16
 80020be:	2b00      	cmp	r3, #0
 80020c0:	d003      	beq.n	80020ca <ADC_DMAConvCplt+0xc6>
 80020c2:	68f8      	ldr	r0, [r7, #12]
 80020c4:	f7ff fb1e 	bl	8001704 <HAL_ADC_ErrorCallback>
 80020c8:	e004      	b.n	80020d4 <ADC_DMAConvCplt+0xd0>
 80020ca:	68fb      	ldr	r3, [r7, #12]
 80020cc:	6cdb      	ldr	r3, [r3, #76]	; 0x4c
 80020ce:	6b5b      	ldr	r3, [r3, #52]	; 0x34
 80020d0:	6878      	ldr	r0, [r7, #4]
 80020d2:	4798      	blx	r3
 80020d4:	bf00      	nop
 80020d6:	3710      	adds	r7, #16
 80020d8:	46bd      	mov	sp, r7
 80020da:	bd80      	pop	{r7, pc}

080020dc <ADC_DMAHalfConvCplt>:
 80020dc:	b580      	push	{r7, lr}
 80020de:	b084      	sub	sp, #16
 80020e0:	af00      	add	r7, sp, #0
 80020e2:	6078      	str	r0, [r7, #4]
 80020e4:	687b      	ldr	r3, [r7, #4]
 80020e6:	6a9b      	ldr	r3, [r3, #40]	; 0x28
 80020e8:	60fb      	str	r3, [r7, #12]
 80020ea:	68f8      	ldr	r0, [r7, #12]
 80020ec:	f7ff fb00 	bl	80016f0 <HAL_ADC_ConvHalfCpltCallback>
 80020f0:	bf00      	nop
 80020f2:	3710      	adds	r7, #16
 80020f4:	46bd      	mov	sp, r7
 80020f6:	bd80      	pop	{r7, pc}

080020f8 <ADC_DMAError>:
 80020f8:	b580      	push	{r7, lr}
 80020fa:	b084      	sub	sp, #16
 80020fc:	af00      	add	r7, sp, #0
 80020fe:	6078      	str	r0, [r7, #4]
 8002100:	687b      	ldr	r3, [r7, #4]
 8002102:	6a9b      	ldr	r3, [r3, #40]	; 0x28
 8002104:	60fb      	str	r3, [r7, #12]
 8002106:	68fb      	ldr	r3, [r7, #12]
 8002108:	6d5b      	ldr	r3, [r3, #84]	; 0x54
 800210a:	f043 0240 	orr.w	r2, r3, #64	; 0x40
 800210e:	68fb      	ldr	r3, [r7, #12]
 8002110:	655a      	str	r2, [r3, #84]	; 0x54
 8002112:	68fb      	ldr	r3, [r7, #12]
 8002114:	6d9b      	ldr	r3, [r3, #88]	; 0x58
 8002116:	f043 0204 	orr.w	r2, r3, #4
 800211a:	68fb      	ldr	r3, [r7, #12]
 800211c:	659a      	str	r2, [r3, #88]	; 0x58
 800211e:	68f8      	ldr	r0, [r7, #12]
 8002120:	f7ff faf0 	bl	8001704 <HAL_ADC_ErrorCallback>
 8002124:	bf00      	nop
 8002126:	3710      	adds	r7, #16
 8002128:	46bd      	mov	sp, r7
 800212a:	bd80      	pop	{r7, pc}

0800212c <LL_ADC_IsEnabled>:
 800212c:	b480      	push	{r7}
 800212e:	b083      	sub	sp, #12
 8002130:	af00      	add	r7, sp, #0
 8002132:	6078      	str	r0, [r7, #4]
 8002134:	687b      	ldr	r3, [r7, #4]
 8002136:	689b      	ldr	r3, [r3, #8]
 8002138:	f003 0301 	and.w	r3, r3, #1
 800213c:	2b01      	cmp	r3, #1
 800213e:	d101      	bne.n	8002144 <LL_ADC_IsEnabled+0x18>
 8002140:	2301      	movs	r3, #1
 8002142:	e000      	b.n	8002146 <LL_ADC_IsEnabled+0x1a>
 8002144:	2300      	movs	r3, #0
 8002146:	4618      	mov	r0, r3
 8002148:	370c      	adds	r7, #12
 800214a:	46bd      	mov	sp, r7
 800214c:	f85d 7b04 	ldr.w	r7, [sp], #4
 8002150:	4770      	bx	lr

08002152 <LL_ADC_REG_IsConversionOngoing>:
 8002152:	b480      	push	{r7}
 8002154:	b083      	sub	sp, #12
 8002156:	af00      	add	r7, sp, #0
 8002158:	6078      	str	r0, [r7, #4]
 800215a:	687b      	ldr	r3, [r7, #4]
 800215c:	689b      	ldr	r3, [r3, #8]
 800215e:	f003 0304 	and.w	r3, r3, #4
 8002162:	2b04      	cmp	r3, #4
 8002164:	d101      	bne.n	800216a <LL_ADC_REG_IsConversionOngoing+0x18>
 8002166:	2301      	movs	r3, #1
 8002168:	e000      	b.n	800216c <LL_ADC_REG_IsConversionOngoing+0x1a>
 800216a:	2300      	movs	r3, #0
 800216c:	4618      	mov	r0, r3
 800216e:	370c      	adds	r7, #12
 8002170:	46bd      	mov	sp, r7
 8002172:	f85d 7b04 	ldr.w	r7, [sp], #4
 8002176:	4770      	bx	lr

08002178 <HAL_ADCEx_MultiModeConfigChannel>:
 8002178:	b590      	push	{r4, r7, lr}
 800217a:	b09f      	sub	sp, #124	; 0x7c
 800217c:	af00      	add	r7, sp, #0
 800217e:	6078      	str	r0, [r7, #4]
 8002180:	6039      	str	r1, [r7, #0]
 8002182:	2300      	movs	r3, #0
 8002184:	f887 3077 	strb.w	r3, [r7, #119]	; 0x77
 8002188:	687b      	ldr	r3, [r7, #4]
 800218a:	f893 3050 	ldrb.w	r3, [r3, #80]	; 0x50
 800218e:	2b01      	cmp	r3, #1
 8002190:	d101      	bne.n	8002196 <HAL_ADCEx_MultiModeConfigChannel+0x1e>
 8002192:	2302      	movs	r3, #2
 8002194:	e093      	b.n	80022be <HAL_ADCEx_MultiModeConfigChannel+0x146>
 8002196:	687b      	ldr	r3, [r7, #4]
 8002198:	2201      	movs	r2, #1
 800219a:	f883 2050 	strb.w	r2, [r3, #80]	; 0x50
 800219e:	2300      	movs	r3, #0
 80021a0:	65fb      	str	r3, [r7, #92]	; 0x5c
 80021a2:	2300      	movs	r3, #0
 80021a4:	663b      	str	r3, [r7, #96]	; 0x60
 80021a6:	687b      	ldr	r3, [r7, #4]
 80021a8:	681b      	ldr	r3, [r3, #0]
 80021aa:	4a47      	ldr	r2, [pc, #284]	; (80022c8 <HAL_ADCEx_MultiModeConfigChannel+0x150>)
 80021ac:	4293      	cmp	r3, r2
 80021ae:	d102      	bne.n	80021b6 <HAL_ADCEx_MultiModeConfigChannel+0x3e>
 80021b0:	4b46      	ldr	r3, [pc, #280]	; (80022cc <HAL_ADCEx_MultiModeConfigChannel+0x154>)
 80021b2:	60bb      	str	r3, [r7, #8]
 80021b4:	e001      	b.n	80021ba <HAL_ADCEx_MultiModeConfigChannel+0x42>
 80021b6:	2300      	movs	r3, #0
 80021b8:	60bb      	str	r3, [r7, #8]
 80021ba:	68bb      	ldr	r3, [r7, #8]
 80021bc:	2b00      	cmp	r3, #0
 80021be:	d10b      	bne.n	80021d8 <HAL_ADCEx_MultiModeConfigChannel+0x60>
 80021c0:	687b      	ldr	r3, [r7, #4]
 80021c2:	6d5b      	ldr	r3, [r3, #84]	; 0x54
 80021c4:	f043 0220 	orr.w	r2, r3, #32
 80021c8:	687b      	ldr	r3, [r7, #4]
 80021ca:	655a      	str	r2, [r3, #84]	; 0x54
 80021cc:	687b      	ldr	r3, [r7, #4]
 80021ce:	2200      	movs	r2, #0
 80021d0:	f883 2050 	strb.w	r2, [r3, #80]	; 0x50
 80021d4:	2301      	movs	r3, #1
 80021d6:	e072      	b.n	80022be <HAL_ADCEx_MultiModeConfigChannel+0x146>
 80021d8:	68bb      	ldr	r3, [r7, #8]
 80021da:	4618      	mov	r0, r3
 80021dc:	f7ff ffb9 	bl	8002152 <LL_ADC_REG_IsConversionOngoing>
 80021e0:	6738      	str	r0, [r7, #112]	; 0x70
 80021e2:	687b      	ldr	r3, [r7, #4]
 80021e4:	681b      	ldr	r3, [r3, #0]
 80021e6:	4618      	mov	r0, r3
 80021e8:	f7ff ffb3 	bl	8002152 <LL_ADC_REG_IsConversionOngoing>
 80021ec:	4603      	mov	r3, r0
 80021ee:	2b00      	cmp	r3, #0
 80021f0:	d154      	bne.n	800229c <HAL_ADCEx_MultiModeConfigChannel+0x124>
 80021f2:	6f3b      	ldr	r3, [r7, #112]	; 0x70
 80021f4:	2b00      	cmp	r3, #0
 80021f6:	d151      	bne.n	800229c <HAL_ADCEx_MultiModeConfigChannel+0x124>
 80021f8:	4b35      	ldr	r3, [pc, #212]	; (80022d0 <HAL_ADCEx_MultiModeConfigChannel+0x158>)
 80021fa:	66fb      	str	r3, [r7, #108]	; 0x6c
 80021fc:	683b      	ldr	r3, [r7, #0]
 80021fe:	681b      	ldr	r3, [r3, #0]
 8002200:	2b00      	cmp	r3, #0
 8002202:	d02c      	beq.n	800225e <HAL_ADCEx_MultiModeConfigChannel+0xe6>
 8002204:	6efb      	ldr	r3, [r7, #108]	; 0x6c
 8002206:	689b      	ldr	r3, [r3, #8]
 8002208:	f423 4260 	bic.w	r2, r3, #57344	; 0xe000
 800220c:	683b      	ldr	r3, [r7, #0]
 800220e:	6859      	ldr	r1, [r3, #4]
 8002210:	687b      	ldr	r3, [r7, #4]
 8002212:	f893 3030 	ldrb.w	r3, [r3, #48]	; 0x30
 8002216:	035b      	lsls	r3, r3, #13
 8002218:	430b      	orrs	r3, r1
 800221a:	431a      	orrs	r2, r3
 800221c:	6efb      	ldr	r3, [r7, #108]	; 0x6c
 800221e:	609a      	str	r2, [r3, #8]
 8002220:	4829      	ldr	r0, [pc, #164]	; (80022c8 <HAL_ADCEx_MultiModeConfigChannel+0x150>)
 8002222:	f7ff ff83 	bl	800212c <LL_ADC_IsEnabled>
 8002226:	4604      	mov	r4, r0
 8002228:	4828      	ldr	r0, [pc, #160]	; (80022cc <HAL_ADCEx_MultiModeConfigChannel+0x154>)
 800222a:	f7ff ff7f 	bl	800212c <LL_ADC_IsEnabled>
 800222e:	4603      	mov	r3, r0
 8002230:	431c      	orrs	r4, r3
 8002232:	4828      	ldr	r0, [pc, #160]	; (80022d4 <HAL_ADCEx_MultiModeConfigChannel+0x15c>)
 8002234:	f7ff ff7a 	bl	800212c <LL_ADC_IsEnabled>
 8002238:	4603      	mov	r3, r0
 800223a:	4323      	orrs	r3, r4
 800223c:	2b00      	cmp	r3, #0
 800223e:	d137      	bne.n	80022b0 <HAL_ADCEx_MultiModeConfigChannel+0x138>
 8002240:	6efb      	ldr	r3, [r7, #108]	; 0x6c
 8002242:	689b      	ldr	r3, [r3, #8]
 8002244:	f423 6371 	bic.w	r3, r3, #3856	; 0xf10
 8002248:	f023 030f 	bic.w	r3, r3, #15
 800224c:	683a      	ldr	r2, [r7, #0]
 800224e:	6811      	ldr	r1, [r2, #0]
 8002250:	683a      	ldr	r2, [r7, #0]
 8002252:	6892      	ldr	r2, [r2, #8]
 8002254:	430a      	orrs	r2, r1
 8002256:	431a      	orrs	r2, r3
 8002258:	6efb      	ldr	r3, [r7, #108]	; 0x6c
 800225a:	609a      	str	r2, [r3, #8]
 800225c:	e028      	b.n	80022b0 <HAL_ADCEx_MultiModeConfigChannel+0x138>
 800225e:	6efb      	ldr	r3, [r7, #108]	; 0x6c
 8002260:	689b      	ldr	r3, [r3, #8]
 8002262:	f423 4260 	bic.w	r2, r3, #57344	; 0xe000
 8002266:	6efb      	ldr	r3, [r7, #108]	; 0x6c
 8002268:	609a      	str	r2, [r3, #8]
 800226a:	4817      	ldr	r0, [pc, #92]	; (80022c8 <HAL_ADCEx_MultiModeConfigChannel+0x150>)
 800226c:	f7ff ff5e 	bl	800212c <LL_ADC_IsEnabled>
 8002270:	4604      	mov	r4, r0
 8002272:	4816      	ldr	r0, [pc, #88]	; (80022cc <HAL_ADCEx_MultiModeConfigChannel+0x154>)
 8002274:	f7ff ff5a 	bl	800212c <LL_ADC_IsEnabled>
 8002278:	4603      	mov	r3, r0
 800227a:	431c      	orrs	r4, r3
 800227c:	4815      	ldr	r0, [pc, #84]	; (80022d4 <HAL_ADCEx_MultiModeConfigChannel+0x15c>)
 800227e:	f7ff ff55 	bl	800212c <LL_ADC_IsEnabled>
 8002282:	4603      	mov	r3, r0
 8002284:	4323      	orrs	r3, r4
 8002286:	2b00      	cmp	r3, #0
 8002288:	d112      	bne.n	80022b0 <HAL_ADCEx_MultiModeConfigChannel+0x138>
 800228a:	6efb      	ldr	r3, [r7, #108]	; 0x6c
 800228c:	689b      	ldr	r3, [r3, #8]
 800228e:	f423 6371 	bic.w	r3, r3, #3856	; 0xf10
 8002292:	f023 030f 	bic.w	r3, r3, #15
 8002296:	6efa      	ldr	r2, [r7, #108]	; 0x6c
 8002298:	6093      	str	r3, [r2, #8]
 800229a:	e009      	b.n	80022b0 <HAL_ADCEx_MultiModeConfigChannel+0x138>
 800229c:	687b      	ldr	r3, [r7, #4]
 800229e:	6d5b      	ldr	r3, [r3, #84]	; 0x54
 80022a0:	f043 0220 	orr.w	r2, r3, #32
 80022a4:	687b      	ldr	r3, [r7, #4]
 80022a6:	655a      	str	r2, [r3, #84]	; 0x54
 80022a8:	2301      	movs	r3, #1
 80022aa:	f887 3077 	strb.w	r3, [r7, #119]	; 0x77
 80022ae:	e000      	b.n	80022b2 <HAL_ADCEx_MultiModeConfigChannel+0x13a>
 80022b0:	bf00      	nop
 80022b2:	687b      	ldr	r3, [r7, #4]
 80022b4:	2200      	movs	r2, #0
 80022b6:	f883 2050 	strb.w	r2, [r3, #80]	; 0x50
 80022ba:	f897 3077 	ldrb.w	r3, [r7, #119]	; 0x77
 80022be:	4618      	mov	r0, r3
 80022c0:	377c      	adds	r7, #124	; 0x7c
 80022c2:	46bd      	mov	sp, r7
 80022c4:	bd90      	pop	{r4, r7, pc}
 80022c6:	bf00      	nop
 80022c8:	50040000 	.word	0x50040000
 80022cc:	50040100 	.word	0x50040100
 80022d0:	50040300 	.word	0x50040300
 80022d4:	50040200 	.word	0x50040200

080022d8 <__NVIC_SetPriorityGrouping>:
 80022d8:	b480      	push	{r7}
 80022da:	b085      	sub	sp, #20
 80022dc:	af00      	add	r7, sp, #0
 80022de:	6078      	str	r0, [r7, #4]
 80022e0:	687b      	ldr	r3, [r7, #4]
 80022e2:	f003 0307 	and.w	r3, r3, #7
 80022e6:	60fb      	str	r3, [r7, #12]
 80022e8:	4b0c      	ldr	r3, [pc, #48]	; (800231c <__NVIC_SetPriorityGrouping+0x44>)
 80022ea:	68db      	ldr	r3, [r3, #12]
 80022ec:	60bb      	str	r3, [r7, #8]
 80022ee:	68ba      	ldr	r2, [r7, #8]
 80022f0:	f64f 03ff 	movw	r3, #63743	; 0xf8ff
 80022f4:	4013      	ands	r3, r2
 80022f6:	60bb      	str	r3, [r7, #8]
 80022f8:	68fb      	ldr	r3, [r7, #12]
 80022fa:	021a      	lsls	r2, r3, #8
 80022fc:	68bb      	ldr	r3, [r7, #8]
 80022fe:	4313      	orrs	r3, r2
 8002300:	f043 63bf 	orr.w	r3, r3, #100139008	; 0x5f80000
 8002304:	f443 3300 	orr.w	r3, r3, #131072	; 0x20000
 8002308:	60bb      	str	r3, [r7, #8]
 800230a:	4a04      	ldr	r2, [pc, #16]	; (800231c <__NVIC_SetPriorityGrouping+0x44>)
 800230c:	68bb      	ldr	r3, [r7, #8]
 800230e:	60d3      	str	r3, [r2, #12]
 8002310:	bf00      	nop
 8002312:	3714      	adds	r7, #20
 8002314:	46bd      	mov	sp, r7
 8002316:	f85d 7b04 	ldr.w	r7, [sp], #4
 800231a:	4770      	bx	lr
 800231c:	e000ed00 	.word	0xe000ed00

08002320 <__NVIC_GetPriorityGrouping>:
 8002320:	b480      	push	{r7}
 8002322:	af00      	add	r7, sp, #0
 8002324:	4b04      	ldr	r3, [pc, #16]	; (8002338 <__NVIC_GetPriorityGrouping+0x18>)
 8002326:	68db      	ldr	r3, [r3, #12]
 8002328:	0a1b      	lsrs	r3, r3, #8
 800232a:	f003 0307 	and.w	r3, r3, #7
 800232e:	4618      	mov	r0, r3
 8002330:	46bd      	mov	sp, r7
 8002332:	f85d 7b04 	ldr.w	r7, [sp], #4
 8002336:	4770      	bx	lr
 8002338:	e000ed00 	.word	0xe000ed00

0800233c <__NVIC_EnableIRQ>:
 800233c:	b480      	push	{r7}
 800233e:	b083      	sub	sp, #12
 8002340:	af00      	add	r7, sp, #0
 8002342:	4603      	mov	r3, r0
 8002344:	71fb      	strb	r3, [r7, #7]
 8002346:	f997 3007 	ldrsb.w	r3, [r7, #7]
 800234a:	2b00      	cmp	r3, #0
 800234c:	db0b      	blt.n	8002366 <__NVIC_EnableIRQ+0x2a>
 800234e:	79fb      	ldrb	r3, [r7, #7]
 8002350:	f003 021f 	and.w	r2, r3, #31
 8002354:	4907      	ldr	r1, [pc, #28]	; (8002374 <__NVIC_EnableIRQ+0x38>)
 8002356:	f997 3007 	ldrsb.w	r3, [r7, #7]
 800235a:	095b      	lsrs	r3, r3, #5
 800235c:	2001      	movs	r0, #1
 800235e:	fa00 f202 	lsl.w	r2, r0, r2
 8002362:	f841 2023 	str.w	r2, [r1, r3, lsl #2]
 8002366:	bf00      	nop
 8002368:	370c      	adds	r7, #12
 800236a:	46bd      	mov	sp, r7
 800236c:	f85d 7b04 	ldr.w	r7, [sp], #4
 8002370:	4770      	bx	lr
 8002372:	bf00      	nop
 8002374:	e000e100 	.word	0xe000e100

08002378 <__NVIC_SetPriority>:
 8002378:	b480      	push	{r7}
 800237a:	b083      	sub	sp, #12
 800237c:	af00      	add	r7, sp, #0
 800237e:	4603      	mov	r3, r0
 8002380:	6039      	str	r1, [r7, #0]
 8002382:	71fb      	strb	r3, [r7, #7]
 8002384:	f997 3007 	ldrsb.w	r3, [r7, #7]
 8002388:	2b00      	cmp	r3, #0
 800238a:	db0a      	blt.n	80023a2 <__NVIC_SetPriority+0x2a>
 800238c:	683b      	ldr	r3, [r7, #0]
 800238e:	b2da      	uxtb	r2, r3
 8002390:	490c      	ldr	r1, [pc, #48]	; (80023c4 <__NVIC_SetPriority+0x4c>)
 8002392:	f997 3007 	ldrsb.w	r3, [r7, #7]
 8002396:	0112      	lsls	r2, r2, #4
 8002398:	b2d2      	uxtb	r2, r2
 800239a:	440b      	add	r3, r1
 800239c:	f883 2300 	strb.w	r2, [r3, #768]	; 0x300
 80023a0:	e00a      	b.n	80023b8 <__NVIC_SetPriority+0x40>
 80023a2:	683b      	ldr	r3, [r7, #0]
 80023a4:	b2da      	uxtb	r2, r3
 80023a6:	4908      	ldr	r1, [pc, #32]	; (80023c8 <__NVIC_SetPriority+0x50>)
 80023a8:	79fb      	ldrb	r3, [r7, #7]
 80023aa:	f003 030f 	and.w	r3, r3, #15
 80023ae:	3b04      	subs	r3, #4
 80023b0:	0112      	lsls	r2, r2, #4
 80023b2:	b2d2      	uxtb	r2, r2
 80023b4:	440b      	add	r3, r1
 80023b6:	761a      	strb	r2, [r3, #24]
 80023b8:	bf00      	nop
 80023ba:	370c      	adds	r7, #12
 80023bc:	46bd      	mov	sp, r7
 80023be:	f85d 7b04 	ldr.w	r7, [sp], #4
 80023c2:	4770      	bx	lr
 80023c4:	e000e100 	.word	0xe000e100
 80023c8:	e000ed00 	.word	0xe000ed00

080023cc <NVIC_EncodePriority>:
 80023cc:	b480      	push	{r7}
 80023ce:	b089      	sub	sp, #36	; 0x24
 80023d0:	af00      	add	r7, sp, #0
 80023d2:	60f8      	str	r0, [r7, #12]
 80023d4:	60b9      	str	r1, [r7, #8]
 80023d6:	607a      	str	r2, [r7, #4]
 80023d8:	68fb      	ldr	r3, [r7, #12]
 80023da:	f003 0307 	and.w	r3, r3, #7
 80023de:	61fb      	str	r3, [r7, #28]
 80023e0:	69fb      	ldr	r3, [r7, #28]
 80023e2:	f1c3 0307 	rsb	r3, r3, #7
 80023e6:	2b04      	cmp	r3, #4
 80023e8:	bf28      	it	cs
 80023ea:	2304      	movcs	r3, #4
 80023ec:	61bb      	str	r3, [r7, #24]
 80023ee:	69fb      	ldr	r3, [r7, #28]
 80023f0:	3304      	adds	r3, #4
 80023f2:	2b06      	cmp	r3, #6
 80023f4:	d902      	bls.n	80023fc <NVIC_EncodePriority+0x30>
 80023f6:	69fb      	ldr	r3, [r7, #28]
 80023f8:	3b03      	subs	r3, #3
 80023fa:	e000      	b.n	80023fe <NVIC_EncodePriority+0x32>
 80023fc:	2300      	movs	r3, #0
 80023fe:	617b      	str	r3, [r7, #20]
 8002400:	f04f 32ff 	mov.w	r2, #4294967295
 8002404:	69bb      	ldr	r3, [r7, #24]
 8002406:	fa02 f303 	lsl.w	r3, r2, r3
 800240a:	43da      	mvns	r2, r3
 800240c:	68bb      	ldr	r3, [r7, #8]
 800240e:	401a      	ands	r2, r3
 8002410:	697b      	ldr	r3, [r7, #20]
 8002412:	409a      	lsls	r2, r3
 8002414:	f04f 31ff 	mov.w	r1, #4294967295
 8002418:	697b      	ldr	r3, [r7, #20]
 800241a:	fa01 f303 	lsl.w	r3, r1, r3
 800241e:	43d9      	mvns	r1, r3
 8002420:	687b      	ldr	r3, [r7, #4]
 8002422:	400b      	ands	r3, r1
 8002424:	4313      	orrs	r3, r2
 8002426:	4618      	mov	r0, r3
 8002428:	3724      	adds	r7, #36	; 0x24
 800242a:	46bd      	mov	sp, r7
 800242c:	f85d 7b04 	ldr.w	r7, [sp], #4
 8002430:	4770      	bx	lr

08002432 <HAL_NVIC_SetPriorityGrouping>:
 8002432:	b580      	push	{r7, lr}
 8002434:	b082      	sub	sp, #8
 8002436:	af00      	add	r7, sp, #0
 8002438:	6078      	str	r0, [r7, #4]
 800243a:	6878      	ldr	r0, [r7, #4]
 800243c:	f7ff ff4c 	bl	80022d8 <__NVIC_SetPriorityGrouping>
 8002440:	bf00      	nop
 8002442:	3708      	adds	r7, #8
 8002444:	46bd      	mov	sp, r7
 8002446:	bd80      	pop	{r7, pc}

08002448 <HAL_NVIC_SetPriority>:
 8002448:	b580      	push	{r7, lr}
 800244a:	b086      	sub	sp, #24
 800244c:	af00      	add	r7, sp, #0
 800244e:	4603      	mov	r3, r0
 8002450:	60b9      	str	r1, [r7, #8]
 8002452:	607a      	str	r2, [r7, #4]
 8002454:	73fb      	strb	r3, [r7, #15]
 8002456:	2300      	movs	r3, #0
 8002458:	617b      	str	r3, [r7, #20]
 800245a:	f7ff ff61 	bl	8002320 <__NVIC_GetPriorityGrouping>
 800245e:	6178      	str	r0, [r7, #20]
 8002460:	687a      	ldr	r2, [r7, #4]
 8002462:	68b9      	ldr	r1, [r7, #8]
 8002464:	6978      	ldr	r0, [r7, #20]
 8002466:	f7ff ffb1 	bl	80023cc <NVIC_EncodePriority>
 800246a:	4602      	mov	r2, r0
 800246c:	f997 300f 	ldrsb.w	r3, [r7, #15]
 8002470:	4611      	mov	r1, r2
 8002472:	4618      	mov	r0, r3
 8002474:	f7ff ff80 	bl	8002378 <__NVIC_SetPriority>
 8002478:	bf00      	nop
 800247a:	3718      	adds	r7, #24
 800247c:	46bd      	mov	sp, r7
 800247e:	bd80      	pop	{r7, pc}

08002480 <HAL_NVIC_EnableIRQ>:
 8002480:	b580      	push	{r7, lr}
 8002482:	b082      	sub	sp, #8
 8002484:	af00      	add	r7, sp, #0
 8002486:	4603      	mov	r3, r0
 8002488:	71fb      	strb	r3, [r7, #7]
 800248a:	f997 3007 	ldrsb.w	r3, [r7, #7]
 800248e:	4618      	mov	r0, r3
 8002490:	f7ff ff54 	bl	800233c <__NVIC_EnableIRQ>
 8002494:	bf00      	nop
 8002496:	3708      	adds	r7, #8
 8002498:	46bd      	mov	sp, r7
 800249a:	bd80      	pop	{r7, pc}

0800249c <HAL_DMA_Init>:
 800249c:	b480      	push	{r7}
 800249e:	b085      	sub	sp, #20
 80024a0:	af00      	add	r7, sp, #0
 80024a2:	6078      	str	r0, [r7, #4]
 80024a4:	687b      	ldr	r3, [r7, #4]
 80024a6:	2b00      	cmp	r3, #0
 80024a8:	d101      	bne.n	80024ae <HAL_DMA_Init+0x12>
 80024aa:	2301      	movs	r3, #1
 80024ac:	e098      	b.n	80025e0 <HAL_DMA_Init+0x144>
 80024ae:	687b      	ldr	r3, [r7, #4]
 80024b0:	681b      	ldr	r3, [r3, #0]
 80024b2:	461a      	mov	r2, r3
 80024b4:	4b4d      	ldr	r3, [pc, #308]	; (80025ec <HAL_DMA_Init+0x150>)
 80024b6:	429a      	cmp	r2, r3
 80024b8:	d80f      	bhi.n	80024da <HAL_DMA_Init+0x3e>
 80024ba:	687b      	ldr	r3, [r7, #4]
 80024bc:	681b      	ldr	r3, [r3, #0]
 80024be:	461a      	mov	r2, r3
 80024c0:	4b4b      	ldr	r3, [pc, #300]	; (80025f0 <HAL_DMA_Init+0x154>)
 80024c2:	4413      	add	r3, r2
 80024c4:	4a4b      	ldr	r2, [pc, #300]	; (80025f4 <HAL_DMA_Init+0x158>)
 80024c6:	fba2 2303 	umull	r2, r3, r2, r3
 80024ca:	091b      	lsrs	r3, r3, #4
 80024cc:	009a      	lsls	r2, r3, #2
 80024ce:	687b      	ldr	r3, [r7, #4]
 80024d0:	645a      	str	r2, [r3, #68]	; 0x44
 80024d2:	687b      	ldr	r3, [r7, #4]
 80024d4:	4a48      	ldr	r2, [pc, #288]	; (80025f8 <HAL_DMA_Init+0x15c>)
 80024d6:	641a      	str	r2, [r3, #64]	; 0x40
 80024d8:	e00e      	b.n	80024f8 <HAL_DMA_Init+0x5c>
 80024da:	687b      	ldr	r3, [r7, #4]
 80024dc:	681b      	ldr	r3, [r3, #0]
 80024de:	461a      	mov	r2, r3
 80024e0:	4b46      	ldr	r3, [pc, #280]	; (80025fc <HAL_DMA_Init+0x160>)
 80024e2:	4413      	add	r3, r2
 80024e4:	4a43      	ldr	r2, [pc, #268]	; (80025f4 <HAL_DMA_Init+0x158>)
 80024e6:	fba2 2303 	umull	r2, r3, r2, r3
 80024ea:	091b      	lsrs	r3, r3, #4
 80024ec:	009a      	lsls	r2, r3, #2
 80024ee:	687b      	ldr	r3, [r7, #4]
 80024f0:	645a      	str	r2, [r3, #68]	; 0x44
 80024f2:	687b      	ldr	r3, [r7, #4]
 80024f4:	4a42      	ldr	r2, [pc, #264]	; (8002600 <HAL_DMA_Init+0x164>)
 80024f6:	641a      	str	r2, [r3, #64]	; 0x40
 80024f8:	687b      	ldr	r3, [r7, #4]
 80024fa:	2202      	movs	r2, #2
 80024fc:	f883 2025 	strb.w	r2, [r3, #37]	; 0x25
 8002500:	687b      	ldr	r3, [r7, #4]
 8002502:	681b      	ldr	r3, [r3, #0]
 8002504:	681b      	ldr	r3, [r3, #0]
 8002506:	60fb      	str	r3, [r7, #12]
 8002508:	68fb      	ldr	r3, [r7, #12]
 800250a:	f423 43ff 	bic.w	r3, r3, #32640	; 0x7f80
 800250e:	f023 0370 	bic.w	r3, r3, #112	; 0x70
 8002512:	60fb      	str	r3, [r7, #12]
 8002514:	687b      	ldr	r3, [r7, #4]
 8002516:	689a      	ldr	r2, [r3, #8]
 8002518:	687b      	ldr	r3, [r7, #4]
 800251a:	68db      	ldr	r3, [r3, #12]
 800251c:	431a      	orrs	r2, r3
 800251e:	687b      	ldr	r3, [r7, #4]
 8002520:	691b      	ldr	r3, [r3, #16]
 8002522:	431a      	orrs	r2, r3
 8002524:	687b      	ldr	r3, [r7, #4]
 8002526:	695b      	ldr	r3, [r3, #20]
 8002528:	431a      	orrs	r2, r3
 800252a:	687b      	ldr	r3, [r7, #4]
 800252c:	699b      	ldr	r3, [r3, #24]
 800252e:	431a      	orrs	r2, r3
 8002530:	687b      	ldr	r3, [r7, #4]
 8002532:	69db      	ldr	r3, [r3, #28]
 8002534:	431a      	orrs	r2, r3
 8002536:	687b      	ldr	r3, [r7, #4]
 8002538:	6a1b      	ldr	r3, [r3, #32]
 800253a:	4313      	orrs	r3, r2
 800253c:	68fa      	ldr	r2, [r7, #12]
 800253e:	4313      	orrs	r3, r2
 8002540:	60fb      	str	r3, [r7, #12]
 8002542:	687b      	ldr	r3, [r7, #4]
 8002544:	681b      	ldr	r3, [r3, #0]
 8002546:	68fa      	ldr	r2, [r7, #12]
 8002548:	601a      	str	r2, [r3, #0]
 800254a:	687b      	ldr	r3, [r7, #4]
 800254c:	689b      	ldr	r3, [r3, #8]
 800254e:	f5b3 4f80 	cmp.w	r3, #16384	; 0x4000
 8002552:	d039      	beq.n	80025c8 <HAL_DMA_Init+0x12c>
 8002554:	687b      	ldr	r3, [r7, #4]
 8002556:	6c1b      	ldr	r3, [r3, #64]	; 0x40
 8002558:	4a27      	ldr	r2, [pc, #156]	; (80025f8 <HAL_DMA_Init+0x15c>)
 800255a:	4293      	cmp	r3, r2
 800255c:	d11a      	bne.n	8002594 <HAL_DMA_Init+0xf8>
 800255e:	4b29      	ldr	r3, [pc, #164]	; (8002604 <HAL_DMA_Init+0x168>)
 8002560:	681a      	ldr	r2, [r3, #0]
 8002562:	687b      	ldr	r3, [r7, #4]
 8002564:	6c5b      	ldr	r3, [r3, #68]	; 0x44
 8002566:	f003 031c 	and.w	r3, r3, #28
 800256a:	210f      	movs	r1, #15
 800256c:	fa01 f303 	lsl.w	r3, r1, r3
 8002570:	43db      	mvns	r3, r3
 8002572:	4924      	ldr	r1, [pc, #144]	; (8002604 <HAL_DMA_Init+0x168>)
 8002574:	4013      	ands	r3, r2
 8002576:	600b      	str	r3, [r1, #0]
 8002578:	4b22      	ldr	r3, [pc, #136]	; (8002604 <HAL_DMA_Init+0x168>)
 800257a:	681a      	ldr	r2, [r3, #0]
 800257c:	687b      	ldr	r3, [r7, #4]
 800257e:	6859      	ldr	r1, [r3, #4]
 8002580:	687b      	ldr	r3, [r7, #4]
 8002582:	6c5b      	ldr	r3, [r3, #68]	; 0x44
 8002584:	f003 031c 	and.w	r3, r3, #28
 8002588:	fa01 f303 	lsl.w	r3, r1, r3
 800258c:	491d      	ldr	r1, [pc, #116]	; (8002604 <HAL_DMA_Init+0x168>)
 800258e:	4313      	orrs	r3, r2
 8002590:	600b      	str	r3, [r1, #0]
 8002592:	e019      	b.n	80025c8 <HAL_DMA_Init+0x12c>
 8002594:	4b1c      	ldr	r3, [pc, #112]	; (8002608 <HAL_DMA_Init+0x16c>)
 8002596:	681a      	ldr	r2, [r3, #0]
 8002598:	687b      	ldr	r3, [r7, #4]
 800259a:	6c5b      	ldr	r3, [r3, #68]	; 0x44
 800259c:	f003 031c 	and.w	r3, r3, #28
 80025a0:	210f      	movs	r1, #15
 80025a2:	fa01 f303 	lsl.w	r3, r1, r3
 80025a6:	43db      	mvns	r3, r3
 80025a8:	4917      	ldr	r1, [pc, #92]	; (8002608 <HAL_DMA_Init+0x16c>)
 80025aa:	4013      	ands	r3, r2
 80025ac:	600b      	str	r3, [r1, #0]
 80025ae:	4b16      	ldr	r3, [pc, #88]	; (8002608 <HAL_DMA_Init+0x16c>)
 80025b0:	681a      	ldr	r2, [r3, #0]
 80025b2:	687b      	ldr	r3, [r7, #4]
 80025b4:	6859      	ldr	r1, [r3, #4]
 80025b6:	687b      	ldr	r3, [r7, #4]
 80025b8:	6c5b      	ldr	r3, [r3, #68]	; 0x44
 80025ba:	f003 031c 	and.w	r3, r3, #28
 80025be:	fa01 f303 	lsl.w	r3, r1, r3
 80025c2:	4911      	ldr	r1, [pc, #68]	; (8002608 <HAL_DMA_Init+0x16c>)
 80025c4:	4313      	orrs	r3, r2
 80025c6:	600b      	str	r3, [r1, #0]
 80025c8:	687b      	ldr	r3, [r7, #4]
 80025ca:	2200      	movs	r2, #0
 80025cc:	63da      	str	r2, [r3, #60]	; 0x3c
 80025ce:	687b      	ldr	r3, [r7, #4]
 80025d0:	2201      	movs	r2, #1
 80025d2:	f883 2025 	strb.w	r2, [r3, #37]	; 0x25
 80025d6:	687b      	ldr	r3, [r7, #4]
 80025d8:	2200      	movs	r2, #0
 80025da:	f883 2024 	strb.w	r2, [r3, #36]	; 0x24
 80025de:	2300      	movs	r3, #0
 80025e0:	4618      	mov	r0, r3
 80025e2:	3714      	adds	r7, #20
 80025e4:	46bd      	mov	sp, r7
 80025e6:	f85d 7b04 	ldr.w	r7, [sp], #4
 80025ea:	4770      	bx	lr
 80025ec:	40020407 	.word	0x40020407
 80025f0:	bffdfff8 	.word	0xbffdfff8
 80025f4:	cccccccd 	.word	0xcccccccd
 80025f8:	40020000 	.word	0x40020000
 80025fc:	bffdfbf8 	.word	0xbffdfbf8
 8002600:	40020400 	.word	0x40020400
 8002604:	400200a8 	.word	0x400200a8
 8002608:	400204a8 	.word	0x400204a8

0800260c <HAL_DMA_Start_IT>:
 800260c:	b580      	push	{r7, lr}
 800260e:	b086      	sub	sp, #24
 8002610:	af00      	add	r7, sp, #0
 8002612:	60f8      	str	r0, [r7, #12]
 8002614:	60b9      	str	r1, [r7, #8]
 8002616:	607a      	str	r2, [r7, #4]
 8002618:	603b      	str	r3, [r7, #0]
 800261a:	2300      	movs	r3, #0
 800261c:	75fb      	strb	r3, [r7, #23]
 800261e:	68fb      	ldr	r3, [r7, #12]
 8002620:	f893 3024 	ldrb.w	r3, [r3, #36]	; 0x24
 8002624:	2b01      	cmp	r3, #1
 8002626:	d101      	bne.n	800262c <HAL_DMA_Start_IT+0x20>
 8002628:	2302      	movs	r3, #2
 800262a:	e04b      	b.n	80026c4 <HAL_DMA_Start_IT+0xb8>
 800262c:	68fb      	ldr	r3, [r7, #12]
 800262e:	2201      	movs	r2, #1
 8002630:	f883 2024 	strb.w	r2, [r3, #36]	; 0x24
 8002634:	68fb      	ldr	r3, [r7, #12]
 8002636:	f893 3025 	ldrb.w	r3, [r3, #37]	; 0x25
 800263a:	b2db      	uxtb	r3, r3
 800263c:	2b01      	cmp	r3, #1
 800263e:	d13a      	bne.n	80026b6 <HAL_DMA_Start_IT+0xaa>
 8002640:	68fb      	ldr	r3, [r7, #12]
 8002642:	2202      	movs	r2, #2
 8002644:	f883 2025 	strb.w	r2, [r3, #37]	; 0x25
 8002648:	68fb      	ldr	r3, [r7, #12]
 800264a:	2200      	movs	r2, #0
 800264c:	63da      	str	r2, [r3, #60]	; 0x3c
 800264e:	68fb      	ldr	r3, [r7, #12]
 8002650:	681b      	ldr	r3, [r3, #0]
 8002652:	681a      	ldr	r2, [r3, #0]
 8002654:	68fb      	ldr	r3, [r7, #12]
 8002656:	681b      	ldr	r3, [r3, #0]
 8002658:	f022 0201 	bic.w	r2, r2, #1
 800265c:	601a      	str	r2, [r3, #0]
 800265e:	683b      	ldr	r3, [r7, #0]
 8002660:	687a      	ldr	r2, [r7, #4]
 8002662:	68b9      	ldr	r1, [r7, #8]
 8002664:	68f8      	ldr	r0, [r7, #12]
 8002666:	f000 f8e0 	bl	800282a <DMA_SetConfig>
 800266a:	68fb      	ldr	r3, [r7, #12]
 800266c:	6b1b      	ldr	r3, [r3, #48]	; 0x30
 800266e:	2b00      	cmp	r3, #0
 8002670:	d008      	beq.n	8002684 <HAL_DMA_Start_IT+0x78>
 8002672:	68fb      	ldr	r3, [r7, #12]
 8002674:	681b      	ldr	r3, [r3, #0]
 8002676:	681a      	ldr	r2, [r3, #0]
 8002678:	68fb      	ldr	r3, [r7, #12]
 800267a:	681b      	ldr	r3, [r3, #0]
 800267c:	f042 020e 	orr.w	r2, r2, #14
 8002680:	601a      	str	r2, [r3, #0]
 8002682:	e00f      	b.n	80026a4 <HAL_DMA_Start_IT+0x98>
 8002684:	68fb      	ldr	r3, [r7, #12]
 8002686:	681b      	ldr	r3, [r3, #0]
 8002688:	681a      	ldr	r2, [r3, #0]
 800268a:	68fb      	ldr	r3, [r7, #12]
 800268c:	681b      	ldr	r3, [r3, #0]
 800268e:	f022 0204 	bic.w	r2, r2, #4
 8002692:	601a      	str	r2, [r3, #0]
 8002694:	68fb      	ldr	r3, [r7, #12]
 8002696:	681b      	ldr	r3, [r3, #0]
 8002698:	681a      	ldr	r2, [r3, #0]
 800269a:	68fb      	ldr	r3, [r7, #12]
 800269c:	681b      	ldr	r3, [r3, #0]
 800269e:	f042 020a 	orr.w	r2, r2, #10
 80026a2:	601a      	str	r2, [r3, #0]
 80026a4:	68fb      	ldr	r3, [r7, #12]
 80026a6:	681b      	ldr	r3, [r3, #0]
 80026a8:	681a      	ldr	r2, [r3, #0]
 80026aa:	68fb      	ldr	r3, [r7, #12]
 80026ac:	681b      	ldr	r3, [r3, #0]
 80026ae:	f042 0201 	orr.w	r2, r2, #1
 80026b2:	601a      	str	r2, [r3, #0]
 80026b4:	e005      	b.n	80026c2 <HAL_DMA_Start_IT+0xb6>
 80026b6:	68fb      	ldr	r3, [r7, #12]
 80026b8:	2200      	movs	r2, #0
 80026ba:	f883 2024 	strb.w	r2, [r3, #36]	; 0x24
 80026be:	2302      	movs	r3, #2
 80026c0:	75fb      	strb	r3, [r7, #23]
 80026c2:	7dfb      	ldrb	r3, [r7, #23]
 80026c4:	4618      	mov	r0, r3
 80026c6:	3718      	adds	r7, #24
 80026c8:	46bd      	mov	sp, r7
 80026ca:	bd80      	pop	{r7, pc}

080026cc <HAL_DMA_IRQHandler>:
 80026cc:	b580      	push	{r7, lr}
 80026ce:	b084      	sub	sp, #16
 80026d0:	af00      	add	r7, sp, #0
 80026d2:	6078      	str	r0, [r7, #4]
 80026d4:	687b      	ldr	r3, [r7, #4]
 80026d6:	6c1b      	ldr	r3, [r3, #64]	; 0x40
 80026d8:	681b      	ldr	r3, [r3, #0]
 80026da:	60fb      	str	r3, [r7, #12]
 80026dc:	687b      	ldr	r3, [r7, #4]
 80026de:	681b      	ldr	r3, [r3, #0]
 80026e0:	681b      	ldr	r3, [r3, #0]
 80026e2:	60bb      	str	r3, [r7, #8]
 80026e4:	687b      	ldr	r3, [r7, #4]
 80026e6:	6c5b      	ldr	r3, [r3, #68]	; 0x44
 80026e8:	f003 031c 	and.w	r3, r3, #28
 80026ec:	2204      	movs	r2, #4
 80026ee:	409a      	lsls	r2, r3
 80026f0:	68fb      	ldr	r3, [r7, #12]
 80026f2:	4013      	ands	r3, r2
 80026f4:	2b00      	cmp	r3, #0
 80026f6:	d026      	beq.n	8002746 <HAL_DMA_IRQHandler+0x7a>
 80026f8:	68bb      	ldr	r3, [r7, #8]
 80026fa:	f003 0304 	and.w	r3, r3, #4
 80026fe:	2b00      	cmp	r3, #0
 8002700:	d021      	beq.n	8002746 <HAL_DMA_IRQHandler+0x7a>
 8002702:	687b      	ldr	r3, [r7, #4]
 8002704:	681b      	ldr	r3, [r3, #0]
 8002706:	681b      	ldr	r3, [r3, #0]
 8002708:	f003 0320 	and.w	r3, r3, #32
 800270c:	2b00      	cmp	r3, #0
 800270e:	d107      	bne.n	8002720 <HAL_DMA_IRQHandler+0x54>
 8002710:	687b      	ldr	r3, [r7, #4]
 8002712:	681b      	ldr	r3, [r3, #0]
 8002714:	681a      	ldr	r2, [r3, #0]
 8002716:	687b      	ldr	r3, [r7, #4]
 8002718:	681b      	ldr	r3, [r3, #0]
 800271a:	f022 0204 	bic.w	r2, r2, #4
 800271e:	601a      	str	r2, [r3, #0]
 8002720:	687b      	ldr	r3, [r7, #4]
 8002722:	6c5b      	ldr	r3, [r3, #68]	; 0x44
 8002724:	f003 021c 	and.w	r2, r3, #28
 8002728:	687b      	ldr	r3, [r7, #4]
 800272a:	6c1b      	ldr	r3, [r3, #64]	; 0x40
 800272c:	2104      	movs	r1, #4
 800272e:	fa01 f202 	lsl.w	r2, r1, r2
 8002732:	605a      	str	r2, [r3, #4]
 8002734:	687b      	ldr	r3, [r7, #4]
 8002736:	6b1b      	ldr	r3, [r3, #48]	; 0x30
 8002738:	2b00      	cmp	r3, #0
 800273a:	d071      	beq.n	8002820 <HAL_DMA_IRQHandler+0x154>
 800273c:	687b      	ldr	r3, [r7, #4]
 800273e:	6b1b      	ldr	r3, [r3, #48]	; 0x30
 8002740:	6878      	ldr	r0, [r7, #4]
 8002742:	4798      	blx	r3
 8002744:	e06c      	b.n	8002820 <HAL_DMA_IRQHandler+0x154>
 8002746:	687b      	ldr	r3, [r7, #4]
 8002748:	6c5b      	ldr	r3, [r3, #68]	; 0x44
 800274a:	f003 031c 	and.w	r3, r3, #28
 800274e:	2202      	movs	r2, #2
 8002750:	409a      	lsls	r2, r3
 8002752:	68fb      	ldr	r3, [r7, #12]
 8002754:	4013      	ands	r3, r2
 8002756:	2b00      	cmp	r3, #0
 8002758:	d02e      	beq.n	80027b8 <HAL_DMA_IRQHandler+0xec>
 800275a:	68bb      	ldr	r3, [r7, #8]
 800275c:	f003 0302 	and.w	r3, r3, #2
 8002760:	2b00      	cmp	r3, #0
 8002762:	d029      	beq.n	80027b8 <HAL_DMA_IRQHandler+0xec>
 8002764:	687b      	ldr	r3, [r7, #4]
 8002766:	681b      	ldr	r3, [r3, #0]
 8002768:	681b      	ldr	r3, [r3, #0]
 800276a:	f003 0320 	and.w	r3, r3, #32
 800276e:	2b00      	cmp	r3, #0
 8002770:	d10b      	bne.n	800278a <HAL_DMA_IRQHandler+0xbe>
 8002772:	687b      	ldr	r3, [r7, #4]
 8002774:	681b      	ldr	r3, [r3, #0]
 8002776:	681a      	ldr	r2, [r3, #0]
 8002778:	687b      	ldr	r3, [r7, #4]
 800277a:	681b      	ldr	r3, [r3, #0]
 800277c:	f022 020a 	bic.w	r2, r2, #10
 8002780:	601a      	str	r2, [r3, #0]
 8002782:	687b      	ldr	r3, [r7, #4]
 8002784:	2201      	movs	r2, #1
 8002786:	f883 2025 	strb.w	r2, [r3, #37]	; 0x25
 800278a:	687b      	ldr	r3, [r7, #4]
 800278c:	6c5b      	ldr	r3, [r3, #68]	; 0x44
 800278e:	f003 021c 	and.w	r2, r3, #28
 8002792:	687b      	ldr	r3, [r7, #4]
 8002794:	6c1b      	ldr	r3, [r3, #64]	; 0x40
 8002796:	2102      	movs	r1, #2
 8002798:	fa01 f202 	lsl.w	r2, r1, r2
 800279c:	605a      	str	r2, [r3, #4]
 800279e:	687b      	ldr	r3, [r7, #4]
 80027a0:	2200      	movs	r2, #0
 80027a2:	f883 2024 	strb.w	r2, [r3, #36]	; 0x24
 80027a6:	687b      	ldr	r3, [r7, #4]
 80027a8:	6adb      	ldr	r3, [r3, #44]	; 0x2c
 80027aa:	2b00      	cmp	r3, #0
 80027ac:	d038      	beq.n	8002820 <HAL_DMA_IRQHandler+0x154>
 80027ae:	687b      	ldr	r3, [r7, #4]
 80027b0:	6adb      	ldr	r3, [r3, #44]	; 0x2c
 80027b2:	6878      	ldr	r0, [r7, #4]
 80027b4:	4798      	blx	r3
 80027b6:	e033      	b.n	8002820 <HAL_DMA_IRQHandler+0x154>
 80027b8:	687b      	ldr	r3, [r7, #4]
 80027ba:	6c5b      	ldr	r3, [r3, #68]	; 0x44
 80027bc:	f003 031c 	and.w	r3, r3, #28
 80027c0:	2208      	movs	r2, #8
 80027c2:	409a      	lsls	r2, r3
 80027c4:	68fb      	ldr	r3, [r7, #12]
 80027c6:	4013      	ands	r3, r2
 80027c8:	2b00      	cmp	r3, #0
 80027ca:	d02a      	beq.n	8002822 <HAL_DMA_IRQHandler+0x156>
 80027cc:	68bb      	ldr	r3, [r7, #8]
 80027ce:	f003 0308 	and.w	r3, r3, #8
 80027d2:	2b00      	cmp	r3, #0
 80027d4:	d025      	beq.n	8002822 <HAL_DMA_IRQHandler+0x156>
 80027d6:	687b      	ldr	r3, [r7, #4]
 80027d8:	681b      	ldr	r3, [r3, #0]
 80027da:	681a      	ldr	r2, [r3, #0]
 80027dc:	687b      	ldr	r3, [r7, #4]
 80027de:	681b      	ldr	r3, [r3, #0]
 80027e0:	f022 020e 	bic.w	r2, r2, #14
 80027e4:	601a      	str	r2, [r3, #0]
 80027e6:	687b      	ldr	r3, [r7, #4]
 80027e8:	6c5b      	ldr	r3, [r3, #68]	; 0x44
 80027ea:	f003 021c 	and.w	r2, r3, #28
 80027ee:	687b      	ldr	r3, [r7, #4]
 80027f0:	6c1b      	ldr	r3, [r3, #64]	; 0x40
 80027f2:	2101      	movs	r1, #1
 80027f4:	fa01 f202 	lsl.w	r2, r1, r2
 80027f8:	605a      	str	r2, [r3, #4]
 80027fa:	687b      	ldr	r3, [r7, #4]
 80027fc:	2201      	movs	r2, #1
 80027fe:	63da      	str	r2, [r3, #60]	; 0x3c
 8002800:	687b      	ldr	r3, [r7, #4]
 8002802:	2201      	movs	r2, #1
 8002804:	f883 2025 	strb.w	r2, [r3, #37]	; 0x25
 8002808:	687b      	ldr	r3, [r7, #4]
 800280a:	2200      	movs	r2, #0
 800280c:	f883 2024 	strb.w	r2, [r3, #36]	; 0x24
 8002810:	687b      	ldr	r3, [r7, #4]
 8002812:	6b5b      	ldr	r3, [r3, #52]	; 0x34
 8002814:	2b00      	cmp	r3, #0
 8002816:	d004      	beq.n	8002822 <HAL_DMA_IRQHandler+0x156>
 8002818:	687b      	ldr	r3, [r7, #4]
 800281a:	6b5b      	ldr	r3, [r3, #52]	; 0x34
 800281c:	6878      	ldr	r0, [r7, #4]
 800281e:	4798      	blx	r3
 8002820:	bf00      	nop
 8002822:	bf00      	nop
 8002824:	3710      	adds	r7, #16
 8002826:	46bd      	mov	sp, r7
 8002828:	bd80      	pop	{r7, pc}

0800282a <DMA_SetConfig>:
 800282a:	b480      	push	{r7}
 800282c:	b085      	sub	sp, #20
 800282e:	af00      	add	r7, sp, #0
 8002830:	60f8      	str	r0, [r7, #12]
 8002832:	60b9      	str	r1, [r7, #8]
 8002834:	607a      	str	r2, [r7, #4]
 8002836:	603b      	str	r3, [r7, #0]
 8002838:	68fb      	ldr	r3, [r7, #12]
 800283a:	6c5b      	ldr	r3, [r3, #68]	; 0x44
 800283c:	f003 021c 	and.w	r2, r3, #28
 8002840:	68fb      	ldr	r3, [r7, #12]
 8002842:	6c1b      	ldr	r3, [r3, #64]	; 0x40
 8002844:	2101      	movs	r1, #1
 8002846:	fa01 f202 	lsl.w	r2, r1, r2
 800284a:	605a      	str	r2, [r3, #4]
 800284c:	68fb      	ldr	r3, [r7, #12]
 800284e:	681b      	ldr	r3, [r3, #0]
 8002850:	683a      	ldr	r2, [r7, #0]
 8002852:	605a      	str	r2, [r3, #4]
 8002854:	68fb      	ldr	r3, [r7, #12]
 8002856:	689b      	ldr	r3, [r3, #8]
 8002858:	2b10      	cmp	r3, #16
 800285a:	d108      	bne.n	800286e <DMA_SetConfig+0x44>
 800285c:	68fb      	ldr	r3, [r7, #12]
 800285e:	681b      	ldr	r3, [r3, #0]
 8002860:	687a      	ldr	r2, [r7, #4]
 8002862:	609a      	str	r2, [r3, #8]
 8002864:	68fb      	ldr	r3, [r7, #12]
 8002866:	681b      	ldr	r3, [r3, #0]
 8002868:	68ba      	ldr	r2, [r7, #8]
 800286a:	60da      	str	r2, [r3, #12]
 800286c:	e007      	b.n	800287e <DMA_SetConfig+0x54>
 800286e:	68fb      	ldr	r3, [r7, #12]
 8002870:	681b      	ldr	r3, [r3, #0]
 8002872:	68ba      	ldr	r2, [r7, #8]
 8002874:	609a      	str	r2, [r3, #8]
 8002876:	68fb      	ldr	r3, [r7, #12]
 8002878:	681b      	ldr	r3, [r3, #0]
 800287a:	687a      	ldr	r2, [r7, #4]
 800287c:	60da      	str	r2, [r3, #12]
 800287e:	bf00      	nop
 8002880:	3714      	adds	r7, #20
 8002882:	46bd      	mov	sp, r7
 8002884:	f85d 7b04 	ldr.w	r7, [sp], #4
 8002888:	4770      	bx	lr
	...

0800288c <HAL_GPIO_Init>:
 800288c:	b480      	push	{r7}
 800288e:	b087      	sub	sp, #28
 8002890:	af00      	add	r7, sp, #0
 8002892:	6078      	str	r0, [r7, #4]
 8002894:	6039      	str	r1, [r7, #0]
 8002896:	2300      	movs	r3, #0
 8002898:	617b      	str	r3, [r7, #20]
 800289a:	e17f      	b.n	8002b9c <HAL_GPIO_Init+0x310>
 800289c:	683b      	ldr	r3, [r7, #0]
 800289e:	681a      	ldr	r2, [r3, #0]
 80028a0:	2101      	movs	r1, #1
 80028a2:	697b      	ldr	r3, [r7, #20]
 80028a4:	fa01 f303 	lsl.w	r3, r1, r3
 80028a8:	4013      	ands	r3, r2
 80028aa:	60fb      	str	r3, [r7, #12]
 80028ac:	68fb      	ldr	r3, [r7, #12]
 80028ae:	2b00      	cmp	r3, #0
 80028b0:	f000 8171 	beq.w	8002b96 <HAL_GPIO_Init+0x30a>
 80028b4:	683b      	ldr	r3, [r7, #0]
 80028b6:	685b      	ldr	r3, [r3, #4]
 80028b8:	f003 0303 	and.w	r3, r3, #3
 80028bc:	2b01      	cmp	r3, #1
 80028be:	d005      	beq.n	80028cc <HAL_GPIO_Init+0x40>
 80028c0:	683b      	ldr	r3, [r7, #0]
 80028c2:	685b      	ldr	r3, [r3, #4]
 80028c4:	f003 0303 	and.w	r3, r3, #3
 80028c8:	2b02      	cmp	r3, #2
 80028ca:	d130      	bne.n	800292e <HAL_GPIO_Init+0xa2>
 80028cc:	687b      	ldr	r3, [r7, #4]
 80028ce:	689b      	ldr	r3, [r3, #8]
 80028d0:	613b      	str	r3, [r7, #16]
 80028d2:	697b      	ldr	r3, [r7, #20]
 80028d4:	005b      	lsls	r3, r3, #1
 80028d6:	2203      	movs	r2, #3
 80028d8:	fa02 f303 	lsl.w	r3, r2, r3
 80028dc:	43db      	mvns	r3, r3
 80028de:	693a      	ldr	r2, [r7, #16]
 80028e0:	4013      	ands	r3, r2
 80028e2:	613b      	str	r3, [r7, #16]
 80028e4:	683b      	ldr	r3, [r7, #0]
 80028e6:	68da      	ldr	r2, [r3, #12]
 80028e8:	697b      	ldr	r3, [r7, #20]
 80028ea:	005b      	lsls	r3, r3, #1
 80028ec:	fa02 f303 	lsl.w	r3, r2, r3
 80028f0:	693a      	ldr	r2, [r7, #16]
 80028f2:	4313      	orrs	r3, r2
 80028f4:	613b      	str	r3, [r7, #16]
 80028f6:	687b      	ldr	r3, [r7, #4]
 80028f8:	693a      	ldr	r2, [r7, #16]
 80028fa:	609a      	str	r2, [r3, #8]
 80028fc:	687b      	ldr	r3, [r7, #4]
 80028fe:	685b      	ldr	r3, [r3, #4]
 8002900:	613b      	str	r3, [r7, #16]
 8002902:	2201      	movs	r2, #1
 8002904:	697b      	ldr	r3, [r7, #20]
 8002906:	fa02 f303 	lsl.w	r3, r2, r3
 800290a:	43db      	mvns	r3, r3
 800290c:	693a      	ldr	r2, [r7, #16]
 800290e:	4013      	ands	r3, r2
 8002910:	613b      	str	r3, [r7, #16]
 8002912:	683b      	ldr	r3, [r7, #0]
 8002914:	685b      	ldr	r3, [r3, #4]
 8002916:	091b      	lsrs	r3, r3, #4
 8002918:	f003 0201 	and.w	r2, r3, #1
 800291c:	697b      	ldr	r3, [r7, #20]
 800291e:	fa02 f303 	lsl.w	r3, r2, r3
 8002922:	693a      	ldr	r2, [r7, #16]
 8002924:	4313      	orrs	r3, r2
 8002926:	613b      	str	r3, [r7, #16]
 8002928:	687b      	ldr	r3, [r7, #4]
 800292a:	693a      	ldr	r2, [r7, #16]
 800292c:	605a      	str	r2, [r3, #4]
 800292e:	683b      	ldr	r3, [r7, #0]
 8002930:	685b      	ldr	r3, [r3, #4]
 8002932:	f003 0303 	and.w	r3, r3, #3
 8002936:	2b03      	cmp	r3, #3
 8002938:	d118      	bne.n	800296c <HAL_GPIO_Init+0xe0>
 800293a:	687b      	ldr	r3, [r7, #4]
 800293c:	6adb      	ldr	r3, [r3, #44]	; 0x2c
 800293e:	613b      	str	r3, [r7, #16]
 8002940:	2201      	movs	r2, #1
 8002942:	697b      	ldr	r3, [r7, #20]
 8002944:	fa02 f303 	lsl.w	r3, r2, r3
 8002948:	43db      	mvns	r3, r3
 800294a:	693a      	ldr	r2, [r7, #16]
 800294c:	4013      	ands	r3, r2
 800294e:	613b      	str	r3, [r7, #16]
 8002950:	683b      	ldr	r3, [r7, #0]
 8002952:	685b      	ldr	r3, [r3, #4]
 8002954:	08db      	lsrs	r3, r3, #3
 8002956:	f003 0201 	and.w	r2, r3, #1
 800295a:	697b      	ldr	r3, [r7, #20]
 800295c:	fa02 f303 	lsl.w	r3, r2, r3
 8002960:	693a      	ldr	r2, [r7, #16]
 8002962:	4313      	orrs	r3, r2
 8002964:	613b      	str	r3, [r7, #16]
 8002966:	687b      	ldr	r3, [r7, #4]
 8002968:	693a      	ldr	r2, [r7, #16]
 800296a:	62da      	str	r2, [r3, #44]	; 0x2c
 800296c:	683b      	ldr	r3, [r7, #0]
 800296e:	685b      	ldr	r3, [r3, #4]
 8002970:	f003 0303 	and.w	r3, r3, #3
 8002974:	2b03      	cmp	r3, #3
 8002976:	d017      	beq.n	80029a8 <HAL_GPIO_Init+0x11c>
 8002978:	687b      	ldr	r3, [r7, #4]
 800297a:	68db      	ldr	r3, [r3, #12]
 800297c:	613b      	str	r3, [r7, #16]
 800297e:	697b      	ldr	r3, [r7, #20]
 8002980:	005b      	lsls	r3, r3, #1
 8002982:	2203      	movs	r2, #3
 8002984:	fa02 f303 	lsl.w	r3, r2, r3
 8002988:	43db      	mvns	r3, r3
 800298a:	693a      	ldr	r2, [r7, #16]
 800298c:	4013      	ands	r3, r2
 800298e:	613b      	str	r3, [r7, #16]
 8002990:	683b      	ldr	r3, [r7, #0]
 8002992:	689a      	ldr	r2, [r3, #8]
 8002994:	697b      	ldr	r3, [r7, #20]
 8002996:	005b      	lsls	r3, r3, #1
 8002998:	fa02 f303 	lsl.w	r3, r2, r3
 800299c:	693a      	ldr	r2, [r7, #16]
 800299e:	4313      	orrs	r3, r2
 80029a0:	613b      	str	r3, [r7, #16]
 80029a2:	687b      	ldr	r3, [r7, #4]
 80029a4:	693a      	ldr	r2, [r7, #16]
 80029a6:	60da      	str	r2, [r3, #12]
 80029a8:	683b      	ldr	r3, [r7, #0]
 80029aa:	685b      	ldr	r3, [r3, #4]
 80029ac:	f003 0303 	and.w	r3, r3, #3
 80029b0:	2b02      	cmp	r3, #2
 80029b2:	d123      	bne.n	80029fc <HAL_GPIO_Init+0x170>
 80029b4:	697b      	ldr	r3, [r7, #20]
 80029b6:	08da      	lsrs	r2, r3, #3
 80029b8:	687b      	ldr	r3, [r7, #4]
 80029ba:	3208      	adds	r2, #8
 80029bc:	f853 3022 	ldr.w	r3, [r3, r2, lsl #2]
 80029c0:	613b      	str	r3, [r7, #16]
 80029c2:	697b      	ldr	r3, [r7, #20]
 80029c4:	f003 0307 	and.w	r3, r3, #7
 80029c8:	009b      	lsls	r3, r3, #2
 80029ca:	220f      	movs	r2, #15
 80029cc:	fa02 f303 	lsl.w	r3, r2, r3
 80029d0:	43db      	mvns	r3, r3
 80029d2:	693a      	ldr	r2, [r7, #16]
 80029d4:	4013      	ands	r3, r2
 80029d6:	613b      	str	r3, [r7, #16]
 80029d8:	683b      	ldr	r3, [r7, #0]
 80029da:	691a      	ldr	r2, [r3, #16]
 80029dc:	697b      	ldr	r3, [r7, #20]
 80029de:	f003 0307 	and.w	r3, r3, #7
 80029e2:	009b      	lsls	r3, r3, #2
 80029e4:	fa02 f303 	lsl.w	r3, r2, r3
 80029e8:	693a      	ldr	r2, [r7, #16]
 80029ea:	4313      	orrs	r3, r2
 80029ec:	613b      	str	r3, [r7, #16]
 80029ee:	697b      	ldr	r3, [r7, #20]
 80029f0:	08da      	lsrs	r2, r3, #3
 80029f2:	687b      	ldr	r3, [r7, #4]
 80029f4:	3208      	adds	r2, #8
 80029f6:	6939      	ldr	r1, [r7, #16]
 80029f8:	f843 1022 	str.w	r1, [r3, r2, lsl #2]
 80029fc:	687b      	ldr	r3, [r7, #4]
 80029fe:	681b      	ldr	r3, [r3, #0]
 8002a00:	613b      	str	r3, [r7, #16]
 8002a02:	697b      	ldr	r3, [r7, #20]
 8002a04:	005b      	lsls	r3, r3, #1
 8002a06:	2203      	movs	r2, #3
 8002a08:	fa02 f303 	lsl.w	r3, r2, r3
 8002a0c:	43db      	mvns	r3, r3
 8002a0e:	693a      	ldr	r2, [r7, #16]
 8002a10:	4013      	ands	r3, r2
 8002a12:	613b      	str	r3, [r7, #16]
 8002a14:	683b      	ldr	r3, [r7, #0]
 8002a16:	685b      	ldr	r3, [r3, #4]
 8002a18:	f003 0203 	and.w	r2, r3, #3
 8002a1c:	697b      	ldr	r3, [r7, #20]
 8002a1e:	005b      	lsls	r3, r3, #1
 8002a20:	fa02 f303 	lsl.w	r3, r2, r3
 8002a24:	693a      	ldr	r2, [r7, #16]
 8002a26:	4313      	orrs	r3, r2
 8002a28:	613b      	str	r3, [r7, #16]
 8002a2a:	687b      	ldr	r3, [r7, #4]
 8002a2c:	693a      	ldr	r2, [r7, #16]
 8002a2e:	601a      	str	r2, [r3, #0]
 8002a30:	683b      	ldr	r3, [r7, #0]
 8002a32:	685b      	ldr	r3, [r3, #4]
 8002a34:	f403 3340 	and.w	r3, r3, #196608	; 0x30000
 8002a38:	2b00      	cmp	r3, #0
 8002a3a:	f000 80ac 	beq.w	8002b96 <HAL_GPIO_Init+0x30a>
 8002a3e:	4b5f      	ldr	r3, [pc, #380]	; (8002bbc <HAL_GPIO_Init+0x330>)
 8002a40:	6e1b      	ldr	r3, [r3, #96]	; 0x60
 8002a42:	4a5e      	ldr	r2, [pc, #376]	; (8002bbc <HAL_GPIO_Init+0x330>)
 8002a44:	f043 0301 	orr.w	r3, r3, #1
 8002a48:	6613      	str	r3, [r2, #96]	; 0x60
 8002a4a:	4b5c      	ldr	r3, [pc, #368]	; (8002bbc <HAL_GPIO_Init+0x330>)
 8002a4c:	6e1b      	ldr	r3, [r3, #96]	; 0x60
 8002a4e:	f003 0301 	and.w	r3, r3, #1
 8002a52:	60bb      	str	r3, [r7, #8]
 8002a54:	68bb      	ldr	r3, [r7, #8]
 8002a56:	4a5a      	ldr	r2, [pc, #360]	; (8002bc0 <HAL_GPIO_Init+0x334>)
 8002a58:	697b      	ldr	r3, [r7, #20]
 8002a5a:	089b      	lsrs	r3, r3, #2
 8002a5c:	3302      	adds	r3, #2
 8002a5e:	f852 3023 	ldr.w	r3, [r2, r3, lsl #2]
 8002a62:	613b      	str	r3, [r7, #16]
 8002a64:	697b      	ldr	r3, [r7, #20]
 8002a66:	f003 0303 	and.w	r3, r3, #3
 8002a6a:	009b      	lsls	r3, r3, #2
 8002a6c:	220f      	movs	r2, #15
 8002a6e:	fa02 f303 	lsl.w	r3, r2, r3
 8002a72:	43db      	mvns	r3, r3
 8002a74:	693a      	ldr	r2, [r7, #16]
 8002a76:	4013      	ands	r3, r2
 8002a78:	613b      	str	r3, [r7, #16]
 8002a7a:	687b      	ldr	r3, [r7, #4]
 8002a7c:	f1b3 4f90 	cmp.w	r3, #1207959552	; 0x48000000
 8002a80:	d025      	beq.n	8002ace <HAL_GPIO_Init+0x242>
 8002a82:	687b      	ldr	r3, [r7, #4]
 8002a84:	4a4f      	ldr	r2, [pc, #316]	; (8002bc4 <HAL_GPIO_Init+0x338>)
 8002a86:	4293      	cmp	r3, r2
 8002a88:	d01f      	beq.n	8002aca <HAL_GPIO_Init+0x23e>
 8002a8a:	687b      	ldr	r3, [r7, #4]
 8002a8c:	4a4e      	ldr	r2, [pc, #312]	; (8002bc8 <HAL_GPIO_Init+0x33c>)
 8002a8e:	4293      	cmp	r3, r2
 8002a90:	d019      	beq.n	8002ac6 <HAL_GPIO_Init+0x23a>
 8002a92:	687b      	ldr	r3, [r7, #4]
 8002a94:	4a4d      	ldr	r2, [pc, #308]	; (8002bcc <HAL_GPIO_Init+0x340>)
 8002a96:	4293      	cmp	r3, r2
 8002a98:	d013      	beq.n	8002ac2 <HAL_GPIO_Init+0x236>
 8002a9a:	687b      	ldr	r3, [r7, #4]
 8002a9c:	4a4c      	ldr	r2, [pc, #304]	; (8002bd0 <HAL_GPIO_Init+0x344>)
 8002a9e:	4293      	cmp	r3, r2
 8002aa0:	d00d      	beq.n	8002abe <HAL_GPIO_Init+0x232>
 8002aa2:	687b      	ldr	r3, [r7, #4]
 8002aa4:	4a4b      	ldr	r2, [pc, #300]	; (8002bd4 <HAL_GPIO_Init+0x348>)
 8002aa6:	4293      	cmp	r3, r2
 8002aa8:	d007      	beq.n	8002aba <HAL_GPIO_Init+0x22e>
 8002aaa:	687b      	ldr	r3, [r7, #4]
 8002aac:	4a4a      	ldr	r2, [pc, #296]	; (8002bd8 <HAL_GPIO_Init+0x34c>)
 8002aae:	4293      	cmp	r3, r2
 8002ab0:	d101      	bne.n	8002ab6 <HAL_GPIO_Init+0x22a>
 8002ab2:	2306      	movs	r3, #6
 8002ab4:	e00c      	b.n	8002ad0 <HAL_GPIO_Init+0x244>
 8002ab6:	2307      	movs	r3, #7
 8002ab8:	e00a      	b.n	8002ad0 <HAL_GPIO_Init+0x244>
 8002aba:	2305      	movs	r3, #5
 8002abc:	e008      	b.n	8002ad0 <HAL_GPIO_Init+0x244>
 8002abe:	2304      	movs	r3, #4
 8002ac0:	e006      	b.n	8002ad0 <HAL_GPIO_Init+0x244>
 8002ac2:	2303      	movs	r3, #3
 8002ac4:	e004      	b.n	8002ad0 <HAL_GPIO_Init+0x244>
 8002ac6:	2302      	movs	r3, #2
 8002ac8:	e002      	b.n	8002ad0 <HAL_GPIO_Init+0x244>
 8002aca:	2301      	movs	r3, #1
 8002acc:	e000      	b.n	8002ad0 <HAL_GPIO_Init+0x244>
 8002ace:	2300      	movs	r3, #0
 8002ad0:	697a      	ldr	r2, [r7, #20]
 8002ad2:	f002 0203 	and.w	r2, r2, #3
 8002ad6:	0092      	lsls	r2, r2, #2
 8002ad8:	4093      	lsls	r3, r2
 8002ada:	693a      	ldr	r2, [r7, #16]
 8002adc:	4313      	orrs	r3, r2
 8002ade:	613b      	str	r3, [r7, #16]
 8002ae0:	4937      	ldr	r1, [pc, #220]	; (8002bc0 <HAL_GPIO_Init+0x334>)
 8002ae2:	697b      	ldr	r3, [r7, #20]
 8002ae4:	089b      	lsrs	r3, r3, #2
 8002ae6:	3302      	adds	r3, #2
 8002ae8:	693a      	ldr	r2, [r7, #16]
 8002aea:	f841 2023 	str.w	r2, [r1, r3, lsl #2]
 8002aee:	4b3b      	ldr	r3, [pc, #236]	; (8002bdc <HAL_GPIO_Init+0x350>)
 8002af0:	689b      	ldr	r3, [r3, #8]
 8002af2:	613b      	str	r3, [r7, #16]
 8002af4:	68fb      	ldr	r3, [r7, #12]
 8002af6:	43db      	mvns	r3, r3
 8002af8:	693a      	ldr	r2, [r7, #16]
 8002afa:	4013      	ands	r3, r2
 8002afc:	613b      	str	r3, [r7, #16]
 8002afe:	683b      	ldr	r3, [r7, #0]
 8002b00:	685b      	ldr	r3, [r3, #4]
 8002b02:	f403 1380 	and.w	r3, r3, #1048576	; 0x100000
 8002b06:	2b00      	cmp	r3, #0
 8002b08:	d003      	beq.n	8002b12 <HAL_GPIO_Init+0x286>
 8002b0a:	693a      	ldr	r2, [r7, #16]
 8002b0c:	68fb      	ldr	r3, [r7, #12]
 8002b0e:	4313      	orrs	r3, r2
 8002b10:	613b      	str	r3, [r7, #16]
 8002b12:	4a32      	ldr	r2, [pc, #200]	; (8002bdc <HAL_GPIO_Init+0x350>)
 8002b14:	693b      	ldr	r3, [r7, #16]
 8002b16:	6093      	str	r3, [r2, #8]
 8002b18:	4b30      	ldr	r3, [pc, #192]	; (8002bdc <HAL_GPIO_Init+0x350>)
 8002b1a:	68db      	ldr	r3, [r3, #12]
 8002b1c:	613b      	str	r3, [r7, #16]
 8002b1e:	68fb      	ldr	r3, [r7, #12]
 8002b20:	43db      	mvns	r3, r3
 8002b22:	693a      	ldr	r2, [r7, #16]
 8002b24:	4013      	ands	r3, r2
 8002b26:	613b      	str	r3, [r7, #16]
 8002b28:	683b      	ldr	r3, [r7, #0]
 8002b2a:	685b      	ldr	r3, [r3, #4]
 8002b2c:	f403 1300 	and.w	r3, r3, #2097152	; 0x200000
 8002b30:	2b00      	cmp	r3, #0
 8002b32:	d003      	beq.n	8002b3c <HAL_GPIO_Init+0x2b0>
 8002b34:	693a      	ldr	r2, [r7, #16]
 8002b36:	68fb      	ldr	r3, [r7, #12]
 8002b38:	4313      	orrs	r3, r2
 8002b3a:	613b      	str	r3, [r7, #16]
 8002b3c:	4a27      	ldr	r2, [pc, #156]	; (8002bdc <HAL_GPIO_Init+0x350>)
 8002b3e:	693b      	ldr	r3, [r7, #16]
 8002b40:	60d3      	str	r3, [r2, #12]
 8002b42:	4b26      	ldr	r3, [pc, #152]	; (8002bdc <HAL_GPIO_Init+0x350>)
 8002b44:	685b      	ldr	r3, [r3, #4]
 8002b46:	613b      	str	r3, [r7, #16]
 8002b48:	68fb      	ldr	r3, [r7, #12]
 8002b4a:	43db      	mvns	r3, r3
 8002b4c:	693a      	ldr	r2, [r7, #16]
 8002b4e:	4013      	ands	r3, r2
 8002b50:	613b      	str	r3, [r7, #16]
 8002b52:	683b      	ldr	r3, [r7, #0]
 8002b54:	685b      	ldr	r3, [r3, #4]
 8002b56:	f403 3300 	and.w	r3, r3, #131072	; 0x20000
 8002b5a:	2b00      	cmp	r3, #0
 8002b5c:	d003      	beq.n	8002b66 <HAL_GPIO_Init+0x2da>
 8002b5e:	693a      	ldr	r2, [r7, #16]
 8002b60:	68fb      	ldr	r3, [r7, #12]
 8002b62:	4313      	orrs	r3, r2
 8002b64:	613b      	str	r3, [r7, #16]
 8002b66:	4a1d      	ldr	r2, [pc, #116]	; (8002bdc <HAL_GPIO_Init+0x350>)
 8002b68:	693b      	ldr	r3, [r7, #16]
 8002b6a:	6053      	str	r3, [r2, #4]
 8002b6c:	4b1b      	ldr	r3, [pc, #108]	; (8002bdc <HAL_GPIO_Init+0x350>)
 8002b6e:	681b      	ldr	r3, [r3, #0]
 8002b70:	613b      	str	r3, [r7, #16]
 8002b72:	68fb      	ldr	r3, [r7, #12]
 8002b74:	43db      	mvns	r3, r3
 8002b76:	693a      	ldr	r2, [r7, #16]
 8002b78:	4013      	ands	r3, r2
 8002b7a:	613b      	str	r3, [r7, #16]
 8002b7c:	683b      	ldr	r3, [r7, #0]
 8002b7e:	685b      	ldr	r3, [r3, #4]
 8002b80:	f403 3380 	and.w	r3, r3, #65536	; 0x10000
 8002b84:	2b00      	cmp	r3, #0
 8002b86:	d003      	beq.n	8002b90 <HAL_GPIO_Init+0x304>
 8002b88:	693a      	ldr	r2, [r7, #16]
 8002b8a:	68fb      	ldr	r3, [r7, #12]
 8002b8c:	4313      	orrs	r3, r2
 8002b8e:	613b      	str	r3, [r7, #16]
 8002b90:	4a12      	ldr	r2, [pc, #72]	; (8002bdc <HAL_GPIO_Init+0x350>)
 8002b92:	693b      	ldr	r3, [r7, #16]
 8002b94:	6013      	str	r3, [r2, #0]
 8002b96:	697b      	ldr	r3, [r7, #20]
 8002b98:	3301      	adds	r3, #1
 8002b9a:	617b      	str	r3, [r7, #20]
 8002b9c:	683b      	ldr	r3, [r7, #0]
 8002b9e:	681a      	ldr	r2, [r3, #0]
 8002ba0:	697b      	ldr	r3, [r7, #20]
 8002ba2:	fa22 f303 	lsr.w	r3, r2, r3
 8002ba6:	2b00      	cmp	r3, #0
 8002ba8:	f47f ae78 	bne.w	800289c <HAL_GPIO_Init+0x10>
 8002bac:	bf00      	nop
 8002bae:	bf00      	nop
 8002bb0:	371c      	adds	r7, #28
 8002bb2:	46bd      	mov	sp, r7
 8002bb4:	f85d 7b04 	ldr.w	r7, [sp], #4
 8002bb8:	4770      	bx	lr
 8002bba:	bf00      	nop
 8002bbc:	40021000 	.word	0x40021000
 8002bc0:	40010000 	.word	0x40010000
 8002bc4:	48000400 	.word	0x48000400
 8002bc8:	48000800 	.word	0x48000800
 8002bcc:	48000c00 	.word	0x48000c00
 8002bd0:	48001000 	.word	0x48001000
 8002bd4:	48001400 	.word	0x48001400
 8002bd8:	48001800 	.word	0x48001800
 8002bdc:	40010400 	.word	0x40010400

08002be0 <HAL_GPIO_WritePin>:
 8002be0:	b480      	push	{r7}
 8002be2:	b083      	sub	sp, #12
 8002be4:	af00      	add	r7, sp, #0
 8002be6:	6078      	str	r0, [r7, #4]
 8002be8:	460b      	mov	r3, r1
 8002bea:	807b      	strh	r3, [r7, #2]
 8002bec:	4613      	mov	r3, r2
 8002bee:	707b      	strb	r3, [r7, #1]
 8002bf0:	787b      	ldrb	r3, [r7, #1]
 8002bf2:	2b00      	cmp	r3, #0
 8002bf4:	d003      	beq.n	8002bfe <HAL_GPIO_WritePin+0x1e>
 8002bf6:	887a      	ldrh	r2, [r7, #2]
 8002bf8:	687b      	ldr	r3, [r7, #4]
 8002bfa:	619a      	str	r2, [r3, #24]
 8002bfc:	e002      	b.n	8002c04 <HAL_GPIO_WritePin+0x24>
 8002bfe:	887a      	ldrh	r2, [r7, #2]
 8002c00:	687b      	ldr	r3, [r7, #4]
 8002c02:	629a      	str	r2, [r3, #40]	; 0x28
 8002c04:	bf00      	nop
 8002c06:	370c      	adds	r7, #12
 8002c08:	46bd      	mov	sp, r7
 8002c0a:	f85d 7b04 	ldr.w	r7, [sp], #4
 8002c0e:	4770      	bx	lr

08002c10 <HAL_GPIO_TogglePin>:
 8002c10:	b480      	push	{r7}
 8002c12:	b085      	sub	sp, #20
 8002c14:	af00      	add	r7, sp, #0
 8002c16:	6078      	str	r0, [r7, #4]
 8002c18:	460b      	mov	r3, r1
 8002c1a:	807b      	strh	r3, [r7, #2]
 8002c1c:	687b      	ldr	r3, [r7, #4]
 8002c1e:	695b      	ldr	r3, [r3, #20]
 8002c20:	60fb      	str	r3, [r7, #12]
 8002c22:	887a      	ldrh	r2, [r7, #2]
 8002c24:	68fb      	ldr	r3, [r7, #12]
 8002c26:	4013      	ands	r3, r2
 8002c28:	041a      	lsls	r2, r3, #16
 8002c2a:	68fb      	ldr	r3, [r7, #12]
 8002c2c:	43d9      	mvns	r1, r3
 8002c2e:	887b      	ldrh	r3, [r7, #2]
 8002c30:	400b      	ands	r3, r1
 8002c32:	431a      	orrs	r2, r3
 8002c34:	687b      	ldr	r3, [r7, #4]
 8002c36:	619a      	str	r2, [r3, #24]
 8002c38:	bf00      	nop
 8002c3a:	3714      	adds	r7, #20
 8002c3c:	46bd      	mov	sp, r7
 8002c3e:	f85d 7b04 	ldr.w	r7, [sp], #4
 8002c42:	4770      	bx	lr

08002c44 <HAL_PWR_EnableBkUpAccess>:
 8002c44:	b480      	push	{r7}
 8002c46:	af00      	add	r7, sp, #0
 8002c48:	4b05      	ldr	r3, [pc, #20]	; (8002c60 <HAL_PWR_EnableBkUpAccess+0x1c>)
 8002c4a:	681b      	ldr	r3, [r3, #0]
 8002c4c:	4a04      	ldr	r2, [pc, #16]	; (8002c60 <HAL_PWR_EnableBkUpAccess+0x1c>)
 8002c4e:	f443 7380 	orr.w	r3, r3, #256	; 0x100
 8002c52:	6013      	str	r3, [r2, #0]
 8002c54:	bf00      	nop
 8002c56:	46bd      	mov	sp, r7
 8002c58:	f85d 7b04 	ldr.w	r7, [sp], #4
 8002c5c:	4770      	bx	lr
 8002c5e:	bf00      	nop
 8002c60:	40007000 	.word	0x40007000

08002c64 <HAL_PWREx_GetVoltageRange>:
 8002c64:	b480      	push	{r7}
 8002c66:	af00      	add	r7, sp, #0
 8002c68:	4b04      	ldr	r3, [pc, #16]	; (8002c7c <HAL_PWREx_GetVoltageRange+0x18>)
 8002c6a:	681b      	ldr	r3, [r3, #0]
 8002c6c:	f403 63c0 	and.w	r3, r3, #1536	; 0x600
 8002c70:	4618      	mov	r0, r3
 8002c72:	46bd      	mov	sp, r7
 8002c74:	f85d 7b04 	ldr.w	r7, [sp], #4
 8002c78:	4770      	bx	lr
 8002c7a:	bf00      	nop
 8002c7c:	40007000 	.word	0x40007000

08002c80 <HAL_PWREx_ControlVoltageScaling>:
 8002c80:	b480      	push	{r7}
 8002c82:	b085      	sub	sp, #20
 8002c84:	af00      	add	r7, sp, #0
 8002c86:	6078      	str	r0, [r7, #4]
 8002c88:	687b      	ldr	r3, [r7, #4]
 8002c8a:	f5b3 7f00 	cmp.w	r3, #512	; 0x200
 8002c8e:	d130      	bne.n	8002cf2 <HAL_PWREx_ControlVoltageScaling+0x72>
 8002c90:	4b23      	ldr	r3, [pc, #140]	; (8002d20 <HAL_PWREx_ControlVoltageScaling+0xa0>)
 8002c92:	681b      	ldr	r3, [r3, #0]
 8002c94:	f403 63c0 	and.w	r3, r3, #1536	; 0x600
 8002c98:	f5b3 7f00 	cmp.w	r3, #512	; 0x200
 8002c9c:	d038      	beq.n	8002d10 <HAL_PWREx_ControlVoltageScaling+0x90>
 8002c9e:	4b20      	ldr	r3, [pc, #128]	; (8002d20 <HAL_PWREx_ControlVoltageScaling+0xa0>)
 8002ca0:	681b      	ldr	r3, [r3, #0]
 8002ca2:	f423 63c0 	bic.w	r3, r3, #1536	; 0x600
 8002ca6:	4a1e      	ldr	r2, [pc, #120]	; (8002d20 <HAL_PWREx_ControlVoltageScaling+0xa0>)
 8002ca8:	f443 7300 	orr.w	r3, r3, #512	; 0x200
 8002cac:	6013      	str	r3, [r2, #0]
 8002cae:	4b1d      	ldr	r3, [pc, #116]	; (8002d24 <HAL_PWREx_ControlVoltageScaling+0xa4>)
 8002cb0:	681b      	ldr	r3, [r3, #0]
 8002cb2:	2232      	movs	r2, #50	; 0x32
 8002cb4:	fb02 f303 	mul.w	r3, r2, r3
 8002cb8:	4a1b      	ldr	r2, [pc, #108]	; (8002d28 <HAL_PWREx_ControlVoltageScaling+0xa8>)
 8002cba:	fba2 2303 	umull	r2, r3, r2, r3
 8002cbe:	0c9b      	lsrs	r3, r3, #18
 8002cc0:	3301      	adds	r3, #1
 8002cc2:	60fb      	str	r3, [r7, #12]
 8002cc4:	e002      	b.n	8002ccc <HAL_PWREx_ControlVoltageScaling+0x4c>
 8002cc6:	68fb      	ldr	r3, [r7, #12]
 8002cc8:	3b01      	subs	r3, #1
 8002cca:	60fb      	str	r3, [r7, #12]
 8002ccc:	4b14      	ldr	r3, [pc, #80]	; (8002d20 <HAL_PWREx_ControlVoltageScaling+0xa0>)
 8002cce:	695b      	ldr	r3, [r3, #20]
 8002cd0:	f403 6380 	and.w	r3, r3, #1024	; 0x400
 8002cd4:	f5b3 6f80 	cmp.w	r3, #1024	; 0x400
 8002cd8:	d102      	bne.n	8002ce0 <HAL_PWREx_ControlVoltageScaling+0x60>
 8002cda:	68fb      	ldr	r3, [r7, #12]
 8002cdc:	2b00      	cmp	r3, #0
 8002cde:	d1f2      	bne.n	8002cc6 <HAL_PWREx_ControlVoltageScaling+0x46>
 8002ce0:	4b0f      	ldr	r3, [pc, #60]	; (8002d20 <HAL_PWREx_ControlVoltageScaling+0xa0>)
 8002ce2:	695b      	ldr	r3, [r3, #20]
 8002ce4:	f403 6380 	and.w	r3, r3, #1024	; 0x400
 8002ce8:	f5b3 6f80 	cmp.w	r3, #1024	; 0x400
 8002cec:	d110      	bne.n	8002d10 <HAL_PWREx_ControlVoltageScaling+0x90>
 8002cee:	2303      	movs	r3, #3
 8002cf0:	e00f      	b.n	8002d12 <HAL_PWREx_ControlVoltageScaling+0x92>
 8002cf2:	4b0b      	ldr	r3, [pc, #44]	; (8002d20 <HAL_PWREx_ControlVoltageScaling+0xa0>)
 8002cf4:	681b      	ldr	r3, [r3, #0]
 8002cf6:	f403 63c0 	and.w	r3, r3, #1536	; 0x600
 8002cfa:	f5b3 6f80 	cmp.w	r3, #1024	; 0x400
 8002cfe:	d007      	beq.n	8002d10 <HAL_PWREx_ControlVoltageScaling+0x90>
 8002d00:	4b07      	ldr	r3, [pc, #28]	; (8002d20 <HAL_PWREx_ControlVoltageScaling+0xa0>)
 8002d02:	681b      	ldr	r3, [r3, #0]
 8002d04:	f423 63c0 	bic.w	r3, r3, #1536	; 0x600
 8002d08:	4a05      	ldr	r2, [pc, #20]	; (8002d20 <HAL_PWREx_ControlVoltageScaling+0xa0>)
 8002d0a:	f443 6380 	orr.w	r3, r3, #1024	; 0x400
 8002d0e:	6013      	str	r3, [r2, #0]
 8002d10:	2300      	movs	r3, #0
 8002d12:	4618      	mov	r0, r3
 8002d14:	3714      	adds	r7, #20
 8002d16:	46bd      	mov	sp, r7
 8002d18:	f85d 7b04 	ldr.w	r7, [sp], #4
 8002d1c:	4770      	bx	lr
 8002d1e:	bf00      	nop
 8002d20:	40007000 	.word	0x40007000
 8002d24:	20000000 	.word	0x20000000
 8002d28:	431bde83 	.word	0x431bde83

08002d2c <HAL_RCC_OscConfig>:
 8002d2c:	b580      	push	{r7, lr}
 8002d2e:	b088      	sub	sp, #32
 8002d30:	af00      	add	r7, sp, #0
 8002d32:	6078      	str	r0, [r7, #4]
 8002d34:	687b      	ldr	r3, [r7, #4]
 8002d36:	2b00      	cmp	r3, #0
 8002d38:	d101      	bne.n	8002d3e <HAL_RCC_OscConfig+0x12>
 8002d3a:	2301      	movs	r3, #1
 8002d3c:	e3c6      	b.n	80034cc <HAL_RCC_OscConfig+0x7a0>
 8002d3e:	4ba1      	ldr	r3, [pc, #644]	; (8002fc4 <HAL_RCC_OscConfig+0x298>)
 8002d40:	689b      	ldr	r3, [r3, #8]
 8002d42:	f003 030c 	and.w	r3, r3, #12
 8002d46:	61bb      	str	r3, [r7, #24]
 8002d48:	4b9e      	ldr	r3, [pc, #632]	; (8002fc4 <HAL_RCC_OscConfig+0x298>)
 8002d4a:	68db      	ldr	r3, [r3, #12]
 8002d4c:	f003 0303 	and.w	r3, r3, #3
 8002d50:	617b      	str	r3, [r7, #20]
 8002d52:	687b      	ldr	r3, [r7, #4]
 8002d54:	681b      	ldr	r3, [r3, #0]
 8002d56:	f003 0310 	and.w	r3, r3, #16
 8002d5a:	2b00      	cmp	r3, #0
 8002d5c:	f000 80e4 	beq.w	8002f28 <HAL_RCC_OscConfig+0x1fc>
 8002d60:	69bb      	ldr	r3, [r7, #24]
 8002d62:	2b00      	cmp	r3, #0
 8002d64:	d007      	beq.n	8002d76 <HAL_RCC_OscConfig+0x4a>
 8002d66:	69bb      	ldr	r3, [r7, #24]
 8002d68:	2b0c      	cmp	r3, #12
 8002d6a:	f040 808b 	bne.w	8002e84 <HAL_RCC_OscConfig+0x158>
 8002d6e:	697b      	ldr	r3, [r7, #20]
 8002d70:	2b01      	cmp	r3, #1
 8002d72:	f040 8087 	bne.w	8002e84 <HAL_RCC_OscConfig+0x158>
 8002d76:	4b93      	ldr	r3, [pc, #588]	; (8002fc4 <HAL_RCC_OscConfig+0x298>)
 8002d78:	681b      	ldr	r3, [r3, #0]
 8002d7a:	f003 0302 	and.w	r3, r3, #2
 8002d7e:	2b00      	cmp	r3, #0
 8002d80:	d005      	beq.n	8002d8e <HAL_RCC_OscConfig+0x62>
 8002d82:	687b      	ldr	r3, [r7, #4]
 8002d84:	699b      	ldr	r3, [r3, #24]
 8002d86:	2b00      	cmp	r3, #0
 8002d88:	d101      	bne.n	8002d8e <HAL_RCC_OscConfig+0x62>
 8002d8a:	2301      	movs	r3, #1
 8002d8c:	e39e      	b.n	80034cc <HAL_RCC_OscConfig+0x7a0>
 8002d8e:	687b      	ldr	r3, [r7, #4]
 8002d90:	6a1a      	ldr	r2, [r3, #32]
 8002d92:	4b8c      	ldr	r3, [pc, #560]	; (8002fc4 <HAL_RCC_OscConfig+0x298>)
 8002d94:	681b      	ldr	r3, [r3, #0]
 8002d96:	f003 0308 	and.w	r3, r3, #8
 8002d9a:	2b00      	cmp	r3, #0
 8002d9c:	d004      	beq.n	8002da8 <HAL_RCC_OscConfig+0x7c>
 8002d9e:	4b89      	ldr	r3, [pc, #548]	; (8002fc4 <HAL_RCC_OscConfig+0x298>)
 8002da0:	681b      	ldr	r3, [r3, #0]
 8002da2:	f003 03f0 	and.w	r3, r3, #240	; 0xf0
 8002da6:	e005      	b.n	8002db4 <HAL_RCC_OscConfig+0x88>
 8002da8:	4b86      	ldr	r3, [pc, #536]	; (8002fc4 <HAL_RCC_OscConfig+0x298>)
 8002daa:	f8d3 3094 	ldr.w	r3, [r3, #148]	; 0x94
 8002dae:	091b      	lsrs	r3, r3, #4
 8002db0:	f003 03f0 	and.w	r3, r3, #240	; 0xf0
 8002db4:	4293      	cmp	r3, r2
 8002db6:	d223      	bcs.n	8002e00 <HAL_RCC_OscConfig+0xd4>
 8002db8:	687b      	ldr	r3, [r7, #4]
 8002dba:	6a1b      	ldr	r3, [r3, #32]
 8002dbc:	4618      	mov	r0, r3
 8002dbe:	f000 fd85 	bl	80038cc <RCC_SetFlashLatencyFromMSIRange>
 8002dc2:	4603      	mov	r3, r0
 8002dc4:	2b00      	cmp	r3, #0
 8002dc6:	d001      	beq.n	8002dcc <HAL_RCC_OscConfig+0xa0>
 8002dc8:	2301      	movs	r3, #1
 8002dca:	e37f      	b.n	80034cc <HAL_RCC_OscConfig+0x7a0>
 8002dcc:	4b7d      	ldr	r3, [pc, #500]	; (8002fc4 <HAL_RCC_OscConfig+0x298>)
 8002dce:	681b      	ldr	r3, [r3, #0]
 8002dd0:	4a7c      	ldr	r2, [pc, #496]	; (8002fc4 <HAL_RCC_OscConfig+0x298>)
 8002dd2:	f043 0308 	orr.w	r3, r3, #8
 8002dd6:	6013      	str	r3, [r2, #0]
 8002dd8:	4b7a      	ldr	r3, [pc, #488]	; (8002fc4 <HAL_RCC_OscConfig+0x298>)
 8002dda:	681b      	ldr	r3, [r3, #0]
 8002ddc:	f023 02f0 	bic.w	r2, r3, #240	; 0xf0
 8002de0:	687b      	ldr	r3, [r7, #4]
 8002de2:	6a1b      	ldr	r3, [r3, #32]
 8002de4:	4977      	ldr	r1, [pc, #476]	; (8002fc4 <HAL_RCC_OscConfig+0x298>)
 8002de6:	4313      	orrs	r3, r2
 8002de8:	600b      	str	r3, [r1, #0]
 8002dea:	4b76      	ldr	r3, [pc, #472]	; (8002fc4 <HAL_RCC_OscConfig+0x298>)
 8002dec:	685b      	ldr	r3, [r3, #4]
 8002dee:	f423 427f 	bic.w	r2, r3, #65280	; 0xff00
 8002df2:	687b      	ldr	r3, [r7, #4]
 8002df4:	69db      	ldr	r3, [r3, #28]
 8002df6:	021b      	lsls	r3, r3, #8
 8002df8:	4972      	ldr	r1, [pc, #456]	; (8002fc4 <HAL_RCC_OscConfig+0x298>)
 8002dfa:	4313      	orrs	r3, r2
 8002dfc:	604b      	str	r3, [r1, #4]
 8002dfe:	e025      	b.n	8002e4c <HAL_RCC_OscConfig+0x120>
 8002e00:	4b70      	ldr	r3, [pc, #448]	; (8002fc4 <HAL_RCC_OscConfig+0x298>)
 8002e02:	681b      	ldr	r3, [r3, #0]
 8002e04:	4a6f      	ldr	r2, [pc, #444]	; (8002fc4 <HAL_RCC_OscConfig+0x298>)
 8002e06:	f043 0308 	orr.w	r3, r3, #8
 8002e0a:	6013      	str	r3, [r2, #0]
 8002e0c:	4b6d      	ldr	r3, [pc, #436]	; (8002fc4 <HAL_RCC_OscConfig+0x298>)
 8002e0e:	681b      	ldr	r3, [r3, #0]
 8002e10:	f023 02f0 	bic.w	r2, r3, #240	; 0xf0
 8002e14:	687b      	ldr	r3, [r7, #4]
 8002e16:	6a1b      	ldr	r3, [r3, #32]
 8002e18:	496a      	ldr	r1, [pc, #424]	; (8002fc4 <HAL_RCC_OscConfig+0x298>)
 8002e1a:	4313      	orrs	r3, r2
 8002e1c:	600b      	str	r3, [r1, #0]
 8002e1e:	4b69      	ldr	r3, [pc, #420]	; (8002fc4 <HAL_RCC_OscConfig+0x298>)
 8002e20:	685b      	ldr	r3, [r3, #4]
 8002e22:	f423 427f 	bic.w	r2, r3, #65280	; 0xff00
 8002e26:	687b      	ldr	r3, [r7, #4]
 8002e28:	69db      	ldr	r3, [r3, #28]
 8002e2a:	021b      	lsls	r3, r3, #8
 8002e2c:	4965      	ldr	r1, [pc, #404]	; (8002fc4 <HAL_RCC_OscConfig+0x298>)
 8002e2e:	4313      	orrs	r3, r2
 8002e30:	604b      	str	r3, [r1, #4]
 8002e32:	69bb      	ldr	r3, [r7, #24]
 8002e34:	2b00      	cmp	r3, #0
 8002e36:	d109      	bne.n	8002e4c <HAL_RCC_OscConfig+0x120>
 8002e38:	687b      	ldr	r3, [r7, #4]
 8002e3a:	6a1b      	ldr	r3, [r3, #32]
 8002e3c:	4618      	mov	r0, r3
 8002e3e:	f000 fd45 	bl	80038cc <RCC_SetFlashLatencyFromMSIRange>
 8002e42:	4603      	mov	r3, r0
 8002e44:	2b00      	cmp	r3, #0
 8002e46:	d001      	beq.n	8002e4c <HAL_RCC_OscConfig+0x120>
 8002e48:	2301      	movs	r3, #1
 8002e4a:	e33f      	b.n	80034cc <HAL_RCC_OscConfig+0x7a0>
 8002e4c:	f000 fc48 	bl	80036e0 <HAL_RCC_GetSysClockFreq>
 8002e50:	4602      	mov	r2, r0
 8002e52:	4b5c      	ldr	r3, [pc, #368]	; (8002fc4 <HAL_RCC_OscConfig+0x298>)
 8002e54:	689b      	ldr	r3, [r3, #8]
 8002e56:	091b      	lsrs	r3, r3, #4
 8002e58:	f003 030f 	and.w	r3, r3, #15
 8002e5c:	495a      	ldr	r1, [pc, #360]	; (8002fc8 <HAL_RCC_OscConfig+0x29c>)
 8002e5e:	5ccb      	ldrb	r3, [r1, r3]
 8002e60:	f003 031f 	and.w	r3, r3, #31
 8002e64:	fa22 f303 	lsr.w	r3, r2, r3
 8002e68:	4a58      	ldr	r2, [pc, #352]	; (8002fcc <HAL_RCC_OscConfig+0x2a0>)
 8002e6a:	6013      	str	r3, [r2, #0]
 8002e6c:	4b58      	ldr	r3, [pc, #352]	; (8002fd0 <HAL_RCC_OscConfig+0x2a4>)
 8002e6e:	681b      	ldr	r3, [r3, #0]
 8002e70:	4618      	mov	r0, r3
 8002e72:	f7fd fe4d 	bl	8000b10 <HAL_InitTick>
 8002e76:	4603      	mov	r3, r0
 8002e78:	73fb      	strb	r3, [r7, #15]
 8002e7a:	7bfb      	ldrb	r3, [r7, #15]
 8002e7c:	2b00      	cmp	r3, #0
 8002e7e:	d052      	beq.n	8002f26 <HAL_RCC_OscConfig+0x1fa>
 8002e80:	7bfb      	ldrb	r3, [r7, #15]
 8002e82:	e323      	b.n	80034cc <HAL_RCC_OscConfig+0x7a0>
 8002e84:	687b      	ldr	r3, [r7, #4]
 8002e86:	699b      	ldr	r3, [r3, #24]
 8002e88:	2b00      	cmp	r3, #0
 8002e8a:	d032      	beq.n	8002ef2 <HAL_RCC_OscConfig+0x1c6>
 8002e8c:	4b4d      	ldr	r3, [pc, #308]	; (8002fc4 <HAL_RCC_OscConfig+0x298>)
 8002e8e:	681b      	ldr	r3, [r3, #0]
 8002e90:	4a4c      	ldr	r2, [pc, #304]	; (8002fc4 <HAL_RCC_OscConfig+0x298>)
 8002e92:	f043 0301 	orr.w	r3, r3, #1
 8002e96:	6013      	str	r3, [r2, #0]
 8002e98:	f7fe f82c 	bl	8000ef4 <HAL_GetTick>
 8002e9c:	6138      	str	r0, [r7, #16]
 8002e9e:	e008      	b.n	8002eb2 <HAL_RCC_OscConfig+0x186>
 8002ea0:	f7fe f828 	bl	8000ef4 <HAL_GetTick>
 8002ea4:	4602      	mov	r2, r0
 8002ea6:	693b      	ldr	r3, [r7, #16]
 8002ea8:	1ad3      	subs	r3, r2, r3
 8002eaa:	2b02      	cmp	r3, #2
 8002eac:	d901      	bls.n	8002eb2 <HAL_RCC_OscConfig+0x186>
 8002eae:	2303      	movs	r3, #3
 8002eb0:	e30c      	b.n	80034cc <HAL_RCC_OscConfig+0x7a0>
 8002eb2:	4b44      	ldr	r3, [pc, #272]	; (8002fc4 <HAL_RCC_OscConfig+0x298>)
 8002eb4:	681b      	ldr	r3, [r3, #0]
 8002eb6:	f003 0302 	and.w	r3, r3, #2
 8002eba:	2b00      	cmp	r3, #0
 8002ebc:	d0f0      	beq.n	8002ea0 <HAL_RCC_OscConfig+0x174>
 8002ebe:	4b41      	ldr	r3, [pc, #260]	; (8002fc4 <HAL_RCC_OscConfig+0x298>)
 8002ec0:	681b      	ldr	r3, [r3, #0]
 8002ec2:	4a40      	ldr	r2, [pc, #256]	; (8002fc4 <HAL_RCC_OscConfig+0x298>)
 8002ec4:	f043 0308 	orr.w	r3, r3, #8
 8002ec8:	6013      	str	r3, [r2, #0]
 8002eca:	4b3e      	ldr	r3, [pc, #248]	; (8002fc4 <HAL_RCC_OscConfig+0x298>)
 8002ecc:	681b      	ldr	r3, [r3, #0]
 8002ece:	f023 02f0 	bic.w	r2, r3, #240	; 0xf0
 8002ed2:	687b      	ldr	r3, [r7, #4]
 8002ed4:	6a1b      	ldr	r3, [r3, #32]
 8002ed6:	493b      	ldr	r1, [pc, #236]	; (8002fc4 <HAL_RCC_OscConfig+0x298>)
 8002ed8:	4313      	orrs	r3, r2
 8002eda:	600b      	str	r3, [r1, #0]
 8002edc:	4b39      	ldr	r3, [pc, #228]	; (8002fc4 <HAL_RCC_OscConfig+0x298>)
 8002ede:	685b      	ldr	r3, [r3, #4]
 8002ee0:	f423 427f 	bic.w	r2, r3, #65280	; 0xff00
 8002ee4:	687b      	ldr	r3, [r7, #4]
 8002ee6:	69db      	ldr	r3, [r3, #28]
 8002ee8:	021b      	lsls	r3, r3, #8
 8002eea:	4936      	ldr	r1, [pc, #216]	; (8002fc4 <HAL_RCC_OscConfig+0x298>)
 8002eec:	4313      	orrs	r3, r2
 8002eee:	604b      	str	r3, [r1, #4]
 8002ef0:	e01a      	b.n	8002f28 <HAL_RCC_OscConfig+0x1fc>
 8002ef2:	4b34      	ldr	r3, [pc, #208]	; (8002fc4 <HAL_RCC_OscConfig+0x298>)
 8002ef4:	681b      	ldr	r3, [r3, #0]
 8002ef6:	4a33      	ldr	r2, [pc, #204]	; (8002fc4 <HAL_RCC_OscConfig+0x298>)
 8002ef8:	f023 0301 	bic.w	r3, r3, #1
 8002efc:	6013      	str	r3, [r2, #0]
 8002efe:	f7fd fff9 	bl	8000ef4 <HAL_GetTick>
 8002f02:	6138      	str	r0, [r7, #16]
 8002f04:	e008      	b.n	8002f18 <HAL_RCC_OscConfig+0x1ec>
 8002f06:	f7fd fff5 	bl	8000ef4 <HAL_GetTick>
 8002f0a:	4602      	mov	r2, r0
 8002f0c:	693b      	ldr	r3, [r7, #16]
 8002f0e:	1ad3      	subs	r3, r2, r3
 8002f10:	2b02      	cmp	r3, #2
 8002f12:	d901      	bls.n	8002f18 <HAL_RCC_OscConfig+0x1ec>
 8002f14:	2303      	movs	r3, #3
 8002f16:	e2d9      	b.n	80034cc <HAL_RCC_OscConfig+0x7a0>
 8002f18:	4b2a      	ldr	r3, [pc, #168]	; (8002fc4 <HAL_RCC_OscConfig+0x298>)
 8002f1a:	681b      	ldr	r3, [r3, #0]
 8002f1c:	f003 0302 	and.w	r3, r3, #2
 8002f20:	2b00      	cmp	r3, #0
 8002f22:	d1f0      	bne.n	8002f06 <HAL_RCC_OscConfig+0x1da>
 8002f24:	e000      	b.n	8002f28 <HAL_RCC_OscConfig+0x1fc>
 8002f26:	bf00      	nop
 8002f28:	687b      	ldr	r3, [r7, #4]
 8002f2a:	681b      	ldr	r3, [r3, #0]
 8002f2c:	f003 0301 	and.w	r3, r3, #1
 8002f30:	2b00      	cmp	r3, #0
 8002f32:	d074      	beq.n	800301e <HAL_RCC_OscConfig+0x2f2>
 8002f34:	69bb      	ldr	r3, [r7, #24]
 8002f36:	2b08      	cmp	r3, #8
 8002f38:	d005      	beq.n	8002f46 <HAL_RCC_OscConfig+0x21a>
 8002f3a:	69bb      	ldr	r3, [r7, #24]
 8002f3c:	2b0c      	cmp	r3, #12
 8002f3e:	d10e      	bne.n	8002f5e <HAL_RCC_OscConfig+0x232>
 8002f40:	697b      	ldr	r3, [r7, #20]
 8002f42:	2b03      	cmp	r3, #3
 8002f44:	d10b      	bne.n	8002f5e <HAL_RCC_OscConfig+0x232>
 8002f46:	4b1f      	ldr	r3, [pc, #124]	; (8002fc4 <HAL_RCC_OscConfig+0x298>)
 8002f48:	681b      	ldr	r3, [r3, #0]
 8002f4a:	f403 3300 	and.w	r3, r3, #131072	; 0x20000
 8002f4e:	2b00      	cmp	r3, #0
 8002f50:	d064      	beq.n	800301c <HAL_RCC_OscConfig+0x2f0>
 8002f52:	687b      	ldr	r3, [r7, #4]
 8002f54:	685b      	ldr	r3, [r3, #4]
 8002f56:	2b00      	cmp	r3, #0
 8002f58:	d160      	bne.n	800301c <HAL_RCC_OscConfig+0x2f0>
 8002f5a:	2301      	movs	r3, #1
 8002f5c:	e2b6      	b.n	80034cc <HAL_RCC_OscConfig+0x7a0>
 8002f5e:	687b      	ldr	r3, [r7, #4]
 8002f60:	685b      	ldr	r3, [r3, #4]
 8002f62:	f5b3 3f80 	cmp.w	r3, #65536	; 0x10000
 8002f66:	d106      	bne.n	8002f76 <HAL_RCC_OscConfig+0x24a>
 8002f68:	4b16      	ldr	r3, [pc, #88]	; (8002fc4 <HAL_RCC_OscConfig+0x298>)
 8002f6a:	681b      	ldr	r3, [r3, #0]
 8002f6c:	4a15      	ldr	r2, [pc, #84]	; (8002fc4 <HAL_RCC_OscConfig+0x298>)
 8002f6e:	f443 3380 	orr.w	r3, r3, #65536	; 0x10000
 8002f72:	6013      	str	r3, [r2, #0]
 8002f74:	e01d      	b.n	8002fb2 <HAL_RCC_OscConfig+0x286>
 8002f76:	687b      	ldr	r3, [r7, #4]
 8002f78:	685b      	ldr	r3, [r3, #4]
 8002f7a:	f5b3 2fa0 	cmp.w	r3, #327680	; 0x50000
 8002f7e:	d10c      	bne.n	8002f9a <HAL_RCC_OscConfig+0x26e>
 8002f80:	4b10      	ldr	r3, [pc, #64]	; (8002fc4 <HAL_RCC_OscConfig+0x298>)
 8002f82:	681b      	ldr	r3, [r3, #0]
 8002f84:	4a0f      	ldr	r2, [pc, #60]	; (8002fc4 <HAL_RCC_OscConfig+0x298>)
 8002f86:	f443 2380 	orr.w	r3, r3, #262144	; 0x40000
 8002f8a:	6013      	str	r3, [r2, #0]
 8002f8c:	4b0d      	ldr	r3, [pc, #52]	; (8002fc4 <HAL_RCC_OscConfig+0x298>)
 8002f8e:	681b      	ldr	r3, [r3, #0]
 8002f90:	4a0c      	ldr	r2, [pc, #48]	; (8002fc4 <HAL_RCC_OscConfig+0x298>)
 8002f92:	f443 3380 	orr.w	r3, r3, #65536	; 0x10000
 8002f96:	6013      	str	r3, [r2, #0]
 8002f98:	e00b      	b.n	8002fb2 <HAL_RCC_OscConfig+0x286>
 8002f9a:	4b0a      	ldr	r3, [pc, #40]	; (8002fc4 <HAL_RCC_OscConfig+0x298>)
 8002f9c:	681b      	ldr	r3, [r3, #0]
 8002f9e:	4a09      	ldr	r2, [pc, #36]	; (8002fc4 <HAL_RCC_OscConfig+0x298>)
 8002fa0:	f423 3380 	bic.w	r3, r3, #65536	; 0x10000
 8002fa4:	6013      	str	r3, [r2, #0]
 8002fa6:	4b07      	ldr	r3, [pc, #28]	; (8002fc4 <HAL_RCC_OscConfig+0x298>)
 8002fa8:	681b      	ldr	r3, [r3, #0]
 8002faa:	4a06      	ldr	r2, [pc, #24]	; (8002fc4 <HAL_RCC_OscConfig+0x298>)
 8002fac:	f423 2380 	bic.w	r3, r3, #262144	; 0x40000
 8002fb0:	6013      	str	r3, [r2, #0]
 8002fb2:	687b      	ldr	r3, [r7, #4]
 8002fb4:	685b      	ldr	r3, [r3, #4]
 8002fb6:	2b00      	cmp	r3, #0
 8002fb8:	d01c      	beq.n	8002ff4 <HAL_RCC_OscConfig+0x2c8>
 8002fba:	f7fd ff9b 	bl	8000ef4 <HAL_GetTick>
 8002fbe:	6138      	str	r0, [r7, #16]
 8002fc0:	e011      	b.n	8002fe6 <HAL_RCC_OscConfig+0x2ba>
 8002fc2:	bf00      	nop
 8002fc4:	40021000 	.word	0x40021000
 8002fc8:	080072e0 	.word	0x080072e0
 8002fcc:	20000000 	.word	0x20000000
 8002fd0:	20000004 	.word	0x20000004
 8002fd4:	f7fd ff8e 	bl	8000ef4 <HAL_GetTick>
 8002fd8:	4602      	mov	r2, r0
 8002fda:	693b      	ldr	r3, [r7, #16]
 8002fdc:	1ad3      	subs	r3, r2, r3
 8002fde:	2b64      	cmp	r3, #100	; 0x64
 8002fe0:	d901      	bls.n	8002fe6 <HAL_RCC_OscConfig+0x2ba>
 8002fe2:	2303      	movs	r3, #3
 8002fe4:	e272      	b.n	80034cc <HAL_RCC_OscConfig+0x7a0>
 8002fe6:	4baf      	ldr	r3, [pc, #700]	; (80032a4 <HAL_RCC_OscConfig+0x578>)
 8002fe8:	681b      	ldr	r3, [r3, #0]
 8002fea:	f403 3300 	and.w	r3, r3, #131072	; 0x20000
 8002fee:	2b00      	cmp	r3, #0
 8002ff0:	d0f0      	beq.n	8002fd4 <HAL_RCC_OscConfig+0x2a8>
 8002ff2:	e014      	b.n	800301e <HAL_RCC_OscConfig+0x2f2>
 8002ff4:	f7fd ff7e 	bl	8000ef4 <HAL_GetTick>
 8002ff8:	6138      	str	r0, [r7, #16]
 8002ffa:	e008      	b.n	800300e <HAL_RCC_OscConfig+0x2e2>
 8002ffc:	f7fd ff7a 	bl	8000ef4 <HAL_GetTick>
 8003000:	4602      	mov	r2, r0
 8003002:	693b      	ldr	r3, [r7, #16]
 8003004:	1ad3      	subs	r3, r2, r3
 8003006:	2b64      	cmp	r3, #100	; 0x64
 8003008:	d901      	bls.n	800300e <HAL_RCC_OscConfig+0x2e2>
 800300a:	2303      	movs	r3, #3
 800300c:	e25e      	b.n	80034cc <HAL_RCC_OscConfig+0x7a0>
 800300e:	4ba5      	ldr	r3, [pc, #660]	; (80032a4 <HAL_RCC_OscConfig+0x578>)
 8003010:	681b      	ldr	r3, [r3, #0]
 8003012:	f403 3300 	and.w	r3, r3, #131072	; 0x20000
 8003016:	2b00      	cmp	r3, #0
 8003018:	d1f0      	bne.n	8002ffc <HAL_RCC_OscConfig+0x2d0>
 800301a:	e000      	b.n	800301e <HAL_RCC_OscConfig+0x2f2>
 800301c:	bf00      	nop
 800301e:	687b      	ldr	r3, [r7, #4]
 8003020:	681b      	ldr	r3, [r3, #0]
 8003022:	f003 0302 	and.w	r3, r3, #2
 8003026:	2b00      	cmp	r3, #0
 8003028:	d060      	beq.n	80030ec <HAL_RCC_OscConfig+0x3c0>
 800302a:	69bb      	ldr	r3, [r7, #24]
 800302c:	2b04      	cmp	r3, #4
 800302e:	d005      	beq.n	800303c <HAL_RCC_OscConfig+0x310>
 8003030:	69bb      	ldr	r3, [r7, #24]
 8003032:	2b0c      	cmp	r3, #12
 8003034:	d119      	bne.n	800306a <HAL_RCC_OscConfig+0x33e>
 8003036:	697b      	ldr	r3, [r7, #20]
 8003038:	2b02      	cmp	r3, #2
 800303a:	d116      	bne.n	800306a <HAL_RCC_OscConfig+0x33e>
 800303c:	4b99      	ldr	r3, [pc, #612]	; (80032a4 <HAL_RCC_OscConfig+0x578>)
 800303e:	681b      	ldr	r3, [r3, #0]
 8003040:	f403 6380 	and.w	r3, r3, #1024	; 0x400
 8003044:	2b00      	cmp	r3, #0
 8003046:	d005      	beq.n	8003054 <HAL_RCC_OscConfig+0x328>
 8003048:	687b      	ldr	r3, [r7, #4]
 800304a:	68db      	ldr	r3, [r3, #12]
 800304c:	2b00      	cmp	r3, #0
 800304e:	d101      	bne.n	8003054 <HAL_RCC_OscConfig+0x328>
 8003050:	2301      	movs	r3, #1
 8003052:	e23b      	b.n	80034cc <HAL_RCC_OscConfig+0x7a0>
 8003054:	4b93      	ldr	r3, [pc, #588]	; (80032a4 <HAL_RCC_OscConfig+0x578>)
 8003056:	685b      	ldr	r3, [r3, #4]
 8003058:	f023 52f8 	bic.w	r2, r3, #520093696	; 0x1f000000
 800305c:	687b      	ldr	r3, [r7, #4]
 800305e:	691b      	ldr	r3, [r3, #16]
 8003060:	061b      	lsls	r3, r3, #24
 8003062:	4990      	ldr	r1, [pc, #576]	; (80032a4 <HAL_RCC_OscConfig+0x578>)
 8003064:	4313      	orrs	r3, r2
 8003066:	604b      	str	r3, [r1, #4]
 8003068:	e040      	b.n	80030ec <HAL_RCC_OscConfig+0x3c0>
 800306a:	687b      	ldr	r3, [r7, #4]
 800306c:	68db      	ldr	r3, [r3, #12]
 800306e:	2b00      	cmp	r3, #0
 8003070:	d023      	beq.n	80030ba <HAL_RCC_OscConfig+0x38e>
 8003072:	4b8c      	ldr	r3, [pc, #560]	; (80032a4 <HAL_RCC_OscConfig+0x578>)
 8003074:	681b      	ldr	r3, [r3, #0]
 8003076:	4a8b      	ldr	r2, [pc, #556]	; (80032a4 <HAL_RCC_OscConfig+0x578>)
 8003078:	f443 7380 	orr.w	r3, r3, #256	; 0x100
 800307c:	6013      	str	r3, [r2, #0]
 800307e:	f7fd ff39 	bl	8000ef4 <HAL_GetTick>
 8003082:	6138      	str	r0, [r7, #16]
 8003084:	e008      	b.n	8003098 <HAL_RCC_OscConfig+0x36c>
 8003086:	f7fd ff35 	bl	8000ef4 <HAL_GetTick>
 800308a:	4602      	mov	r2, r0
 800308c:	693b      	ldr	r3, [r7, #16]
 800308e:	1ad3      	subs	r3, r2, r3
 8003090:	2b02      	cmp	r3, #2
 8003092:	d901      	bls.n	8003098 <HAL_RCC_OscConfig+0x36c>
 8003094:	2303      	movs	r3, #3
 8003096:	e219      	b.n	80034cc <HAL_RCC_OscConfig+0x7a0>
 8003098:	4b82      	ldr	r3, [pc, #520]	; (80032a4 <HAL_RCC_OscConfig+0x578>)
 800309a:	681b      	ldr	r3, [r3, #0]
 800309c:	f403 6380 	and.w	r3, r3, #1024	; 0x400
 80030a0:	2b00      	cmp	r3, #0
 80030a2:	d0f0      	beq.n	8003086 <HAL_RCC_OscConfig+0x35a>
 80030a4:	4b7f      	ldr	r3, [pc, #508]	; (80032a4 <HAL_RCC_OscConfig+0x578>)
 80030a6:	685b      	ldr	r3, [r3, #4]
 80030a8:	f023 52f8 	bic.w	r2, r3, #520093696	; 0x1f000000
 80030ac:	687b      	ldr	r3, [r7, #4]
 80030ae:	691b      	ldr	r3, [r3, #16]
 80030b0:	061b      	lsls	r3, r3, #24
 80030b2:	497c      	ldr	r1, [pc, #496]	; (80032a4 <HAL_RCC_OscConfig+0x578>)
 80030b4:	4313      	orrs	r3, r2
 80030b6:	604b      	str	r3, [r1, #4]
 80030b8:	e018      	b.n	80030ec <HAL_RCC_OscConfig+0x3c0>
 80030ba:	4b7a      	ldr	r3, [pc, #488]	; (80032a4 <HAL_RCC_OscConfig+0x578>)
 80030bc:	681b      	ldr	r3, [r3, #0]
 80030be:	4a79      	ldr	r2, [pc, #484]	; (80032a4 <HAL_RCC_OscConfig+0x578>)
 80030c0:	f423 7380 	bic.w	r3, r3, #256	; 0x100
 80030c4:	6013      	str	r3, [r2, #0]
 80030c6:	f7fd ff15 	bl	8000ef4 <HAL_GetTick>
 80030ca:	6138      	str	r0, [r7, #16]
 80030cc:	e008      	b.n	80030e0 <HAL_RCC_OscConfig+0x3b4>
 80030ce:	f7fd ff11 	bl	8000ef4 <HAL_GetTick>
 80030d2:	4602      	mov	r2, r0
 80030d4:	693b      	ldr	r3, [r7, #16]
 80030d6:	1ad3      	subs	r3, r2, r3
 80030d8:	2b02      	cmp	r3, #2
 80030da:	d901      	bls.n	80030e0 <HAL_RCC_OscConfig+0x3b4>
 80030dc:	2303      	movs	r3, #3
 80030de:	e1f5      	b.n	80034cc <HAL_RCC_OscConfig+0x7a0>
 80030e0:	4b70      	ldr	r3, [pc, #448]	; (80032a4 <HAL_RCC_OscConfig+0x578>)
 80030e2:	681b      	ldr	r3, [r3, #0]
 80030e4:	f403 6380 	and.w	r3, r3, #1024	; 0x400
 80030e8:	2b00      	cmp	r3, #0
 80030ea:	d1f0      	bne.n	80030ce <HAL_RCC_OscConfig+0x3a2>
 80030ec:	687b      	ldr	r3, [r7, #4]
 80030ee:	681b      	ldr	r3, [r3, #0]
 80030f0:	f003 0308 	and.w	r3, r3, #8
 80030f4:	2b00      	cmp	r3, #0
 80030f6:	d03c      	beq.n	8003172 <HAL_RCC_OscConfig+0x446>
 80030f8:	687b      	ldr	r3, [r7, #4]
 80030fa:	695b      	ldr	r3, [r3, #20]
 80030fc:	2b00      	cmp	r3, #0
 80030fe:	d01c      	beq.n	800313a <HAL_RCC_OscConfig+0x40e>
 8003100:	4b68      	ldr	r3, [pc, #416]	; (80032a4 <HAL_RCC_OscConfig+0x578>)
 8003102:	f8d3 3094 	ldr.w	r3, [r3, #148]	; 0x94
 8003106:	4a67      	ldr	r2, [pc, #412]	; (80032a4 <HAL_RCC_OscConfig+0x578>)
 8003108:	f043 0301 	orr.w	r3, r3, #1
 800310c:	f8c2 3094 	str.w	r3, [r2, #148]	; 0x94
 8003110:	f7fd fef0 	bl	8000ef4 <HAL_GetTick>
 8003114:	6138      	str	r0, [r7, #16]
 8003116:	e008      	b.n	800312a <HAL_RCC_OscConfig+0x3fe>
 8003118:	f7fd feec 	bl	8000ef4 <HAL_GetTick>
 800311c:	4602      	mov	r2, r0
 800311e:	693b      	ldr	r3, [r7, #16]
 8003120:	1ad3      	subs	r3, r2, r3
 8003122:	2b02      	cmp	r3, #2
 8003124:	d901      	bls.n	800312a <HAL_RCC_OscConfig+0x3fe>
 8003126:	2303      	movs	r3, #3
 8003128:	e1d0      	b.n	80034cc <HAL_RCC_OscConfig+0x7a0>
 800312a:	4b5e      	ldr	r3, [pc, #376]	; (80032a4 <HAL_RCC_OscConfig+0x578>)
 800312c:	f8d3 3094 	ldr.w	r3, [r3, #148]	; 0x94
 8003130:	f003 0302 	and.w	r3, r3, #2
 8003134:	2b00      	cmp	r3, #0
 8003136:	d0ef      	beq.n	8003118 <HAL_RCC_OscConfig+0x3ec>
 8003138:	e01b      	b.n	8003172 <HAL_RCC_OscConfig+0x446>
 800313a:	4b5a      	ldr	r3, [pc, #360]	; (80032a4 <HAL_RCC_OscConfig+0x578>)
 800313c:	f8d3 3094 	ldr.w	r3, [r3, #148]	; 0x94
 8003140:	4a58      	ldr	r2, [pc, #352]	; (80032a4 <HAL_RCC_OscConfig+0x578>)
 8003142:	f023 0301 	bic.w	r3, r3, #1
 8003146:	f8c2 3094 	str.w	r3, [r2, #148]	; 0x94
 800314a:	f7fd fed3 	bl	8000ef4 <HAL_GetTick>
 800314e:	6138      	str	r0, [r7, #16]
 8003150:	e008      	b.n	8003164 <HAL_RCC_OscConfig+0x438>
 8003152:	f7fd fecf 	bl	8000ef4 <HAL_GetTick>
 8003156:	4602      	mov	r2, r0
 8003158:	693b      	ldr	r3, [r7, #16]
 800315a:	1ad3      	subs	r3, r2, r3
 800315c:	2b02      	cmp	r3, #2
 800315e:	d901      	bls.n	8003164 <HAL_RCC_OscConfig+0x438>
 8003160:	2303      	movs	r3, #3
 8003162:	e1b3      	b.n	80034cc <HAL_RCC_OscConfig+0x7a0>
 8003164:	4b4f      	ldr	r3, [pc, #316]	; (80032a4 <HAL_RCC_OscConfig+0x578>)
 8003166:	f8d3 3094 	ldr.w	r3, [r3, #148]	; 0x94
 800316a:	f003 0302 	and.w	r3, r3, #2
 800316e:	2b00      	cmp	r3, #0
 8003170:	d1ef      	bne.n	8003152 <HAL_RCC_OscConfig+0x426>
 8003172:	687b      	ldr	r3, [r7, #4]
 8003174:	681b      	ldr	r3, [r3, #0]
 8003176:	f003 0304 	and.w	r3, r3, #4
 800317a:	2b00      	cmp	r3, #0
 800317c:	f000 80a6 	beq.w	80032cc <HAL_RCC_OscConfig+0x5a0>
 8003180:	2300      	movs	r3, #0
 8003182:	77fb      	strb	r3, [r7, #31]
 8003184:	4b47      	ldr	r3, [pc, #284]	; (80032a4 <HAL_RCC_OscConfig+0x578>)
 8003186:	6d9b      	ldr	r3, [r3, #88]	; 0x58
 8003188:	f003 5380 	and.w	r3, r3, #268435456	; 0x10000000
 800318c:	2b00      	cmp	r3, #0
 800318e:	d10d      	bne.n	80031ac <HAL_RCC_OscConfig+0x480>
 8003190:	4b44      	ldr	r3, [pc, #272]	; (80032a4 <HAL_RCC_OscConfig+0x578>)
 8003192:	6d9b      	ldr	r3, [r3, #88]	; 0x58
 8003194:	4a43      	ldr	r2, [pc, #268]	; (80032a4 <HAL_RCC_OscConfig+0x578>)
 8003196:	f043 5380 	orr.w	r3, r3, #268435456	; 0x10000000
 800319a:	6593      	str	r3, [r2, #88]	; 0x58
 800319c:	4b41      	ldr	r3, [pc, #260]	; (80032a4 <HAL_RCC_OscConfig+0x578>)
 800319e:	6d9b      	ldr	r3, [r3, #88]	; 0x58
 80031a0:	f003 5380 	and.w	r3, r3, #268435456	; 0x10000000
 80031a4:	60bb      	str	r3, [r7, #8]
 80031a6:	68bb      	ldr	r3, [r7, #8]
 80031a8:	2301      	movs	r3, #1
 80031aa:	77fb      	strb	r3, [r7, #31]
 80031ac:	4b3e      	ldr	r3, [pc, #248]	; (80032a8 <HAL_RCC_OscConfig+0x57c>)
 80031ae:	681b      	ldr	r3, [r3, #0]
 80031b0:	f403 7380 	and.w	r3, r3, #256	; 0x100
 80031b4:	2b00      	cmp	r3, #0
 80031b6:	d118      	bne.n	80031ea <HAL_RCC_OscConfig+0x4be>
 80031b8:	4b3b      	ldr	r3, [pc, #236]	; (80032a8 <HAL_RCC_OscConfig+0x57c>)
 80031ba:	681b      	ldr	r3, [r3, #0]
 80031bc:	4a3a      	ldr	r2, [pc, #232]	; (80032a8 <HAL_RCC_OscConfig+0x57c>)
 80031be:	f443 7380 	orr.w	r3, r3, #256	; 0x100
 80031c2:	6013      	str	r3, [r2, #0]
 80031c4:	f7fd fe96 	bl	8000ef4 <HAL_GetTick>
 80031c8:	6138      	str	r0, [r7, #16]
 80031ca:	e008      	b.n	80031de <HAL_RCC_OscConfig+0x4b2>
 80031cc:	f7fd fe92 	bl	8000ef4 <HAL_GetTick>
 80031d0:	4602      	mov	r2, r0
 80031d2:	693b      	ldr	r3, [r7, #16]
 80031d4:	1ad3      	subs	r3, r2, r3
 80031d6:	2b02      	cmp	r3, #2
 80031d8:	d901      	bls.n	80031de <HAL_RCC_OscConfig+0x4b2>
 80031da:	2303      	movs	r3, #3
 80031dc:	e176      	b.n	80034cc <HAL_RCC_OscConfig+0x7a0>
 80031de:	4b32      	ldr	r3, [pc, #200]	; (80032a8 <HAL_RCC_OscConfig+0x57c>)
 80031e0:	681b      	ldr	r3, [r3, #0]
 80031e2:	f403 7380 	and.w	r3, r3, #256	; 0x100
 80031e6:	2b00      	cmp	r3, #0
 80031e8:	d0f0      	beq.n	80031cc <HAL_RCC_OscConfig+0x4a0>
 80031ea:	687b      	ldr	r3, [r7, #4]
 80031ec:	689b      	ldr	r3, [r3, #8]
 80031ee:	2b01      	cmp	r3, #1
 80031f0:	d108      	bne.n	8003204 <HAL_RCC_OscConfig+0x4d8>
 80031f2:	4b2c      	ldr	r3, [pc, #176]	; (80032a4 <HAL_RCC_OscConfig+0x578>)
 80031f4:	f8d3 3090 	ldr.w	r3, [r3, #144]	; 0x90
 80031f8:	4a2a      	ldr	r2, [pc, #168]	; (80032a4 <HAL_RCC_OscConfig+0x578>)
 80031fa:	f043 0301 	orr.w	r3, r3, #1
 80031fe:	f8c2 3090 	str.w	r3, [r2, #144]	; 0x90
 8003202:	e024      	b.n	800324e <HAL_RCC_OscConfig+0x522>
 8003204:	687b      	ldr	r3, [r7, #4]
 8003206:	689b      	ldr	r3, [r3, #8]
 8003208:	2b05      	cmp	r3, #5
 800320a:	d110      	bne.n	800322e <HAL_RCC_OscConfig+0x502>
 800320c:	4b25      	ldr	r3, [pc, #148]	; (80032a4 <HAL_RCC_OscConfig+0x578>)
 800320e:	f8d3 3090 	ldr.w	r3, [r3, #144]	; 0x90
 8003212:	4a24      	ldr	r2, [pc, #144]	; (80032a4 <HAL_RCC_OscConfig+0x578>)
 8003214:	f043 0304 	orr.w	r3, r3, #4
 8003218:	f8c2 3090 	str.w	r3, [r2, #144]	; 0x90
 800321c:	4b21      	ldr	r3, [pc, #132]	; (80032a4 <HAL_RCC_OscConfig+0x578>)
 800321e:	f8d3 3090 	ldr.w	r3, [r3, #144]	; 0x90
 8003222:	4a20      	ldr	r2, [pc, #128]	; (80032a4 <HAL_RCC_OscConfig+0x578>)
 8003224:	f043 0301 	orr.w	r3, r3, #1
 8003228:	f8c2 3090 	str.w	r3, [r2, #144]	; 0x90
 800322c:	e00f      	b.n	800324e <HAL_RCC_OscConfig+0x522>
 800322e:	4b1d      	ldr	r3, [pc, #116]	; (80032a4 <HAL_RCC_OscConfig+0x578>)
 8003230:	f8d3 3090 	ldr.w	r3, [r3, #144]	; 0x90
 8003234:	4a1b      	ldr	r2, [pc, #108]	; (80032a4 <HAL_RCC_OscConfig+0x578>)
 8003236:	f023 0301 	bic.w	r3, r3, #1
 800323a:	f8c2 3090 	str.w	r3, [r2, #144]	; 0x90
 800323e:	4b19      	ldr	r3, [pc, #100]	; (80032a4 <HAL_RCC_OscConfig+0x578>)
 8003240:	f8d3 3090 	ldr.w	r3, [r3, #144]	; 0x90
 8003244:	4a17      	ldr	r2, [pc, #92]	; (80032a4 <HAL_RCC_OscConfig+0x578>)
 8003246:	f023 0304 	bic.w	r3, r3, #4
 800324a:	f8c2 3090 	str.w	r3, [r2, #144]	; 0x90
 800324e:	687b      	ldr	r3, [r7, #4]
 8003250:	689b      	ldr	r3, [r3, #8]
 8003252:	2b00      	cmp	r3, #0
 8003254:	d016      	beq.n	8003284 <HAL_RCC_OscConfig+0x558>
 8003256:	f7fd fe4d 	bl	8000ef4 <HAL_GetTick>
 800325a:	6138      	str	r0, [r7, #16]
 800325c:	e00a      	b.n	8003274 <HAL_RCC_OscConfig+0x548>
 800325e:	f7fd fe49 	bl	8000ef4 <HAL_GetTick>
 8003262:	4602      	mov	r2, r0
 8003264:	693b      	ldr	r3, [r7, #16]
 8003266:	1ad3      	subs	r3, r2, r3
 8003268:	f241 3288 	movw	r2, #5000	; 0x1388
 800326c:	4293      	cmp	r3, r2
 800326e:	d901      	bls.n	8003274 <HAL_RCC_OscConfig+0x548>
 8003270:	2303      	movs	r3, #3
 8003272:	e12b      	b.n	80034cc <HAL_RCC_OscConfig+0x7a0>
 8003274:	4b0b      	ldr	r3, [pc, #44]	; (80032a4 <HAL_RCC_OscConfig+0x578>)
 8003276:	f8d3 3090 	ldr.w	r3, [r3, #144]	; 0x90
 800327a:	f003 0302 	and.w	r3, r3, #2
 800327e:	2b00      	cmp	r3, #0
 8003280:	d0ed      	beq.n	800325e <HAL_RCC_OscConfig+0x532>
 8003282:	e01a      	b.n	80032ba <HAL_RCC_OscConfig+0x58e>
 8003284:	f7fd fe36 	bl	8000ef4 <HAL_GetTick>
 8003288:	6138      	str	r0, [r7, #16]
 800328a:	e00f      	b.n	80032ac <HAL_RCC_OscConfig+0x580>
 800328c:	f7fd fe32 	bl	8000ef4 <HAL_GetTick>
 8003290:	4602      	mov	r2, r0
 8003292:	693b      	ldr	r3, [r7, #16]
 8003294:	1ad3      	subs	r3, r2, r3
 8003296:	f241 3288 	movw	r2, #5000	; 0x1388
 800329a:	4293      	cmp	r3, r2
 800329c:	d906      	bls.n	80032ac <HAL_RCC_OscConfig+0x580>
 800329e:	2303      	movs	r3, #3
 80032a0:	e114      	b.n	80034cc <HAL_RCC_OscConfig+0x7a0>
 80032a2:	bf00      	nop
 80032a4:	40021000 	.word	0x40021000
 80032a8:	40007000 	.word	0x40007000
 80032ac:	4b89      	ldr	r3, [pc, #548]	; (80034d4 <HAL_RCC_OscConfig+0x7a8>)
 80032ae:	f8d3 3090 	ldr.w	r3, [r3, #144]	; 0x90
 80032b2:	f003 0302 	and.w	r3, r3, #2
 80032b6:	2b00      	cmp	r3, #0
 80032b8:	d1e8      	bne.n	800328c <HAL_RCC_OscConfig+0x560>
 80032ba:	7ffb      	ldrb	r3, [r7, #31]
 80032bc:	2b01      	cmp	r3, #1
 80032be:	d105      	bne.n	80032cc <HAL_RCC_OscConfig+0x5a0>
 80032c0:	4b84      	ldr	r3, [pc, #528]	; (80034d4 <HAL_RCC_OscConfig+0x7a8>)
 80032c2:	6d9b      	ldr	r3, [r3, #88]	; 0x58
 80032c4:	4a83      	ldr	r2, [pc, #524]	; (80034d4 <HAL_RCC_OscConfig+0x7a8>)
 80032c6:	f023 5380 	bic.w	r3, r3, #268435456	; 0x10000000
 80032ca:	6593      	str	r3, [r2, #88]	; 0x58
 80032cc:	687b      	ldr	r3, [r7, #4]
 80032ce:	6a9b      	ldr	r3, [r3, #40]	; 0x28
 80032d0:	2b00      	cmp	r3, #0
 80032d2:	f000 80fa 	beq.w	80034ca <HAL_RCC_OscConfig+0x79e>
 80032d6:	687b      	ldr	r3, [r7, #4]
 80032d8:	6a9b      	ldr	r3, [r3, #40]	; 0x28
 80032da:	2b02      	cmp	r3, #2
 80032dc:	f040 80d0 	bne.w	8003480 <HAL_RCC_OscConfig+0x754>
 80032e0:	4b7c      	ldr	r3, [pc, #496]	; (80034d4 <HAL_RCC_OscConfig+0x7a8>)
 80032e2:	68db      	ldr	r3, [r3, #12]
 80032e4:	617b      	str	r3, [r7, #20]
 80032e6:	697b      	ldr	r3, [r7, #20]
 80032e8:	f003 0203 	and.w	r2, r3, #3
 80032ec:	687b      	ldr	r3, [r7, #4]
 80032ee:	6adb      	ldr	r3, [r3, #44]	; 0x2c
 80032f0:	429a      	cmp	r2, r3
 80032f2:	d130      	bne.n	8003356 <HAL_RCC_OscConfig+0x62a>
 80032f4:	697b      	ldr	r3, [r7, #20]
 80032f6:	f003 0270 	and.w	r2, r3, #112	; 0x70
 80032fa:	687b      	ldr	r3, [r7, #4]
 80032fc:	6b1b      	ldr	r3, [r3, #48]	; 0x30
 80032fe:	3b01      	subs	r3, #1
 8003300:	011b      	lsls	r3, r3, #4
 8003302:	429a      	cmp	r2, r3
 8003304:	d127      	bne.n	8003356 <HAL_RCC_OscConfig+0x62a>
 8003306:	697b      	ldr	r3, [r7, #20]
 8003308:	f403 42fe 	and.w	r2, r3, #32512	; 0x7f00
 800330c:	687b      	ldr	r3, [r7, #4]
 800330e:	6b5b      	ldr	r3, [r3, #52]	; 0x34
 8003310:	021b      	lsls	r3, r3, #8
 8003312:	429a      	cmp	r2, r3
 8003314:	d11f      	bne.n	8003356 <HAL_RCC_OscConfig+0x62a>
 8003316:	697b      	ldr	r3, [r7, #20]
 8003318:	f403 3300 	and.w	r3, r3, #131072	; 0x20000
 800331c:	687a      	ldr	r2, [r7, #4]
 800331e:	6b92      	ldr	r2, [r2, #56]	; 0x38
 8003320:	2a07      	cmp	r2, #7
 8003322:	bf14      	ite	ne
 8003324:	2201      	movne	r2, #1
 8003326:	2200      	moveq	r2, #0
 8003328:	b2d2      	uxtb	r2, r2
 800332a:	4293      	cmp	r3, r2
 800332c:	d113      	bne.n	8003356 <HAL_RCC_OscConfig+0x62a>
 800332e:	697b      	ldr	r3, [r7, #20]
 8003330:	f403 02c0 	and.w	r2, r3, #6291456	; 0x600000
 8003334:	687b      	ldr	r3, [r7, #4]
 8003336:	6bdb      	ldr	r3, [r3, #60]	; 0x3c
 8003338:	085b      	lsrs	r3, r3, #1
 800333a:	3b01      	subs	r3, #1
 800333c:	055b      	lsls	r3, r3, #21
 800333e:	429a      	cmp	r2, r3
 8003340:	d109      	bne.n	8003356 <HAL_RCC_OscConfig+0x62a>
 8003342:	697b      	ldr	r3, [r7, #20]
 8003344:	f003 62c0 	and.w	r2, r3, #100663296	; 0x6000000
 8003348:	687b      	ldr	r3, [r7, #4]
 800334a:	6c1b      	ldr	r3, [r3, #64]	; 0x40
 800334c:	085b      	lsrs	r3, r3, #1
 800334e:	3b01      	subs	r3, #1
 8003350:	065b      	lsls	r3, r3, #25
 8003352:	429a      	cmp	r2, r3
 8003354:	d06e      	beq.n	8003434 <HAL_RCC_OscConfig+0x708>
 8003356:	69bb      	ldr	r3, [r7, #24]
 8003358:	2b0c      	cmp	r3, #12
 800335a:	d069      	beq.n	8003430 <HAL_RCC_OscConfig+0x704>
 800335c:	4b5d      	ldr	r3, [pc, #372]	; (80034d4 <HAL_RCC_OscConfig+0x7a8>)
 800335e:	681b      	ldr	r3, [r3, #0]
 8003360:	f003 6380 	and.w	r3, r3, #67108864	; 0x4000000
 8003364:	2b00      	cmp	r3, #0
 8003366:	d105      	bne.n	8003374 <HAL_RCC_OscConfig+0x648>
 8003368:	4b5a      	ldr	r3, [pc, #360]	; (80034d4 <HAL_RCC_OscConfig+0x7a8>)
 800336a:	681b      	ldr	r3, [r3, #0]
 800336c:	f003 5380 	and.w	r3, r3, #268435456	; 0x10000000
 8003370:	2b00      	cmp	r3, #0
 8003372:	d001      	beq.n	8003378 <HAL_RCC_OscConfig+0x64c>
 8003374:	2301      	movs	r3, #1
 8003376:	e0a9      	b.n	80034cc <HAL_RCC_OscConfig+0x7a0>
 8003378:	4b56      	ldr	r3, [pc, #344]	; (80034d4 <HAL_RCC_OscConfig+0x7a8>)
 800337a:	681b      	ldr	r3, [r3, #0]
 800337c:	4a55      	ldr	r2, [pc, #340]	; (80034d4 <HAL_RCC_OscConfig+0x7a8>)
 800337e:	f023 7380 	bic.w	r3, r3, #16777216	; 0x1000000
 8003382:	6013      	str	r3, [r2, #0]
 8003384:	f7fd fdb6 	bl	8000ef4 <HAL_GetTick>
 8003388:	6138      	str	r0, [r7, #16]
 800338a:	e008      	b.n	800339e <HAL_RCC_OscConfig+0x672>
 800338c:	f7fd fdb2 	bl	8000ef4 <HAL_GetTick>
 8003390:	4602      	mov	r2, r0
 8003392:	693b      	ldr	r3, [r7, #16]
 8003394:	1ad3      	subs	r3, r2, r3
 8003396:	2b02      	cmp	r3, #2
 8003398:	d901      	bls.n	800339e <HAL_RCC_OscConfig+0x672>
 800339a:	2303      	movs	r3, #3
 800339c:	e096      	b.n	80034cc <HAL_RCC_OscConfig+0x7a0>
 800339e:	4b4d      	ldr	r3, [pc, #308]	; (80034d4 <HAL_RCC_OscConfig+0x7a8>)
 80033a0:	681b      	ldr	r3, [r3, #0]
 80033a2:	f003 7300 	and.w	r3, r3, #33554432	; 0x2000000
 80033a6:	2b00      	cmp	r3, #0
 80033a8:	d1f0      	bne.n	800338c <HAL_RCC_OscConfig+0x660>
 80033aa:	4b4a      	ldr	r3, [pc, #296]	; (80034d4 <HAL_RCC_OscConfig+0x7a8>)
 80033ac:	68da      	ldr	r2, [r3, #12]
 80033ae:	4b4a      	ldr	r3, [pc, #296]	; (80034d8 <HAL_RCC_OscConfig+0x7ac>)
 80033b0:	4013      	ands	r3, r2
 80033b2:	687a      	ldr	r2, [r7, #4]
 80033b4:	6ad1      	ldr	r1, [r2, #44]	; 0x2c
 80033b6:	687a      	ldr	r2, [r7, #4]
 80033b8:	6b12      	ldr	r2, [r2, #48]	; 0x30
 80033ba:	3a01      	subs	r2, #1
 80033bc:	0112      	lsls	r2, r2, #4
 80033be:	4311      	orrs	r1, r2
 80033c0:	687a      	ldr	r2, [r7, #4]
 80033c2:	6b52      	ldr	r2, [r2, #52]	; 0x34
 80033c4:	0212      	lsls	r2, r2, #8
 80033c6:	4311      	orrs	r1, r2
 80033c8:	687a      	ldr	r2, [r7, #4]
 80033ca:	6bd2      	ldr	r2, [r2, #60]	; 0x3c
 80033cc:	0852      	lsrs	r2, r2, #1
 80033ce:	3a01      	subs	r2, #1
 80033d0:	0552      	lsls	r2, r2, #21
 80033d2:	4311      	orrs	r1, r2
 80033d4:	687a      	ldr	r2, [r7, #4]
 80033d6:	6c12      	ldr	r2, [r2, #64]	; 0x40
 80033d8:	0852      	lsrs	r2, r2, #1
 80033da:	3a01      	subs	r2, #1
 80033dc:	0652      	lsls	r2, r2, #25
 80033de:	4311      	orrs	r1, r2
 80033e0:	687a      	ldr	r2, [r7, #4]
 80033e2:	6b92      	ldr	r2, [r2, #56]	; 0x38
 80033e4:	0912      	lsrs	r2, r2, #4
 80033e6:	0452      	lsls	r2, r2, #17
 80033e8:	430a      	orrs	r2, r1
 80033ea:	493a      	ldr	r1, [pc, #232]	; (80034d4 <HAL_RCC_OscConfig+0x7a8>)
 80033ec:	4313      	orrs	r3, r2
 80033ee:	60cb      	str	r3, [r1, #12]
 80033f0:	4b38      	ldr	r3, [pc, #224]	; (80034d4 <HAL_RCC_OscConfig+0x7a8>)
 80033f2:	681b      	ldr	r3, [r3, #0]
 80033f4:	4a37      	ldr	r2, [pc, #220]	; (80034d4 <HAL_RCC_OscConfig+0x7a8>)
 80033f6:	f043 7380 	orr.w	r3, r3, #16777216	; 0x1000000
 80033fa:	6013      	str	r3, [r2, #0]
 80033fc:	4b35      	ldr	r3, [pc, #212]	; (80034d4 <HAL_RCC_OscConfig+0x7a8>)
 80033fe:	68db      	ldr	r3, [r3, #12]
 8003400:	4a34      	ldr	r2, [pc, #208]	; (80034d4 <HAL_RCC_OscConfig+0x7a8>)
 8003402:	f043 7380 	orr.w	r3, r3, #16777216	; 0x1000000
 8003406:	60d3      	str	r3, [r2, #12]
 8003408:	f7fd fd74 	bl	8000ef4 <HAL_GetTick>
 800340c:	6138      	str	r0, [r7, #16]
 800340e:	e008      	b.n	8003422 <HAL_RCC_OscConfig+0x6f6>
 8003410:	f7fd fd70 	bl	8000ef4 <HAL_GetTick>
 8003414:	4602      	mov	r2, r0
 8003416:	693b      	ldr	r3, [r7, #16]
 8003418:	1ad3      	subs	r3, r2, r3
 800341a:	2b02      	cmp	r3, #2
 800341c:	d901      	bls.n	8003422 <HAL_RCC_OscConfig+0x6f6>
 800341e:	2303      	movs	r3, #3
 8003420:	e054      	b.n	80034cc <HAL_RCC_OscConfig+0x7a0>
 8003422:	4b2c      	ldr	r3, [pc, #176]	; (80034d4 <HAL_RCC_OscConfig+0x7a8>)
 8003424:	681b      	ldr	r3, [r3, #0]
 8003426:	f003 7300 	and.w	r3, r3, #33554432	; 0x2000000
 800342a:	2b00      	cmp	r3, #0
 800342c:	d0f0      	beq.n	8003410 <HAL_RCC_OscConfig+0x6e4>
 800342e:	e04c      	b.n	80034ca <HAL_RCC_OscConfig+0x79e>
 8003430:	2301      	movs	r3, #1
 8003432:	e04b      	b.n	80034cc <HAL_RCC_OscConfig+0x7a0>
 8003434:	4b27      	ldr	r3, [pc, #156]	; (80034d4 <HAL_RCC_OscConfig+0x7a8>)
 8003436:	681b      	ldr	r3, [r3, #0]
 8003438:	f003 7300 	and.w	r3, r3, #33554432	; 0x2000000
 800343c:	2b00      	cmp	r3, #0
 800343e:	d144      	bne.n	80034ca <HAL_RCC_OscConfig+0x79e>
 8003440:	4b24      	ldr	r3, [pc, #144]	; (80034d4 <HAL_RCC_OscConfig+0x7a8>)
 8003442:	681b      	ldr	r3, [r3, #0]
 8003444:	4a23      	ldr	r2, [pc, #140]	; (80034d4 <HAL_RCC_OscConfig+0x7a8>)
 8003446:	f043 7380 	orr.w	r3, r3, #16777216	; 0x1000000
 800344a:	6013      	str	r3, [r2, #0]
 800344c:	4b21      	ldr	r3, [pc, #132]	; (80034d4 <HAL_RCC_OscConfig+0x7a8>)
 800344e:	68db      	ldr	r3, [r3, #12]
 8003450:	4a20      	ldr	r2, [pc, #128]	; (80034d4 <HAL_RCC_OscConfig+0x7a8>)
 8003452:	f043 7380 	orr.w	r3, r3, #16777216	; 0x1000000
 8003456:	60d3      	str	r3, [r2, #12]
 8003458:	f7fd fd4c 	bl	8000ef4 <HAL_GetTick>
 800345c:	6138      	str	r0, [r7, #16]
 800345e:	e008      	b.n	8003472 <HAL_RCC_OscConfig+0x746>
 8003460:	f7fd fd48 	bl	8000ef4 <HAL_GetTick>
 8003464:	4602      	mov	r2, r0
 8003466:	693b      	ldr	r3, [r7, #16]
 8003468:	1ad3      	subs	r3, r2, r3
 800346a:	2b02      	cmp	r3, #2
 800346c:	d901      	bls.n	8003472 <HAL_RCC_OscConfig+0x746>
 800346e:	2303      	movs	r3, #3
 8003470:	e02c      	b.n	80034cc <HAL_RCC_OscConfig+0x7a0>
 8003472:	4b18      	ldr	r3, [pc, #96]	; (80034d4 <HAL_RCC_OscConfig+0x7a8>)
 8003474:	681b      	ldr	r3, [r3, #0]
 8003476:	f003 7300 	and.w	r3, r3, #33554432	; 0x2000000
 800347a:	2b00      	cmp	r3, #0
 800347c:	d0f0      	beq.n	8003460 <HAL_RCC_OscConfig+0x734>
 800347e:	e024      	b.n	80034ca <HAL_RCC_OscConfig+0x79e>
 8003480:	69bb      	ldr	r3, [r7, #24]
 8003482:	2b0c      	cmp	r3, #12
 8003484:	d01f      	beq.n	80034c6 <HAL_RCC_OscConfig+0x79a>
 8003486:	4b13      	ldr	r3, [pc, #76]	; (80034d4 <HAL_RCC_OscConfig+0x7a8>)
 8003488:	681b      	ldr	r3, [r3, #0]
 800348a:	4a12      	ldr	r2, [pc, #72]	; (80034d4 <HAL_RCC_OscConfig+0x7a8>)
 800348c:	f023 7380 	bic.w	r3, r3, #16777216	; 0x1000000
 8003490:	6013      	str	r3, [r2, #0]
 8003492:	f7fd fd2f 	bl	8000ef4 <HAL_GetTick>
 8003496:	6138      	str	r0, [r7, #16]
 8003498:	e008      	b.n	80034ac <HAL_RCC_OscConfig+0x780>
 800349a:	f7fd fd2b 	bl	8000ef4 <HAL_GetTick>
 800349e:	4602      	mov	r2, r0
 80034a0:	693b      	ldr	r3, [r7, #16]
 80034a2:	1ad3      	subs	r3, r2, r3
 80034a4:	2b02      	cmp	r3, #2
 80034a6:	d901      	bls.n	80034ac <HAL_RCC_OscConfig+0x780>
 80034a8:	2303      	movs	r3, #3
 80034aa:	e00f      	b.n	80034cc <HAL_RCC_OscConfig+0x7a0>
 80034ac:	4b09      	ldr	r3, [pc, #36]	; (80034d4 <HAL_RCC_OscConfig+0x7a8>)
 80034ae:	681b      	ldr	r3, [r3, #0]
 80034b0:	f003 7300 	and.w	r3, r3, #33554432	; 0x2000000
 80034b4:	2b00      	cmp	r3, #0
 80034b6:	d1f0      	bne.n	800349a <HAL_RCC_OscConfig+0x76e>
 80034b8:	4b06      	ldr	r3, [pc, #24]	; (80034d4 <HAL_RCC_OscConfig+0x7a8>)
 80034ba:	68da      	ldr	r2, [r3, #12]
 80034bc:	4905      	ldr	r1, [pc, #20]	; (80034d4 <HAL_RCC_OscConfig+0x7a8>)
 80034be:	4b07      	ldr	r3, [pc, #28]	; (80034dc <HAL_RCC_OscConfig+0x7b0>)
 80034c0:	4013      	ands	r3, r2
 80034c2:	60cb      	str	r3, [r1, #12]
 80034c4:	e001      	b.n	80034ca <HAL_RCC_OscConfig+0x79e>
 80034c6:	2301      	movs	r3, #1
 80034c8:	e000      	b.n	80034cc <HAL_RCC_OscConfig+0x7a0>
 80034ca:	2300      	movs	r3, #0
 80034cc:	4618      	mov	r0, r3
 80034ce:	3720      	adds	r7, #32
 80034d0:	46bd      	mov	sp, r7
 80034d2:	bd80      	pop	{r7, pc}
 80034d4:	40021000 	.word	0x40021000
 80034d8:	f99d808c 	.word	0xf99d808c
 80034dc:	feeefffc 	.word	0xfeeefffc

080034e0 <HAL_RCC_ClockConfig>:
 80034e0:	b580      	push	{r7, lr}
 80034e2:	b084      	sub	sp, #16
 80034e4:	af00      	add	r7, sp, #0
 80034e6:	6078      	str	r0, [r7, #4]
 80034e8:	6039      	str	r1, [r7, #0]
 80034ea:	687b      	ldr	r3, [r7, #4]
 80034ec:	2b00      	cmp	r3, #0
 80034ee:	d101      	bne.n	80034f4 <HAL_RCC_ClockConfig+0x14>
 80034f0:	2301      	movs	r3, #1
 80034f2:	e0e7      	b.n	80036c4 <HAL_RCC_ClockConfig+0x1e4>
 80034f4:	4b75      	ldr	r3, [pc, #468]	; (80036cc <HAL_RCC_ClockConfig+0x1ec>)
 80034f6:	681b      	ldr	r3, [r3, #0]
 80034f8:	f003 0307 	and.w	r3, r3, #7
 80034fc:	683a      	ldr	r2, [r7, #0]
 80034fe:	429a      	cmp	r2, r3
 8003500:	d910      	bls.n	8003524 <HAL_RCC_ClockConfig+0x44>
 8003502:	4b72      	ldr	r3, [pc, #456]	; (80036cc <HAL_RCC_ClockConfig+0x1ec>)
 8003504:	681b      	ldr	r3, [r3, #0]
 8003506:	f023 0207 	bic.w	r2, r3, #7
 800350a:	4970      	ldr	r1, [pc, #448]	; (80036cc <HAL_RCC_ClockConfig+0x1ec>)
 800350c:	683b      	ldr	r3, [r7, #0]
 800350e:	4313      	orrs	r3, r2
 8003510:	600b      	str	r3, [r1, #0]
 8003512:	4b6e      	ldr	r3, [pc, #440]	; (80036cc <HAL_RCC_ClockConfig+0x1ec>)
 8003514:	681b      	ldr	r3, [r3, #0]
 8003516:	f003 0307 	and.w	r3, r3, #7
 800351a:	683a      	ldr	r2, [r7, #0]
 800351c:	429a      	cmp	r2, r3
 800351e:	d001      	beq.n	8003524 <HAL_RCC_ClockConfig+0x44>
 8003520:	2301      	movs	r3, #1
 8003522:	e0cf      	b.n	80036c4 <HAL_RCC_ClockConfig+0x1e4>
 8003524:	687b      	ldr	r3, [r7, #4]
 8003526:	681b      	ldr	r3, [r3, #0]
 8003528:	f003 0302 	and.w	r3, r3, #2
 800352c:	2b00      	cmp	r3, #0
 800352e:	d010      	beq.n	8003552 <HAL_RCC_ClockConfig+0x72>
 8003530:	687b      	ldr	r3, [r7, #4]
 8003532:	689a      	ldr	r2, [r3, #8]
 8003534:	4b66      	ldr	r3, [pc, #408]	; (80036d0 <HAL_RCC_ClockConfig+0x1f0>)
 8003536:	689b      	ldr	r3, [r3, #8]
 8003538:	f003 03f0 	and.w	r3, r3, #240	; 0xf0
 800353c:	429a      	cmp	r2, r3
 800353e:	d908      	bls.n	8003552 <HAL_RCC_ClockConfig+0x72>
 8003540:	4b63      	ldr	r3, [pc, #396]	; (80036d0 <HAL_RCC_ClockConfig+0x1f0>)
 8003542:	689b      	ldr	r3, [r3, #8]
 8003544:	f023 02f0 	bic.w	r2, r3, #240	; 0xf0
 8003548:	687b      	ldr	r3, [r7, #4]
 800354a:	689b      	ldr	r3, [r3, #8]
 800354c:	4960      	ldr	r1, [pc, #384]	; (80036d0 <HAL_RCC_ClockConfig+0x1f0>)
 800354e:	4313      	orrs	r3, r2
 8003550:	608b      	str	r3, [r1, #8]
 8003552:	687b      	ldr	r3, [r7, #4]
 8003554:	681b      	ldr	r3, [r3, #0]
 8003556:	f003 0301 	and.w	r3, r3, #1
 800355a:	2b00      	cmp	r3, #0
 800355c:	d04c      	beq.n	80035f8 <HAL_RCC_ClockConfig+0x118>
 800355e:	687b      	ldr	r3, [r7, #4]
 8003560:	685b      	ldr	r3, [r3, #4]
 8003562:	2b03      	cmp	r3, #3
 8003564:	d107      	bne.n	8003576 <HAL_RCC_ClockConfig+0x96>
 8003566:	4b5a      	ldr	r3, [pc, #360]	; (80036d0 <HAL_RCC_ClockConfig+0x1f0>)
 8003568:	681b      	ldr	r3, [r3, #0]
 800356a:	f003 7300 	and.w	r3, r3, #33554432	; 0x2000000
 800356e:	2b00      	cmp	r3, #0
 8003570:	d121      	bne.n	80035b6 <HAL_RCC_ClockConfig+0xd6>
 8003572:	2301      	movs	r3, #1
 8003574:	e0a6      	b.n	80036c4 <HAL_RCC_ClockConfig+0x1e4>
 8003576:	687b      	ldr	r3, [r7, #4]
 8003578:	685b      	ldr	r3, [r3, #4]
 800357a:	2b02      	cmp	r3, #2
 800357c:	d107      	bne.n	800358e <HAL_RCC_ClockConfig+0xae>
 800357e:	4b54      	ldr	r3, [pc, #336]	; (80036d0 <HAL_RCC_ClockConfig+0x1f0>)
 8003580:	681b      	ldr	r3, [r3, #0]
 8003582:	f403 3300 	and.w	r3, r3, #131072	; 0x20000
 8003586:	2b00      	cmp	r3, #0
 8003588:	d115      	bne.n	80035b6 <HAL_RCC_ClockConfig+0xd6>
 800358a:	2301      	movs	r3, #1
 800358c:	e09a      	b.n	80036c4 <HAL_RCC_ClockConfig+0x1e4>
 800358e:	687b      	ldr	r3, [r7, #4]
 8003590:	685b      	ldr	r3, [r3, #4]
 8003592:	2b00      	cmp	r3, #0
 8003594:	d107      	bne.n	80035a6 <HAL_RCC_ClockConfig+0xc6>
 8003596:	4b4e      	ldr	r3, [pc, #312]	; (80036d0 <HAL_RCC_ClockConfig+0x1f0>)
 8003598:	681b      	ldr	r3, [r3, #0]
 800359a:	f003 0302 	and.w	r3, r3, #2
 800359e:	2b00      	cmp	r3, #0
 80035a0:	d109      	bne.n	80035b6 <HAL_RCC_ClockConfig+0xd6>
 80035a2:	2301      	movs	r3, #1
 80035a4:	e08e      	b.n	80036c4 <HAL_RCC_ClockConfig+0x1e4>
 80035a6:	4b4a      	ldr	r3, [pc, #296]	; (80036d0 <HAL_RCC_ClockConfig+0x1f0>)
 80035a8:	681b      	ldr	r3, [r3, #0]
 80035aa:	f403 6380 	and.w	r3, r3, #1024	; 0x400
 80035ae:	2b00      	cmp	r3, #0
 80035b0:	d101      	bne.n	80035b6 <HAL_RCC_ClockConfig+0xd6>
 80035b2:	2301      	movs	r3, #1
 80035b4:	e086      	b.n	80036c4 <HAL_RCC_ClockConfig+0x1e4>
 80035b6:	4b46      	ldr	r3, [pc, #280]	; (80036d0 <HAL_RCC_ClockConfig+0x1f0>)
 80035b8:	689b      	ldr	r3, [r3, #8]
 80035ba:	f023 0203 	bic.w	r2, r3, #3
 80035be:	687b      	ldr	r3, [r7, #4]
 80035c0:	685b      	ldr	r3, [r3, #4]
 80035c2:	4943      	ldr	r1, [pc, #268]	; (80036d0 <HAL_RCC_ClockConfig+0x1f0>)
 80035c4:	4313      	orrs	r3, r2
 80035c6:	608b      	str	r3, [r1, #8]
 80035c8:	f7fd fc94 	bl	8000ef4 <HAL_GetTick>
 80035cc:	60f8      	str	r0, [r7, #12]
 80035ce:	e00a      	b.n	80035e6 <HAL_RCC_ClockConfig+0x106>
 80035d0:	f7fd fc90 	bl	8000ef4 <HAL_GetTick>
 80035d4:	4602      	mov	r2, r0
 80035d6:	68fb      	ldr	r3, [r7, #12]
 80035d8:	1ad3      	subs	r3, r2, r3
 80035da:	f241 3288 	movw	r2, #5000	; 0x1388
 80035de:	4293      	cmp	r3, r2
 80035e0:	d901      	bls.n	80035e6 <HAL_RCC_ClockConfig+0x106>
 80035e2:	2303      	movs	r3, #3
 80035e4:	e06e      	b.n	80036c4 <HAL_RCC_ClockConfig+0x1e4>
 80035e6:	4b3a      	ldr	r3, [pc, #232]	; (80036d0 <HAL_RCC_ClockConfig+0x1f0>)
 80035e8:	689b      	ldr	r3, [r3, #8]
 80035ea:	f003 020c 	and.w	r2, r3, #12
 80035ee:	687b      	ldr	r3, [r7, #4]
 80035f0:	685b      	ldr	r3, [r3, #4]
 80035f2:	009b      	lsls	r3, r3, #2
 80035f4:	429a      	cmp	r2, r3
 80035f6:	d1eb      	bne.n	80035d0 <HAL_RCC_ClockConfig+0xf0>
 80035f8:	687b      	ldr	r3, [r7, #4]
 80035fa:	681b      	ldr	r3, [r3, #0]
 80035fc:	f003 0302 	and.w	r3, r3, #2
 8003600:	2b00      	cmp	r3, #0
 8003602:	d010      	beq.n	8003626 <HAL_RCC_ClockConfig+0x146>
 8003604:	687b      	ldr	r3, [r7, #4]
 8003606:	689a      	ldr	r2, [r3, #8]
 8003608:	4b31      	ldr	r3, [pc, #196]	; (80036d0 <HAL_RCC_ClockConfig+0x1f0>)
 800360a:	689b      	ldr	r3, [r3, #8]
 800360c:	f003 03f0 	and.w	r3, r3, #240	; 0xf0
 8003610:	429a      	cmp	r2, r3
 8003612:	d208      	bcs.n	8003626 <HAL_RCC_ClockConfig+0x146>
 8003614:	4b2e      	ldr	r3, [pc, #184]	; (80036d0 <HAL_RCC_ClockConfig+0x1f0>)
 8003616:	689b      	ldr	r3, [r3, #8]
 8003618:	f023 02f0 	bic.w	r2, r3, #240	; 0xf0
 800361c:	687b      	ldr	r3, [r7, #4]
 800361e:	689b      	ldr	r3, [r3, #8]
 8003620:	492b      	ldr	r1, [pc, #172]	; (80036d0 <HAL_RCC_ClockConfig+0x1f0>)
 8003622:	4313      	orrs	r3, r2
 8003624:	608b      	str	r3, [r1, #8]
 8003626:	4b29      	ldr	r3, [pc, #164]	; (80036cc <HAL_RCC_ClockConfig+0x1ec>)
 8003628:	681b      	ldr	r3, [r3, #0]
 800362a:	f003 0307 	and.w	r3, r3, #7
 800362e:	683a      	ldr	r2, [r7, #0]
 8003630:	429a      	cmp	r2, r3
 8003632:	d210      	bcs.n	8003656 <HAL_RCC_ClockConfig+0x176>
 8003634:	4b25      	ldr	r3, [pc, #148]	; (80036cc <HAL_RCC_ClockConfig+0x1ec>)
 8003636:	681b      	ldr	r3, [r3, #0]
 8003638:	f023 0207 	bic.w	r2, r3, #7
 800363c:	4923      	ldr	r1, [pc, #140]	; (80036cc <HAL_RCC_ClockConfig+0x1ec>)
 800363e:	683b      	ldr	r3, [r7, #0]
 8003640:	4313      	orrs	r3, r2
 8003642:	600b      	str	r3, [r1, #0]
 8003644:	4b21      	ldr	r3, [pc, #132]	; (80036cc <HAL_RCC_ClockConfig+0x1ec>)
 8003646:	681b      	ldr	r3, [r3, #0]
 8003648:	f003 0307 	and.w	r3, r3, #7
 800364c:	683a      	ldr	r2, [r7, #0]
 800364e:	429a      	cmp	r2, r3
 8003650:	d001      	beq.n	8003656 <HAL_RCC_ClockConfig+0x176>
 8003652:	2301      	movs	r3, #1
 8003654:	e036      	b.n	80036c4 <HAL_RCC_ClockConfig+0x1e4>
 8003656:	687b      	ldr	r3, [r7, #4]
 8003658:	681b      	ldr	r3, [r3, #0]
 800365a:	f003 0304 	and.w	r3, r3, #4
 800365e:	2b00      	cmp	r3, #0
 8003660:	d008      	beq.n	8003674 <HAL_RCC_ClockConfig+0x194>
 8003662:	4b1b      	ldr	r3, [pc, #108]	; (80036d0 <HAL_RCC_ClockConfig+0x1f0>)
 8003664:	689b      	ldr	r3, [r3, #8]
 8003666:	f423 62e0 	bic.w	r2, r3, #1792	; 0x700
 800366a:	687b      	ldr	r3, [r7, #4]
 800366c:	68db      	ldr	r3, [r3, #12]
 800366e:	4918      	ldr	r1, [pc, #96]	; (80036d0 <HAL_RCC_ClockConfig+0x1f0>)
 8003670:	4313      	orrs	r3, r2
 8003672:	608b      	str	r3, [r1, #8]
 8003674:	687b      	ldr	r3, [r7, #4]
 8003676:	681b      	ldr	r3, [r3, #0]
 8003678:	f003 0308 	and.w	r3, r3, #8
 800367c:	2b00      	cmp	r3, #0
 800367e:	d009      	beq.n	8003694 <HAL_RCC_ClockConfig+0x1b4>
 8003680:	4b13      	ldr	r3, [pc, #76]	; (80036d0 <HAL_RCC_ClockConfig+0x1f0>)
 8003682:	689b      	ldr	r3, [r3, #8]
 8003684:	f423 5260 	bic.w	r2, r3, #14336	; 0x3800
 8003688:	687b      	ldr	r3, [r7, #4]
 800368a:	691b      	ldr	r3, [r3, #16]
 800368c:	00db      	lsls	r3, r3, #3
 800368e:	4910      	ldr	r1, [pc, #64]	; (80036d0 <HAL_RCC_ClockConfig+0x1f0>)
 8003690:	4313      	orrs	r3, r2
 8003692:	608b      	str	r3, [r1, #8]
 8003694:	f000 f824 	bl	80036e0 <HAL_RCC_GetSysClockFreq>
 8003698:	4602      	mov	r2, r0
 800369a:	4b0d      	ldr	r3, [pc, #52]	; (80036d0 <HAL_RCC_ClockConfig+0x1f0>)
 800369c:	689b      	ldr	r3, [r3, #8]
 800369e:	091b      	lsrs	r3, r3, #4
 80036a0:	f003 030f 	and.w	r3, r3, #15
 80036a4:	490b      	ldr	r1, [pc, #44]	; (80036d4 <HAL_RCC_ClockConfig+0x1f4>)
 80036a6:	5ccb      	ldrb	r3, [r1, r3]
 80036a8:	f003 031f 	and.w	r3, r3, #31
 80036ac:	fa22 f303 	lsr.w	r3, r2, r3
 80036b0:	4a09      	ldr	r2, [pc, #36]	; (80036d8 <HAL_RCC_ClockConfig+0x1f8>)
 80036b2:	6013      	str	r3, [r2, #0]
 80036b4:	4b09      	ldr	r3, [pc, #36]	; (80036dc <HAL_RCC_ClockConfig+0x1fc>)
 80036b6:	681b      	ldr	r3, [r3, #0]
 80036b8:	4618      	mov	r0, r3
 80036ba:	f7fd fa29 	bl	8000b10 <HAL_InitTick>
 80036be:	4603      	mov	r3, r0
 80036c0:	72fb      	strb	r3, [r7, #11]
 80036c2:	7afb      	ldrb	r3, [r7, #11]
 80036c4:	4618      	mov	r0, r3
 80036c6:	3710      	adds	r7, #16
 80036c8:	46bd      	mov	sp, r7
 80036ca:	bd80      	pop	{r7, pc}
 80036cc:	40022000 	.word	0x40022000
 80036d0:	40021000 	.word	0x40021000
 80036d4:	080072e0 	.word	0x080072e0
 80036d8:	20000000 	.word	0x20000000
 80036dc:	20000004 	.word	0x20000004

080036e0 <HAL_RCC_GetSysClockFreq>:
 80036e0:	b480      	push	{r7}
 80036e2:	b089      	sub	sp, #36	; 0x24
 80036e4:	af00      	add	r7, sp, #0
 80036e6:	2300      	movs	r3, #0
 80036e8:	61fb      	str	r3, [r7, #28]
 80036ea:	2300      	movs	r3, #0
 80036ec:	61bb      	str	r3, [r7, #24]
 80036ee:	4b3e      	ldr	r3, [pc, #248]	; (80037e8 <HAL_RCC_GetSysClockFreq+0x108>)
 80036f0:	689b      	ldr	r3, [r3, #8]
 80036f2:	f003 030c 	and.w	r3, r3, #12
 80036f6:	613b      	str	r3, [r7, #16]
 80036f8:	4b3b      	ldr	r3, [pc, #236]	; (80037e8 <HAL_RCC_GetSysClockFreq+0x108>)
 80036fa:	68db      	ldr	r3, [r3, #12]
 80036fc:	f003 0303 	and.w	r3, r3, #3
 8003700:	60fb      	str	r3, [r7, #12]
 8003702:	693b      	ldr	r3, [r7, #16]
 8003704:	2b00      	cmp	r3, #0
 8003706:	d005      	beq.n	8003714 <HAL_RCC_GetSysClockFreq+0x34>
 8003708:	693b      	ldr	r3, [r7, #16]
 800370a:	2b0c      	cmp	r3, #12
 800370c:	d121      	bne.n	8003752 <HAL_RCC_GetSysClockFreq+0x72>
 800370e:	68fb      	ldr	r3, [r7, #12]
 8003710:	2b01      	cmp	r3, #1
 8003712:	d11e      	bne.n	8003752 <HAL_RCC_GetSysClockFreq+0x72>
 8003714:	4b34      	ldr	r3, [pc, #208]	; (80037e8 <HAL_RCC_GetSysClockFreq+0x108>)
 8003716:	681b      	ldr	r3, [r3, #0]
 8003718:	f003 0308 	and.w	r3, r3, #8
 800371c:	2b00      	cmp	r3, #0
 800371e:	d107      	bne.n	8003730 <HAL_RCC_GetSysClockFreq+0x50>
 8003720:	4b31      	ldr	r3, [pc, #196]	; (80037e8 <HAL_RCC_GetSysClockFreq+0x108>)
 8003722:	f8d3 3094 	ldr.w	r3, [r3, #148]	; 0x94
 8003726:	0a1b      	lsrs	r3, r3, #8
 8003728:	f003 030f 	and.w	r3, r3, #15
 800372c:	61fb      	str	r3, [r7, #28]
 800372e:	e005      	b.n	800373c <HAL_RCC_GetSysClockFreq+0x5c>
 8003730:	4b2d      	ldr	r3, [pc, #180]	; (80037e8 <HAL_RCC_GetSysClockFreq+0x108>)
 8003732:	681b      	ldr	r3, [r3, #0]
 8003734:	091b      	lsrs	r3, r3, #4
 8003736:	f003 030f 	and.w	r3, r3, #15
 800373a:	61fb      	str	r3, [r7, #28]
 800373c:	4a2b      	ldr	r2, [pc, #172]	; (80037ec <HAL_RCC_GetSysClockFreq+0x10c>)
 800373e:	69fb      	ldr	r3, [r7, #28]
 8003740:	f852 3023 	ldr.w	r3, [r2, r3, lsl #2]
 8003744:	61fb      	str	r3, [r7, #28]
 8003746:	693b      	ldr	r3, [r7, #16]
 8003748:	2b00      	cmp	r3, #0
 800374a:	d10d      	bne.n	8003768 <HAL_RCC_GetSysClockFreq+0x88>
 800374c:	69fb      	ldr	r3, [r7, #28]
 800374e:	61bb      	str	r3, [r7, #24]
 8003750:	e00a      	b.n	8003768 <HAL_RCC_GetSysClockFreq+0x88>
 8003752:	693b      	ldr	r3, [r7, #16]
 8003754:	2b04      	cmp	r3, #4
 8003756:	d102      	bne.n	800375e <HAL_RCC_GetSysClockFreq+0x7e>
 8003758:	4b25      	ldr	r3, [pc, #148]	; (80037f0 <HAL_RCC_GetSysClockFreq+0x110>)
 800375a:	61bb      	str	r3, [r7, #24]
 800375c:	e004      	b.n	8003768 <HAL_RCC_GetSysClockFreq+0x88>
 800375e:	693b      	ldr	r3, [r7, #16]
 8003760:	2b08      	cmp	r3, #8
 8003762:	d101      	bne.n	8003768 <HAL_RCC_GetSysClockFreq+0x88>
 8003764:	4b23      	ldr	r3, [pc, #140]	; (80037f4 <HAL_RCC_GetSysClockFreq+0x114>)
 8003766:	61bb      	str	r3, [r7, #24]
 8003768:	693b      	ldr	r3, [r7, #16]
 800376a:	2b0c      	cmp	r3, #12
 800376c:	d134      	bne.n	80037d8 <HAL_RCC_GetSysClockFreq+0xf8>
 800376e:	4b1e      	ldr	r3, [pc, #120]	; (80037e8 <HAL_RCC_GetSysClockFreq+0x108>)
 8003770:	68db      	ldr	r3, [r3, #12]
 8003772:	f003 0303 	and.w	r3, r3, #3
 8003776:	60bb      	str	r3, [r7, #8]
 8003778:	68bb      	ldr	r3, [r7, #8]
 800377a:	2b02      	cmp	r3, #2
 800377c:	d003      	beq.n	8003786 <HAL_RCC_GetSysClockFreq+0xa6>
 800377e:	68bb      	ldr	r3, [r7, #8]
 8003780:	2b03      	cmp	r3, #3
 8003782:	d003      	beq.n	800378c <HAL_RCC_GetSysClockFreq+0xac>
 8003784:	e005      	b.n	8003792 <HAL_RCC_GetSysClockFreq+0xb2>
 8003786:	4b1a      	ldr	r3, [pc, #104]	; (80037f0 <HAL_RCC_GetSysClockFreq+0x110>)
 8003788:	617b      	str	r3, [r7, #20]
 800378a:	e005      	b.n	8003798 <HAL_RCC_GetSysClockFreq+0xb8>
 800378c:	4b19      	ldr	r3, [pc, #100]	; (80037f4 <HAL_RCC_GetSysClockFreq+0x114>)
 800378e:	617b      	str	r3, [r7, #20]
 8003790:	e002      	b.n	8003798 <HAL_RCC_GetSysClockFreq+0xb8>
 8003792:	69fb      	ldr	r3, [r7, #28]
 8003794:	617b      	str	r3, [r7, #20]
 8003796:	bf00      	nop
 8003798:	4b13      	ldr	r3, [pc, #76]	; (80037e8 <HAL_RCC_GetSysClockFreq+0x108>)
 800379a:	68db      	ldr	r3, [r3, #12]
 800379c:	091b      	lsrs	r3, r3, #4
 800379e:	f003 0307 	and.w	r3, r3, #7
 80037a2:	3301      	adds	r3, #1
 80037a4:	607b      	str	r3, [r7, #4]
 80037a6:	4b10      	ldr	r3, [pc, #64]	; (80037e8 <HAL_RCC_GetSysClockFreq+0x108>)
 80037a8:	68db      	ldr	r3, [r3, #12]
 80037aa:	0a1b      	lsrs	r3, r3, #8
 80037ac:	f003 037f 	and.w	r3, r3, #127	; 0x7f
 80037b0:	697a      	ldr	r2, [r7, #20]
 80037b2:	fb02 f203 	mul.w	r2, r2, r3
 80037b6:	687b      	ldr	r3, [r7, #4]
 80037b8:	fbb2 f3f3 	udiv	r3, r2, r3
 80037bc:	617b      	str	r3, [r7, #20]
 80037be:	4b0a      	ldr	r3, [pc, #40]	; (80037e8 <HAL_RCC_GetSysClockFreq+0x108>)
 80037c0:	68db      	ldr	r3, [r3, #12]
 80037c2:	0e5b      	lsrs	r3, r3, #25
 80037c4:	f003 0303 	and.w	r3, r3, #3
 80037c8:	3301      	adds	r3, #1
 80037ca:	005b      	lsls	r3, r3, #1
 80037cc:	603b      	str	r3, [r7, #0]
 80037ce:	697a      	ldr	r2, [r7, #20]
 80037d0:	683b      	ldr	r3, [r7, #0]
 80037d2:	fbb2 f3f3 	udiv	r3, r2, r3
 80037d6:	61bb      	str	r3, [r7, #24]
 80037d8:	69bb      	ldr	r3, [r7, #24]
 80037da:	4618      	mov	r0, r3
 80037dc:	3724      	adds	r7, #36	; 0x24
 80037de:	46bd      	mov	sp, r7
 80037e0:	f85d 7b04 	ldr.w	r7, [sp], #4
 80037e4:	4770      	bx	lr
 80037e6:	bf00      	nop
 80037e8:	40021000 	.word	0x40021000
 80037ec:	080072f8 	.word	0x080072f8
 80037f0:	00f42400 	.word	0x00f42400
 80037f4:	007a1200 	.word	0x007a1200

080037f8 <HAL_RCC_GetHCLKFreq>:
 80037f8:	b480      	push	{r7}
 80037fa:	af00      	add	r7, sp, #0
 80037fc:	4b03      	ldr	r3, [pc, #12]	; (800380c <HAL_RCC_GetHCLKFreq+0x14>)
 80037fe:	681b      	ldr	r3, [r3, #0]
 8003800:	4618      	mov	r0, r3
 8003802:	46bd      	mov	sp, r7
 8003804:	f85d 7b04 	ldr.w	r7, [sp], #4
 8003808:	4770      	bx	lr
 800380a:	bf00      	nop
 800380c:	20000000 	.word	0x20000000

08003810 <HAL_RCC_GetPCLK1Freq>:
 8003810:	b580      	push	{r7, lr}
 8003812:	af00      	add	r7, sp, #0
 8003814:	f7ff fff0 	bl	80037f8 <HAL_RCC_GetHCLKFreq>
 8003818:	4602      	mov	r2, r0
 800381a:	4b06      	ldr	r3, [pc, #24]	; (8003834 <HAL_RCC_GetPCLK1Freq+0x24>)
 800381c:	689b      	ldr	r3, [r3, #8]
 800381e:	0a1b      	lsrs	r3, r3, #8
 8003820:	f003 0307 	and.w	r3, r3, #7
 8003824:	4904      	ldr	r1, [pc, #16]	; (8003838 <HAL_RCC_GetPCLK1Freq+0x28>)
 8003826:	5ccb      	ldrb	r3, [r1, r3]
 8003828:	f003 031f 	and.w	r3, r3, #31
 800382c:	fa22 f303 	lsr.w	r3, r2, r3
 8003830:	4618      	mov	r0, r3
 8003832:	bd80      	pop	{r7, pc}
 8003834:	40021000 	.word	0x40021000
 8003838:	080072f0 	.word	0x080072f0

0800383c <HAL_RCC_GetPCLK2Freq>:
 800383c:	b580      	push	{r7, lr}
 800383e:	af00      	add	r7, sp, #0
 8003840:	f7ff ffda 	bl	80037f8 <HAL_RCC_GetHCLKFreq>
 8003844:	4602      	mov	r2, r0
 8003846:	4b06      	ldr	r3, [pc, #24]	; (8003860 <HAL_RCC_GetPCLK2Freq+0x24>)
 8003848:	689b      	ldr	r3, [r3, #8]
 800384a:	0adb      	lsrs	r3, r3, #11
 800384c:	f003 0307 	and.w	r3, r3, #7
 8003850:	4904      	ldr	r1, [pc, #16]	; (8003864 <HAL_RCC_GetPCLK2Freq+0x28>)
 8003852:	5ccb      	ldrb	r3, [r1, r3]
 8003854:	f003 031f 	and.w	r3, r3, #31
 8003858:	fa22 f303 	lsr.w	r3, r2, r3
 800385c:	4618      	mov	r0, r3
 800385e:	bd80      	pop	{r7, pc}
 8003860:	40021000 	.word	0x40021000
 8003864:	080072f0 	.word	0x080072f0

08003868 <HAL_RCC_GetClockConfig>:
 8003868:	b480      	push	{r7}
 800386a:	b083      	sub	sp, #12
 800386c:	af00      	add	r7, sp, #0
 800386e:	6078      	str	r0, [r7, #4]
 8003870:	6039      	str	r1, [r7, #0]
 8003872:	687b      	ldr	r3, [r7, #4]
 8003874:	220f      	movs	r2, #15
 8003876:	601a      	str	r2, [r3, #0]
 8003878:	4b12      	ldr	r3, [pc, #72]	; (80038c4 <HAL_RCC_GetClockConfig+0x5c>)
 800387a:	689b      	ldr	r3, [r3, #8]
 800387c:	f003 0203 	and.w	r2, r3, #3
 8003880:	687b      	ldr	r3, [r7, #4]
 8003882:	605a      	str	r2, [r3, #4]
 8003884:	4b0f      	ldr	r3, [pc, #60]	; (80038c4 <HAL_RCC_GetClockConfig+0x5c>)
 8003886:	689b      	ldr	r3, [r3, #8]
 8003888:	f003 02f0 	and.w	r2, r3, #240	; 0xf0
 800388c:	687b      	ldr	r3, [r7, #4]
 800388e:	609a      	str	r2, [r3, #8]
 8003890:	4b0c      	ldr	r3, [pc, #48]	; (80038c4 <HAL_RCC_GetClockConfig+0x5c>)
 8003892:	689b      	ldr	r3, [r3, #8]
 8003894:	f403 62e0 	and.w	r2, r3, #1792	; 0x700
 8003898:	687b      	ldr	r3, [r7, #4]
 800389a:	60da      	str	r2, [r3, #12]
 800389c:	4b09      	ldr	r3, [pc, #36]	; (80038c4 <HAL_RCC_GetClockConfig+0x5c>)
 800389e:	689b      	ldr	r3, [r3, #8]
 80038a0:	08db      	lsrs	r3, r3, #3
 80038a2:	f403 62e0 	and.w	r2, r3, #1792	; 0x700
 80038a6:	687b      	ldr	r3, [r7, #4]
 80038a8:	611a      	str	r2, [r3, #16]
 80038aa:	4b07      	ldr	r3, [pc, #28]	; (80038c8 <HAL_RCC_GetClockConfig+0x60>)
 80038ac:	681b      	ldr	r3, [r3, #0]
 80038ae:	f003 0207 	and.w	r2, r3, #7
 80038b2:	683b      	ldr	r3, [r7, #0]
 80038b4:	601a      	str	r2, [r3, #0]
 80038b6:	bf00      	nop
 80038b8:	370c      	adds	r7, #12
 80038ba:	46bd      	mov	sp, r7
 80038bc:	f85d 7b04 	ldr.w	r7, [sp], #4
 80038c0:	4770      	bx	lr
 80038c2:	bf00      	nop
 80038c4:	40021000 	.word	0x40021000
 80038c8:	40022000 	.word	0x40022000

080038cc <RCC_SetFlashLatencyFromMSIRange>:
 80038cc:	b580      	push	{r7, lr}
 80038ce:	b086      	sub	sp, #24
 80038d0:	af00      	add	r7, sp, #0
 80038d2:	6078      	str	r0, [r7, #4]
 80038d4:	2300      	movs	r3, #0
 80038d6:	613b      	str	r3, [r7, #16]
 80038d8:	4b2a      	ldr	r3, [pc, #168]	; (8003984 <RCC_SetFlashLatencyFromMSIRange+0xb8>)
 80038da:	6d9b      	ldr	r3, [r3, #88]	; 0x58
 80038dc:	f003 5380 	and.w	r3, r3, #268435456	; 0x10000000
 80038e0:	2b00      	cmp	r3, #0
 80038e2:	d003      	beq.n	80038ec <RCC_SetFlashLatencyFromMSIRange+0x20>
 80038e4:	f7ff f9be 	bl	8002c64 <HAL_PWREx_GetVoltageRange>
 80038e8:	6178      	str	r0, [r7, #20]
 80038ea:	e014      	b.n	8003916 <RCC_SetFlashLatencyFromMSIRange+0x4a>
 80038ec:	4b25      	ldr	r3, [pc, #148]	; (8003984 <RCC_SetFlashLatencyFromMSIRange+0xb8>)
 80038ee:	6d9b      	ldr	r3, [r3, #88]	; 0x58
 80038f0:	4a24      	ldr	r2, [pc, #144]	; (8003984 <RCC_SetFlashLatencyFromMSIRange+0xb8>)
 80038f2:	f043 5380 	orr.w	r3, r3, #268435456	; 0x10000000
 80038f6:	6593      	str	r3, [r2, #88]	; 0x58
 80038f8:	4b22      	ldr	r3, [pc, #136]	; (8003984 <RCC_SetFlashLatencyFromMSIRange+0xb8>)
 80038fa:	6d9b      	ldr	r3, [r3, #88]	; 0x58
 80038fc:	f003 5380 	and.w	r3, r3, #268435456	; 0x10000000
 8003900:	60fb      	str	r3, [r7, #12]
 8003902:	68fb      	ldr	r3, [r7, #12]
 8003904:	f7ff f9ae 	bl	8002c64 <HAL_PWREx_GetVoltageRange>
 8003908:	6178      	str	r0, [r7, #20]
 800390a:	4b1e      	ldr	r3, [pc, #120]	; (8003984 <RCC_SetFlashLatencyFromMSIRange+0xb8>)
 800390c:	6d9b      	ldr	r3, [r3, #88]	; 0x58
 800390e:	4a1d      	ldr	r2, [pc, #116]	; (8003984 <RCC_SetFlashLatencyFromMSIRange+0xb8>)
 8003910:	f023 5380 	bic.w	r3, r3, #268435456	; 0x10000000
 8003914:	6593      	str	r3, [r2, #88]	; 0x58
 8003916:	697b      	ldr	r3, [r7, #20]
 8003918:	f5b3 7f00 	cmp.w	r3, #512	; 0x200
 800391c:	d10b      	bne.n	8003936 <RCC_SetFlashLatencyFromMSIRange+0x6a>
 800391e:	687b      	ldr	r3, [r7, #4]
 8003920:	2b80      	cmp	r3, #128	; 0x80
 8003922:	d919      	bls.n	8003958 <RCC_SetFlashLatencyFromMSIRange+0x8c>
 8003924:	687b      	ldr	r3, [r7, #4]
 8003926:	2ba0      	cmp	r3, #160	; 0xa0
 8003928:	d902      	bls.n	8003930 <RCC_SetFlashLatencyFromMSIRange+0x64>
 800392a:	2302      	movs	r3, #2
 800392c:	613b      	str	r3, [r7, #16]
 800392e:	e013      	b.n	8003958 <RCC_SetFlashLatencyFromMSIRange+0x8c>
 8003930:	2301      	movs	r3, #1
 8003932:	613b      	str	r3, [r7, #16]
 8003934:	e010      	b.n	8003958 <RCC_SetFlashLatencyFromMSIRange+0x8c>
 8003936:	687b      	ldr	r3, [r7, #4]
 8003938:	2b80      	cmp	r3, #128	; 0x80
 800393a:	d902      	bls.n	8003942 <RCC_SetFlashLatencyFromMSIRange+0x76>
 800393c:	2303      	movs	r3, #3
 800393e:	613b      	str	r3, [r7, #16]
 8003940:	e00a      	b.n	8003958 <RCC_SetFlashLatencyFromMSIRange+0x8c>
 8003942:	687b      	ldr	r3, [r7, #4]
 8003944:	2b80      	cmp	r3, #128	; 0x80
 8003946:	d102      	bne.n	800394e <RCC_SetFlashLatencyFromMSIRange+0x82>
 8003948:	2302      	movs	r3, #2
 800394a:	613b      	str	r3, [r7, #16]
 800394c:	e004      	b.n	8003958 <RCC_SetFlashLatencyFromMSIRange+0x8c>
 800394e:	687b      	ldr	r3, [r7, #4]
 8003950:	2b70      	cmp	r3, #112	; 0x70
 8003952:	d101      	bne.n	8003958 <RCC_SetFlashLatencyFromMSIRange+0x8c>
 8003954:	2301      	movs	r3, #1
 8003956:	613b      	str	r3, [r7, #16]
 8003958:	4b0b      	ldr	r3, [pc, #44]	; (8003988 <RCC_SetFlashLatencyFromMSIRange+0xbc>)
 800395a:	681b      	ldr	r3, [r3, #0]
 800395c:	f023 0207 	bic.w	r2, r3, #7
 8003960:	4909      	ldr	r1, [pc, #36]	; (8003988 <RCC_SetFlashLatencyFromMSIRange+0xbc>)
 8003962:	693b      	ldr	r3, [r7, #16]
 8003964:	4313      	orrs	r3, r2
 8003966:	600b      	str	r3, [r1, #0]
 8003968:	4b07      	ldr	r3, [pc, #28]	; (8003988 <RCC_SetFlashLatencyFromMSIRange+0xbc>)
 800396a:	681b      	ldr	r3, [r3, #0]
 800396c:	f003 0307 	and.w	r3, r3, #7
 8003970:	693a      	ldr	r2, [r7, #16]
 8003972:	429a      	cmp	r2, r3
 8003974:	d001      	beq.n	800397a <RCC_SetFlashLatencyFromMSIRange+0xae>
 8003976:	2301      	movs	r3, #1
 8003978:	e000      	b.n	800397c <RCC_SetFlashLatencyFromMSIRange+0xb0>
 800397a:	2300      	movs	r3, #0
 800397c:	4618      	mov	r0, r3
 800397e:	3718      	adds	r7, #24
 8003980:	46bd      	mov	sp, r7
 8003982:	bd80      	pop	{r7, pc}
 8003984:	40021000 	.word	0x40021000
 8003988:	40022000 	.word	0x40022000

0800398c <HAL_RCCEx_PeriphCLKConfig>:
 800398c:	b580      	push	{r7, lr}
 800398e:	b086      	sub	sp, #24
 8003990:	af00      	add	r7, sp, #0
 8003992:	6078      	str	r0, [r7, #4]
 8003994:	2300      	movs	r3, #0
 8003996:	74fb      	strb	r3, [r7, #19]
 8003998:	2300      	movs	r3, #0
 800399a:	74bb      	strb	r3, [r7, #18]
 800399c:	687b      	ldr	r3, [r7, #4]
 800399e:	681b      	ldr	r3, [r3, #0]
 80039a0:	f403 6300 	and.w	r3, r3, #2048	; 0x800
 80039a4:	2b00      	cmp	r3, #0
 80039a6:	d041      	beq.n	8003a2c <HAL_RCCEx_PeriphCLKConfig+0xa0>
 80039a8:	687b      	ldr	r3, [r7, #4]
 80039aa:	6e5b      	ldr	r3, [r3, #100]	; 0x64
 80039ac:	f5b3 0f40 	cmp.w	r3, #12582912	; 0xc00000
 80039b0:	d02a      	beq.n	8003a08 <HAL_RCCEx_PeriphCLKConfig+0x7c>
 80039b2:	f5b3 0f40 	cmp.w	r3, #12582912	; 0xc00000
 80039b6:	d824      	bhi.n	8003a02 <HAL_RCCEx_PeriphCLKConfig+0x76>
 80039b8:	f5b3 0f00 	cmp.w	r3, #8388608	; 0x800000
 80039bc:	d008      	beq.n	80039d0 <HAL_RCCEx_PeriphCLKConfig+0x44>
 80039be:	f5b3 0f00 	cmp.w	r3, #8388608	; 0x800000
 80039c2:	d81e      	bhi.n	8003a02 <HAL_RCCEx_PeriphCLKConfig+0x76>
 80039c4:	2b00      	cmp	r3, #0
 80039c6:	d00a      	beq.n	80039de <HAL_RCCEx_PeriphCLKConfig+0x52>
 80039c8:	f5b3 0f80 	cmp.w	r3, #4194304	; 0x400000
 80039cc:	d010      	beq.n	80039f0 <HAL_RCCEx_PeriphCLKConfig+0x64>
 80039ce:	e018      	b.n	8003a02 <HAL_RCCEx_PeriphCLKConfig+0x76>
 80039d0:	4b86      	ldr	r3, [pc, #536]	; (8003bec <HAL_RCCEx_PeriphCLKConfig+0x260>)
 80039d2:	68db      	ldr	r3, [r3, #12]
 80039d4:	4a85      	ldr	r2, [pc, #532]	; (8003bec <HAL_RCCEx_PeriphCLKConfig+0x260>)
 80039d6:	f443 3380 	orr.w	r3, r3, #65536	; 0x10000
 80039da:	60d3      	str	r3, [r2, #12]
 80039dc:	e015      	b.n	8003a0a <HAL_RCCEx_PeriphCLKConfig+0x7e>
 80039de:	687b      	ldr	r3, [r7, #4]
 80039e0:	3304      	adds	r3, #4
 80039e2:	2100      	movs	r1, #0
 80039e4:	4618      	mov	r0, r3
 80039e6:	f000 facb 	bl	8003f80 <RCCEx_PLLSAI1_Config>
 80039ea:	4603      	mov	r3, r0
 80039ec:	74fb      	strb	r3, [r7, #19]
 80039ee:	e00c      	b.n	8003a0a <HAL_RCCEx_PeriphCLKConfig+0x7e>
 80039f0:	687b      	ldr	r3, [r7, #4]
 80039f2:	3320      	adds	r3, #32
 80039f4:	2100      	movs	r1, #0
 80039f6:	4618      	mov	r0, r3
 80039f8:	f000 fbb6 	bl	8004168 <RCCEx_PLLSAI2_Config>
 80039fc:	4603      	mov	r3, r0
 80039fe:	74fb      	strb	r3, [r7, #19]
 8003a00:	e003      	b.n	8003a0a <HAL_RCCEx_PeriphCLKConfig+0x7e>
 8003a02:	2301      	movs	r3, #1
 8003a04:	74fb      	strb	r3, [r7, #19]
 8003a06:	e000      	b.n	8003a0a <HAL_RCCEx_PeriphCLKConfig+0x7e>
 8003a08:	bf00      	nop
 8003a0a:	7cfb      	ldrb	r3, [r7, #19]
 8003a0c:	2b00      	cmp	r3, #0
 8003a0e:	d10b      	bne.n	8003a28 <HAL_RCCEx_PeriphCLKConfig+0x9c>
 8003a10:	4b76      	ldr	r3, [pc, #472]	; (8003bec <HAL_RCCEx_PeriphCLKConfig+0x260>)
 8003a12:	f8d3 3088 	ldr.w	r3, [r3, #136]	; 0x88
 8003a16:	f423 0240 	bic.w	r2, r3, #12582912	; 0xc00000
 8003a1a:	687b      	ldr	r3, [r7, #4]
 8003a1c:	6e5b      	ldr	r3, [r3, #100]	; 0x64
 8003a1e:	4973      	ldr	r1, [pc, #460]	; (8003bec <HAL_RCCEx_PeriphCLKConfig+0x260>)
 8003a20:	4313      	orrs	r3, r2
 8003a22:	f8c1 3088 	str.w	r3, [r1, #136]	; 0x88
 8003a26:	e001      	b.n	8003a2c <HAL_RCCEx_PeriphCLKConfig+0xa0>
 8003a28:	7cfb      	ldrb	r3, [r7, #19]
 8003a2a:	74bb      	strb	r3, [r7, #18]
 8003a2c:	687b      	ldr	r3, [r7, #4]
 8003a2e:	681b      	ldr	r3, [r3, #0]
 8003a30:	f403 5380 	and.w	r3, r3, #4096	; 0x1000
 8003a34:	2b00      	cmp	r3, #0
 8003a36:	d041      	beq.n	8003abc <HAL_RCCEx_PeriphCLKConfig+0x130>
 8003a38:	687b      	ldr	r3, [r7, #4]
 8003a3a:	6e9b      	ldr	r3, [r3, #104]	; 0x68
 8003a3c:	f1b3 7f40 	cmp.w	r3, #50331648	; 0x3000000
 8003a40:	d02a      	beq.n	8003a98 <HAL_RCCEx_PeriphCLKConfig+0x10c>
 8003a42:	f1b3 7f40 	cmp.w	r3, #50331648	; 0x3000000
 8003a46:	d824      	bhi.n	8003a92 <HAL_RCCEx_PeriphCLKConfig+0x106>
 8003a48:	f1b3 7f00 	cmp.w	r3, #33554432	; 0x2000000
 8003a4c:	d008      	beq.n	8003a60 <HAL_RCCEx_PeriphCLKConfig+0xd4>
 8003a4e:	f1b3 7f00 	cmp.w	r3, #33554432	; 0x2000000
 8003a52:	d81e      	bhi.n	8003a92 <HAL_RCCEx_PeriphCLKConfig+0x106>
 8003a54:	2b00      	cmp	r3, #0
 8003a56:	d00a      	beq.n	8003a6e <HAL_RCCEx_PeriphCLKConfig+0xe2>
 8003a58:	f1b3 7f80 	cmp.w	r3, #16777216	; 0x1000000
 8003a5c:	d010      	beq.n	8003a80 <HAL_RCCEx_PeriphCLKConfig+0xf4>
 8003a5e:	e018      	b.n	8003a92 <HAL_RCCEx_PeriphCLKConfig+0x106>
 8003a60:	4b62      	ldr	r3, [pc, #392]	; (8003bec <HAL_RCCEx_PeriphCLKConfig+0x260>)
 8003a62:	68db      	ldr	r3, [r3, #12]
 8003a64:	4a61      	ldr	r2, [pc, #388]	; (8003bec <HAL_RCCEx_PeriphCLKConfig+0x260>)
 8003a66:	f443 3380 	orr.w	r3, r3, #65536	; 0x10000
 8003a6a:	60d3      	str	r3, [r2, #12]
 8003a6c:	e015      	b.n	8003a9a <HAL_RCCEx_PeriphCLKConfig+0x10e>
 8003a6e:	687b      	ldr	r3, [r7, #4]
 8003a70:	3304      	adds	r3, #4
 8003a72:	2100      	movs	r1, #0
 8003a74:	4618      	mov	r0, r3
 8003a76:	f000 fa83 	bl	8003f80 <RCCEx_PLLSAI1_Config>
 8003a7a:	4603      	mov	r3, r0
 8003a7c:	74fb      	strb	r3, [r7, #19]
 8003a7e:	e00c      	b.n	8003a9a <HAL_RCCEx_PeriphCLKConfig+0x10e>
 8003a80:	687b      	ldr	r3, [r7, #4]
 8003a82:	3320      	adds	r3, #32
 8003a84:	2100      	movs	r1, #0
 8003a86:	4618      	mov	r0, r3
 8003a88:	f000 fb6e 	bl	8004168 <RCCEx_PLLSAI2_Config>
 8003a8c:	4603      	mov	r3, r0
 8003a8e:	74fb      	strb	r3, [r7, #19]
 8003a90:	e003      	b.n	8003a9a <HAL_RCCEx_PeriphCLKConfig+0x10e>
 8003a92:	2301      	movs	r3, #1
 8003a94:	74fb      	strb	r3, [r7, #19]
 8003a96:	e000      	b.n	8003a9a <HAL_RCCEx_PeriphCLKConfig+0x10e>
 8003a98:	bf00      	nop
 8003a9a:	7cfb      	ldrb	r3, [r7, #19]
 8003a9c:	2b00      	cmp	r3, #0
 8003a9e:	d10b      	bne.n	8003ab8 <HAL_RCCEx_PeriphCLKConfig+0x12c>
 8003aa0:	4b52      	ldr	r3, [pc, #328]	; (8003bec <HAL_RCCEx_PeriphCLKConfig+0x260>)
 8003aa2:	f8d3 3088 	ldr.w	r3, [r3, #136]	; 0x88
 8003aa6:	f023 7240 	bic.w	r2, r3, #50331648	; 0x3000000
 8003aaa:	687b      	ldr	r3, [r7, #4]
 8003aac:	6e9b      	ldr	r3, [r3, #104]	; 0x68
 8003aae:	494f      	ldr	r1, [pc, #316]	; (8003bec <HAL_RCCEx_PeriphCLKConfig+0x260>)
 8003ab0:	4313      	orrs	r3, r2
 8003ab2:	f8c1 3088 	str.w	r3, [r1, #136]	; 0x88
 8003ab6:	e001      	b.n	8003abc <HAL_RCCEx_PeriphCLKConfig+0x130>
 8003ab8:	7cfb      	ldrb	r3, [r7, #19]
 8003aba:	74bb      	strb	r3, [r7, #18]
 8003abc:	687b      	ldr	r3, [r7, #4]
 8003abe:	681b      	ldr	r3, [r3, #0]
 8003ac0:	f403 3300 	and.w	r3, r3, #131072	; 0x20000
 8003ac4:	2b00      	cmp	r3, #0
 8003ac6:	f000 80a0 	beq.w	8003c0a <HAL_RCCEx_PeriphCLKConfig+0x27e>
 8003aca:	2300      	movs	r3, #0
 8003acc:	747b      	strb	r3, [r7, #17]
 8003ace:	4b47      	ldr	r3, [pc, #284]	; (8003bec <HAL_RCCEx_PeriphCLKConfig+0x260>)
 8003ad0:	6d9b      	ldr	r3, [r3, #88]	; 0x58
 8003ad2:	f003 5380 	and.w	r3, r3, #268435456	; 0x10000000
 8003ad6:	2b00      	cmp	r3, #0
 8003ad8:	d101      	bne.n	8003ade <HAL_RCCEx_PeriphCLKConfig+0x152>
 8003ada:	2301      	movs	r3, #1
 8003adc:	e000      	b.n	8003ae0 <HAL_RCCEx_PeriphCLKConfig+0x154>
 8003ade:	2300      	movs	r3, #0
 8003ae0:	2b00      	cmp	r3, #0
 8003ae2:	d00d      	beq.n	8003b00 <HAL_RCCEx_PeriphCLKConfig+0x174>
 8003ae4:	4b41      	ldr	r3, [pc, #260]	; (8003bec <HAL_RCCEx_PeriphCLKConfig+0x260>)
 8003ae6:	6d9b      	ldr	r3, [r3, #88]	; 0x58
 8003ae8:	4a40      	ldr	r2, [pc, #256]	; (8003bec <HAL_RCCEx_PeriphCLKConfig+0x260>)
 8003aea:	f043 5380 	orr.w	r3, r3, #268435456	; 0x10000000
 8003aee:	6593      	str	r3, [r2, #88]	; 0x58
 8003af0:	4b3e      	ldr	r3, [pc, #248]	; (8003bec <HAL_RCCEx_PeriphCLKConfig+0x260>)
 8003af2:	6d9b      	ldr	r3, [r3, #88]	; 0x58
 8003af4:	f003 5380 	and.w	r3, r3, #268435456	; 0x10000000
 8003af8:	60bb      	str	r3, [r7, #8]
 8003afa:	68bb      	ldr	r3, [r7, #8]
 8003afc:	2301      	movs	r3, #1
 8003afe:	747b      	strb	r3, [r7, #17]
 8003b00:	4b3b      	ldr	r3, [pc, #236]	; (8003bf0 <HAL_RCCEx_PeriphCLKConfig+0x264>)
 8003b02:	681b      	ldr	r3, [r3, #0]
 8003b04:	4a3a      	ldr	r2, [pc, #232]	; (8003bf0 <HAL_RCCEx_PeriphCLKConfig+0x264>)
 8003b06:	f443 7380 	orr.w	r3, r3, #256	; 0x100
 8003b0a:	6013      	str	r3, [r2, #0]
 8003b0c:	f7fd f9f2 	bl	8000ef4 <HAL_GetTick>
 8003b10:	60f8      	str	r0, [r7, #12]
 8003b12:	e009      	b.n	8003b28 <HAL_RCCEx_PeriphCLKConfig+0x19c>
 8003b14:	f7fd f9ee 	bl	8000ef4 <HAL_GetTick>
 8003b18:	4602      	mov	r2, r0
 8003b1a:	68fb      	ldr	r3, [r7, #12]
 8003b1c:	1ad3      	subs	r3, r2, r3
 8003b1e:	2b02      	cmp	r3, #2
 8003b20:	d902      	bls.n	8003b28 <HAL_RCCEx_PeriphCLKConfig+0x19c>
 8003b22:	2303      	movs	r3, #3
 8003b24:	74fb      	strb	r3, [r7, #19]
 8003b26:	e005      	b.n	8003b34 <HAL_RCCEx_PeriphCLKConfig+0x1a8>
 8003b28:	4b31      	ldr	r3, [pc, #196]	; (8003bf0 <HAL_RCCEx_PeriphCLKConfig+0x264>)
 8003b2a:	681b      	ldr	r3, [r3, #0]
 8003b2c:	f403 7380 	and.w	r3, r3, #256	; 0x100
 8003b30:	2b00      	cmp	r3, #0
 8003b32:	d0ef      	beq.n	8003b14 <HAL_RCCEx_PeriphCLKConfig+0x188>
 8003b34:	7cfb      	ldrb	r3, [r7, #19]
 8003b36:	2b00      	cmp	r3, #0
 8003b38:	d15c      	bne.n	8003bf4 <HAL_RCCEx_PeriphCLKConfig+0x268>
 8003b3a:	4b2c      	ldr	r3, [pc, #176]	; (8003bec <HAL_RCCEx_PeriphCLKConfig+0x260>)
 8003b3c:	f8d3 3090 	ldr.w	r3, [r3, #144]	; 0x90
 8003b40:	f403 7340 	and.w	r3, r3, #768	; 0x300
 8003b44:	617b      	str	r3, [r7, #20]
 8003b46:	697b      	ldr	r3, [r7, #20]
 8003b48:	2b00      	cmp	r3, #0
 8003b4a:	d01f      	beq.n	8003b8c <HAL_RCCEx_PeriphCLKConfig+0x200>
 8003b4c:	687b      	ldr	r3, [r7, #4]
 8003b4e:	f8d3 3084 	ldr.w	r3, [r3, #132]	; 0x84
 8003b52:	697a      	ldr	r2, [r7, #20]
 8003b54:	429a      	cmp	r2, r3
 8003b56:	d019      	beq.n	8003b8c <HAL_RCCEx_PeriphCLKConfig+0x200>
 8003b58:	4b24      	ldr	r3, [pc, #144]	; (8003bec <HAL_RCCEx_PeriphCLKConfig+0x260>)
 8003b5a:	f8d3 3090 	ldr.w	r3, [r3, #144]	; 0x90
 8003b5e:	f423 7340 	bic.w	r3, r3, #768	; 0x300
 8003b62:	617b      	str	r3, [r7, #20]
 8003b64:	4b21      	ldr	r3, [pc, #132]	; (8003bec <HAL_RCCEx_PeriphCLKConfig+0x260>)
 8003b66:	f8d3 3090 	ldr.w	r3, [r3, #144]	; 0x90
 8003b6a:	4a20      	ldr	r2, [pc, #128]	; (8003bec <HAL_RCCEx_PeriphCLKConfig+0x260>)
 8003b6c:	f443 3380 	orr.w	r3, r3, #65536	; 0x10000
 8003b70:	f8c2 3090 	str.w	r3, [r2, #144]	; 0x90
 8003b74:	4b1d      	ldr	r3, [pc, #116]	; (8003bec <HAL_RCCEx_PeriphCLKConfig+0x260>)
 8003b76:	f8d3 3090 	ldr.w	r3, [r3, #144]	; 0x90
 8003b7a:	4a1c      	ldr	r2, [pc, #112]	; (8003bec <HAL_RCCEx_PeriphCLKConfig+0x260>)
 8003b7c:	f423 3380 	bic.w	r3, r3, #65536	; 0x10000
 8003b80:	f8c2 3090 	str.w	r3, [r2, #144]	; 0x90
 8003b84:	4a19      	ldr	r2, [pc, #100]	; (8003bec <HAL_RCCEx_PeriphCLKConfig+0x260>)
 8003b86:	697b      	ldr	r3, [r7, #20]
 8003b88:	f8c2 3090 	str.w	r3, [r2, #144]	; 0x90
 8003b8c:	697b      	ldr	r3, [r7, #20]
 8003b8e:	f003 0301 	and.w	r3, r3, #1
 8003b92:	2b00      	cmp	r3, #0
 8003b94:	d016      	beq.n	8003bc4 <HAL_RCCEx_PeriphCLKConfig+0x238>
 8003b96:	f7fd f9ad 	bl	8000ef4 <HAL_GetTick>
 8003b9a:	60f8      	str	r0, [r7, #12]
 8003b9c:	e00b      	b.n	8003bb6 <HAL_RCCEx_PeriphCLKConfig+0x22a>
 8003b9e:	f7fd f9a9 	bl	8000ef4 <HAL_GetTick>
 8003ba2:	4602      	mov	r2, r0
 8003ba4:	68fb      	ldr	r3, [r7, #12]
 8003ba6:	1ad3      	subs	r3, r2, r3
 8003ba8:	f241 3288 	movw	r2, #5000	; 0x1388
 8003bac:	4293      	cmp	r3, r2
 8003bae:	d902      	bls.n	8003bb6 <HAL_RCCEx_PeriphCLKConfig+0x22a>
 8003bb0:	2303      	movs	r3, #3
 8003bb2:	74fb      	strb	r3, [r7, #19]
 8003bb4:	e006      	b.n	8003bc4 <HAL_RCCEx_PeriphCLKConfig+0x238>
 8003bb6:	4b0d      	ldr	r3, [pc, #52]	; (8003bec <HAL_RCCEx_PeriphCLKConfig+0x260>)
 8003bb8:	f8d3 3090 	ldr.w	r3, [r3, #144]	; 0x90
 8003bbc:	f003 0302 	and.w	r3, r3, #2
 8003bc0:	2b00      	cmp	r3, #0
 8003bc2:	d0ec      	beq.n	8003b9e <HAL_RCCEx_PeriphCLKConfig+0x212>
 8003bc4:	7cfb      	ldrb	r3, [r7, #19]
 8003bc6:	2b00      	cmp	r3, #0
 8003bc8:	d10c      	bne.n	8003be4 <HAL_RCCEx_PeriphCLKConfig+0x258>
 8003bca:	4b08      	ldr	r3, [pc, #32]	; (8003bec <HAL_RCCEx_PeriphCLKConfig+0x260>)
 8003bcc:	f8d3 3090 	ldr.w	r3, [r3, #144]	; 0x90
 8003bd0:	f423 7240 	bic.w	r2, r3, #768	; 0x300
 8003bd4:	687b      	ldr	r3, [r7, #4]
 8003bd6:	f8d3 3084 	ldr.w	r3, [r3, #132]	; 0x84
 8003bda:	4904      	ldr	r1, [pc, #16]	; (8003bec <HAL_RCCEx_PeriphCLKConfig+0x260>)
 8003bdc:	4313      	orrs	r3, r2
 8003bde:	f8c1 3090 	str.w	r3, [r1, #144]	; 0x90
 8003be2:	e009      	b.n	8003bf8 <HAL_RCCEx_PeriphCLKConfig+0x26c>
 8003be4:	7cfb      	ldrb	r3, [r7, #19]
 8003be6:	74bb      	strb	r3, [r7, #18]
 8003be8:	e006      	b.n	8003bf8 <HAL_RCCEx_PeriphCLKConfig+0x26c>
 8003bea:	bf00      	nop
 8003bec:	40021000 	.word	0x40021000
 8003bf0:	40007000 	.word	0x40007000
 8003bf4:	7cfb      	ldrb	r3, [r7, #19]
 8003bf6:	74bb      	strb	r3, [r7, #18]
 8003bf8:	7c7b      	ldrb	r3, [r7, #17]
 8003bfa:	2b01      	cmp	r3, #1
 8003bfc:	d105      	bne.n	8003c0a <HAL_RCCEx_PeriphCLKConfig+0x27e>
 8003bfe:	4b9e      	ldr	r3, [pc, #632]	; (8003e78 <HAL_RCCEx_PeriphCLKConfig+0x4ec>)
 8003c00:	6d9b      	ldr	r3, [r3, #88]	; 0x58
 8003c02:	4a9d      	ldr	r2, [pc, #628]	; (8003e78 <HAL_RCCEx_PeriphCLKConfig+0x4ec>)
 8003c04:	f023 5380 	bic.w	r3, r3, #268435456	; 0x10000000
 8003c08:	6593      	str	r3, [r2, #88]	; 0x58
 8003c0a:	687b      	ldr	r3, [r7, #4]
 8003c0c:	681b      	ldr	r3, [r3, #0]
 8003c0e:	f003 0301 	and.w	r3, r3, #1
 8003c12:	2b00      	cmp	r3, #0
 8003c14:	d00a      	beq.n	8003c2c <HAL_RCCEx_PeriphCLKConfig+0x2a0>
 8003c16:	4b98      	ldr	r3, [pc, #608]	; (8003e78 <HAL_RCCEx_PeriphCLKConfig+0x4ec>)
 8003c18:	f8d3 3088 	ldr.w	r3, [r3, #136]	; 0x88
 8003c1c:	f023 0203 	bic.w	r2, r3, #3
 8003c20:	687b      	ldr	r3, [r7, #4]
 8003c22:	6b9b      	ldr	r3, [r3, #56]	; 0x38
 8003c24:	4994      	ldr	r1, [pc, #592]	; (8003e78 <HAL_RCCEx_PeriphCLKConfig+0x4ec>)
 8003c26:	4313      	orrs	r3, r2
 8003c28:	f8c1 3088 	str.w	r3, [r1, #136]	; 0x88
 8003c2c:	687b      	ldr	r3, [r7, #4]
 8003c2e:	681b      	ldr	r3, [r3, #0]
 8003c30:	f003 0302 	and.w	r3, r3, #2
 8003c34:	2b00      	cmp	r3, #0
 8003c36:	d00a      	beq.n	8003c4e <HAL_RCCEx_PeriphCLKConfig+0x2c2>
 8003c38:	4b8f      	ldr	r3, [pc, #572]	; (8003e78 <HAL_RCCEx_PeriphCLKConfig+0x4ec>)
 8003c3a:	f8d3 3088 	ldr.w	r3, [r3, #136]	; 0x88
 8003c3e:	f023 020c 	bic.w	r2, r3, #12
 8003c42:	687b      	ldr	r3, [r7, #4]
 8003c44:	6bdb      	ldr	r3, [r3, #60]	; 0x3c
 8003c46:	498c      	ldr	r1, [pc, #560]	; (8003e78 <HAL_RCCEx_PeriphCLKConfig+0x4ec>)
 8003c48:	4313      	orrs	r3, r2
 8003c4a:	f8c1 3088 	str.w	r3, [r1, #136]	; 0x88
 8003c4e:	687b      	ldr	r3, [r7, #4]
 8003c50:	681b      	ldr	r3, [r3, #0]
 8003c52:	f003 0304 	and.w	r3, r3, #4
 8003c56:	2b00      	cmp	r3, #0
 8003c58:	d00a      	beq.n	8003c70 <HAL_RCCEx_PeriphCLKConfig+0x2e4>
 8003c5a:	4b87      	ldr	r3, [pc, #540]	; (8003e78 <HAL_RCCEx_PeriphCLKConfig+0x4ec>)
 8003c5c:	f8d3 3088 	ldr.w	r3, [r3, #136]	; 0x88
 8003c60:	f023 0230 	bic.w	r2, r3, #48	; 0x30
 8003c64:	687b      	ldr	r3, [r7, #4]
 8003c66:	6c1b      	ldr	r3, [r3, #64]	; 0x40
 8003c68:	4983      	ldr	r1, [pc, #524]	; (8003e78 <HAL_RCCEx_PeriphCLKConfig+0x4ec>)
 8003c6a:	4313      	orrs	r3, r2
 8003c6c:	f8c1 3088 	str.w	r3, [r1, #136]	; 0x88
 8003c70:	687b      	ldr	r3, [r7, #4]
 8003c72:	681b      	ldr	r3, [r3, #0]
 8003c74:	f003 0308 	and.w	r3, r3, #8
 8003c78:	2b00      	cmp	r3, #0
 8003c7a:	d00a      	beq.n	8003c92 <HAL_RCCEx_PeriphCLKConfig+0x306>
 8003c7c:	4b7e      	ldr	r3, [pc, #504]	; (8003e78 <HAL_RCCEx_PeriphCLKConfig+0x4ec>)
 8003c7e:	f8d3 3088 	ldr.w	r3, [r3, #136]	; 0x88
 8003c82:	f023 02c0 	bic.w	r2, r3, #192	; 0xc0
 8003c86:	687b      	ldr	r3, [r7, #4]
 8003c88:	6c5b      	ldr	r3, [r3, #68]	; 0x44
 8003c8a:	497b      	ldr	r1, [pc, #492]	; (8003e78 <HAL_RCCEx_PeriphCLKConfig+0x4ec>)
 8003c8c:	4313      	orrs	r3, r2
 8003c8e:	f8c1 3088 	str.w	r3, [r1, #136]	; 0x88
 8003c92:	687b      	ldr	r3, [r7, #4]
 8003c94:	681b      	ldr	r3, [r3, #0]
 8003c96:	f003 0310 	and.w	r3, r3, #16
 8003c9a:	2b00      	cmp	r3, #0
 8003c9c:	d00a      	beq.n	8003cb4 <HAL_RCCEx_PeriphCLKConfig+0x328>
 8003c9e:	4b76      	ldr	r3, [pc, #472]	; (8003e78 <HAL_RCCEx_PeriphCLKConfig+0x4ec>)
 8003ca0:	f8d3 3088 	ldr.w	r3, [r3, #136]	; 0x88
 8003ca4:	f423 7240 	bic.w	r2, r3, #768	; 0x300
 8003ca8:	687b      	ldr	r3, [r7, #4]
 8003caa:	6c9b      	ldr	r3, [r3, #72]	; 0x48
 8003cac:	4972      	ldr	r1, [pc, #456]	; (8003e78 <HAL_RCCEx_PeriphCLKConfig+0x4ec>)
 8003cae:	4313      	orrs	r3, r2
 8003cb0:	f8c1 3088 	str.w	r3, [r1, #136]	; 0x88
 8003cb4:	687b      	ldr	r3, [r7, #4]
 8003cb6:	681b      	ldr	r3, [r3, #0]
 8003cb8:	f003 0320 	and.w	r3, r3, #32
 8003cbc:	2b00      	cmp	r3, #0
 8003cbe:	d00a      	beq.n	8003cd6 <HAL_RCCEx_PeriphCLKConfig+0x34a>
 8003cc0:	4b6d      	ldr	r3, [pc, #436]	; (8003e78 <HAL_RCCEx_PeriphCLKConfig+0x4ec>)
 8003cc2:	f8d3 3088 	ldr.w	r3, [r3, #136]	; 0x88
 8003cc6:	f423 6240 	bic.w	r2, r3, #3072	; 0xc00
 8003cca:	687b      	ldr	r3, [r7, #4]
 8003ccc:	6cdb      	ldr	r3, [r3, #76]	; 0x4c
 8003cce:	496a      	ldr	r1, [pc, #424]	; (8003e78 <HAL_RCCEx_PeriphCLKConfig+0x4ec>)
 8003cd0:	4313      	orrs	r3, r2
 8003cd2:	f8c1 3088 	str.w	r3, [r1, #136]	; 0x88
 8003cd6:	687b      	ldr	r3, [r7, #4]
 8003cd8:	681b      	ldr	r3, [r3, #0]
 8003cda:	f403 7300 	and.w	r3, r3, #512	; 0x200
 8003cde:	2b00      	cmp	r3, #0
 8003ce0:	d00a      	beq.n	8003cf8 <HAL_RCCEx_PeriphCLKConfig+0x36c>
 8003ce2:	4b65      	ldr	r3, [pc, #404]	; (8003e78 <HAL_RCCEx_PeriphCLKConfig+0x4ec>)
 8003ce4:	f8d3 3088 	ldr.w	r3, [r3, #136]	; 0x88
 8003ce8:	f423 2240 	bic.w	r2, r3, #786432	; 0xc0000
 8003cec:	687b      	ldr	r3, [r7, #4]
 8003cee:	6ddb      	ldr	r3, [r3, #92]	; 0x5c
 8003cf0:	4961      	ldr	r1, [pc, #388]	; (8003e78 <HAL_RCCEx_PeriphCLKConfig+0x4ec>)
 8003cf2:	4313      	orrs	r3, r2
 8003cf4:	f8c1 3088 	str.w	r3, [r1, #136]	; 0x88
 8003cf8:	687b      	ldr	r3, [r7, #4]
 8003cfa:	681b      	ldr	r3, [r3, #0]
 8003cfc:	f403 6380 	and.w	r3, r3, #1024	; 0x400
 8003d00:	2b00      	cmp	r3, #0
 8003d02:	d00a      	beq.n	8003d1a <HAL_RCCEx_PeriphCLKConfig+0x38e>
 8003d04:	4b5c      	ldr	r3, [pc, #368]	; (8003e78 <HAL_RCCEx_PeriphCLKConfig+0x4ec>)
 8003d06:	f8d3 3088 	ldr.w	r3, [r3, #136]	; 0x88
 8003d0a:	f423 1240 	bic.w	r2, r3, #3145728	; 0x300000
 8003d0e:	687b      	ldr	r3, [r7, #4]
 8003d10:	6e1b      	ldr	r3, [r3, #96]	; 0x60
 8003d12:	4959      	ldr	r1, [pc, #356]	; (8003e78 <HAL_RCCEx_PeriphCLKConfig+0x4ec>)
 8003d14:	4313      	orrs	r3, r2
 8003d16:	f8c1 3088 	str.w	r3, [r1, #136]	; 0x88
 8003d1a:	687b      	ldr	r3, [r7, #4]
 8003d1c:	681b      	ldr	r3, [r3, #0]
 8003d1e:	f003 0340 	and.w	r3, r3, #64	; 0x40
 8003d22:	2b00      	cmp	r3, #0
 8003d24:	d00a      	beq.n	8003d3c <HAL_RCCEx_PeriphCLKConfig+0x3b0>
 8003d26:	4b54      	ldr	r3, [pc, #336]	; (8003e78 <HAL_RCCEx_PeriphCLKConfig+0x4ec>)
 8003d28:	f8d3 3088 	ldr.w	r3, [r3, #136]	; 0x88
 8003d2c:	f423 5240 	bic.w	r2, r3, #12288	; 0x3000
 8003d30:	687b      	ldr	r3, [r7, #4]
 8003d32:	6d1b      	ldr	r3, [r3, #80]	; 0x50
 8003d34:	4950      	ldr	r1, [pc, #320]	; (8003e78 <HAL_RCCEx_PeriphCLKConfig+0x4ec>)
 8003d36:	4313      	orrs	r3, r2
 8003d38:	f8c1 3088 	str.w	r3, [r1, #136]	; 0x88
 8003d3c:	687b      	ldr	r3, [r7, #4]
 8003d3e:	681b      	ldr	r3, [r3, #0]
 8003d40:	f003 0380 	and.w	r3, r3, #128	; 0x80
 8003d44:	2b00      	cmp	r3, #0
 8003d46:	d00a      	beq.n	8003d5e <HAL_RCCEx_PeriphCLKConfig+0x3d2>
 8003d48:	4b4b      	ldr	r3, [pc, #300]	; (8003e78 <HAL_RCCEx_PeriphCLKConfig+0x4ec>)
 8003d4a:	f8d3 3088 	ldr.w	r3, [r3, #136]	; 0x88
 8003d4e:	f423 4240 	bic.w	r2, r3, #49152	; 0xc000
 8003d52:	687b      	ldr	r3, [r7, #4]
 8003d54:	6d5b      	ldr	r3, [r3, #84]	; 0x54
 8003d56:	4948      	ldr	r1, [pc, #288]	; (8003e78 <HAL_RCCEx_PeriphCLKConfig+0x4ec>)
 8003d58:	4313      	orrs	r3, r2
 8003d5a:	f8c1 3088 	str.w	r3, [r1, #136]	; 0x88
 8003d5e:	687b      	ldr	r3, [r7, #4]
 8003d60:	681b      	ldr	r3, [r3, #0]
 8003d62:	f403 7380 	and.w	r3, r3, #256	; 0x100
 8003d66:	2b00      	cmp	r3, #0
 8003d68:	d00a      	beq.n	8003d80 <HAL_RCCEx_PeriphCLKConfig+0x3f4>
 8003d6a:	4b43      	ldr	r3, [pc, #268]	; (8003e78 <HAL_RCCEx_PeriphCLKConfig+0x4ec>)
 8003d6c:	f8d3 3088 	ldr.w	r3, [r3, #136]	; 0x88
 8003d70:	f423 3240 	bic.w	r2, r3, #196608	; 0x30000
 8003d74:	687b      	ldr	r3, [r7, #4]
 8003d76:	6d9b      	ldr	r3, [r3, #88]	; 0x58
 8003d78:	493f      	ldr	r1, [pc, #252]	; (8003e78 <HAL_RCCEx_PeriphCLKConfig+0x4ec>)
 8003d7a:	4313      	orrs	r3, r2
 8003d7c:	f8c1 3088 	str.w	r3, [r1, #136]	; 0x88
 8003d80:	687b      	ldr	r3, [r7, #4]
 8003d82:	681b      	ldr	r3, [r3, #0]
 8003d84:	f403 5300 	and.w	r3, r3, #8192	; 0x2000
 8003d88:	2b00      	cmp	r3, #0
 8003d8a:	d028      	beq.n	8003dde <HAL_RCCEx_PeriphCLKConfig+0x452>
 8003d8c:	4b3a      	ldr	r3, [pc, #232]	; (8003e78 <HAL_RCCEx_PeriphCLKConfig+0x4ec>)
 8003d8e:	f8d3 3088 	ldr.w	r3, [r3, #136]	; 0x88
 8003d92:	f023 6240 	bic.w	r2, r3, #201326592	; 0xc000000
 8003d96:	687b      	ldr	r3, [r7, #4]
 8003d98:	6edb      	ldr	r3, [r3, #108]	; 0x6c
 8003d9a:	4937      	ldr	r1, [pc, #220]	; (8003e78 <HAL_RCCEx_PeriphCLKConfig+0x4ec>)
 8003d9c:	4313      	orrs	r3, r2
 8003d9e:	f8c1 3088 	str.w	r3, [r1, #136]	; 0x88
 8003da2:	687b      	ldr	r3, [r7, #4]
 8003da4:	6edb      	ldr	r3, [r3, #108]	; 0x6c
 8003da6:	f1b3 6f00 	cmp.w	r3, #134217728	; 0x8000000
 8003daa:	d106      	bne.n	8003dba <HAL_RCCEx_PeriphCLKConfig+0x42e>
 8003dac:	4b32      	ldr	r3, [pc, #200]	; (8003e78 <HAL_RCCEx_PeriphCLKConfig+0x4ec>)
 8003dae:	68db      	ldr	r3, [r3, #12]
 8003db0:	4a31      	ldr	r2, [pc, #196]	; (8003e78 <HAL_RCCEx_PeriphCLKConfig+0x4ec>)
 8003db2:	f443 1380 	orr.w	r3, r3, #1048576	; 0x100000
 8003db6:	60d3      	str	r3, [r2, #12]
 8003db8:	e011      	b.n	8003dde <HAL_RCCEx_PeriphCLKConfig+0x452>
 8003dba:	687b      	ldr	r3, [r7, #4]
 8003dbc:	6edb      	ldr	r3, [r3, #108]	; 0x6c
 8003dbe:	f1b3 6f80 	cmp.w	r3, #67108864	; 0x4000000
 8003dc2:	d10c      	bne.n	8003dde <HAL_RCCEx_PeriphCLKConfig+0x452>
 8003dc4:	687b      	ldr	r3, [r7, #4]
 8003dc6:	3304      	adds	r3, #4
 8003dc8:	2101      	movs	r1, #1
 8003dca:	4618      	mov	r0, r3
 8003dcc:	f000 f8d8 	bl	8003f80 <RCCEx_PLLSAI1_Config>
 8003dd0:	4603      	mov	r3, r0
 8003dd2:	74fb      	strb	r3, [r7, #19]
 8003dd4:	7cfb      	ldrb	r3, [r7, #19]
 8003dd6:	2b00      	cmp	r3, #0
 8003dd8:	d001      	beq.n	8003dde <HAL_RCCEx_PeriphCLKConfig+0x452>
 8003dda:	7cfb      	ldrb	r3, [r7, #19]
 8003ddc:	74bb      	strb	r3, [r7, #18]
 8003dde:	687b      	ldr	r3, [r7, #4]
 8003de0:	681b      	ldr	r3, [r3, #0]
 8003de2:	f403 2300 	and.w	r3, r3, #524288	; 0x80000
 8003de6:	2b00      	cmp	r3, #0
 8003de8:	d028      	beq.n	8003e3c <HAL_RCCEx_PeriphCLKConfig+0x4b0>
 8003dea:	4b23      	ldr	r3, [pc, #140]	; (8003e78 <HAL_RCCEx_PeriphCLKConfig+0x4ec>)
 8003dec:	f8d3 3088 	ldr.w	r3, [r3, #136]	; 0x88
 8003df0:	f023 6240 	bic.w	r2, r3, #201326592	; 0xc000000
 8003df4:	687b      	ldr	r3, [r7, #4]
 8003df6:	6f1b      	ldr	r3, [r3, #112]	; 0x70
 8003df8:	491f      	ldr	r1, [pc, #124]	; (8003e78 <HAL_RCCEx_PeriphCLKConfig+0x4ec>)
 8003dfa:	4313      	orrs	r3, r2
 8003dfc:	f8c1 3088 	str.w	r3, [r1, #136]	; 0x88
 8003e00:	687b      	ldr	r3, [r7, #4]
 8003e02:	6f1b      	ldr	r3, [r3, #112]	; 0x70
 8003e04:	f1b3 6f00 	cmp.w	r3, #134217728	; 0x8000000
 8003e08:	d106      	bne.n	8003e18 <HAL_RCCEx_PeriphCLKConfig+0x48c>
 8003e0a:	4b1b      	ldr	r3, [pc, #108]	; (8003e78 <HAL_RCCEx_PeriphCLKConfig+0x4ec>)
 8003e0c:	68db      	ldr	r3, [r3, #12]
 8003e0e:	4a1a      	ldr	r2, [pc, #104]	; (8003e78 <HAL_RCCEx_PeriphCLKConfig+0x4ec>)
 8003e10:	f443 1380 	orr.w	r3, r3, #1048576	; 0x100000
 8003e14:	60d3      	str	r3, [r2, #12]
 8003e16:	e011      	b.n	8003e3c <HAL_RCCEx_PeriphCLKConfig+0x4b0>
 8003e18:	687b      	ldr	r3, [r7, #4]
 8003e1a:	6f1b      	ldr	r3, [r3, #112]	; 0x70
 8003e1c:	f1b3 6f80 	cmp.w	r3, #67108864	; 0x4000000
 8003e20:	d10c      	bne.n	8003e3c <HAL_RCCEx_PeriphCLKConfig+0x4b0>
 8003e22:	687b      	ldr	r3, [r7, #4]
 8003e24:	3304      	adds	r3, #4
 8003e26:	2101      	movs	r1, #1
 8003e28:	4618      	mov	r0, r3
 8003e2a:	f000 f8a9 	bl	8003f80 <RCCEx_PLLSAI1_Config>
 8003e2e:	4603      	mov	r3, r0
 8003e30:	74fb      	strb	r3, [r7, #19]
 8003e32:	7cfb      	ldrb	r3, [r7, #19]
 8003e34:	2b00      	cmp	r3, #0
 8003e36:	d001      	beq.n	8003e3c <HAL_RCCEx_PeriphCLKConfig+0x4b0>
 8003e38:	7cfb      	ldrb	r3, [r7, #19]
 8003e3a:	74bb      	strb	r3, [r7, #18]
 8003e3c:	687b      	ldr	r3, [r7, #4]
 8003e3e:	681b      	ldr	r3, [r3, #0]
 8003e40:	f403 2380 	and.w	r3, r3, #262144	; 0x40000
 8003e44:	2b00      	cmp	r3, #0
 8003e46:	d02b      	beq.n	8003ea0 <HAL_RCCEx_PeriphCLKConfig+0x514>
 8003e48:	4b0b      	ldr	r3, [pc, #44]	; (8003e78 <HAL_RCCEx_PeriphCLKConfig+0x4ec>)
 8003e4a:	f8d3 3088 	ldr.w	r3, [r3, #136]	; 0x88
 8003e4e:	f023 6240 	bic.w	r2, r3, #201326592	; 0xc000000
 8003e52:	687b      	ldr	r3, [r7, #4]
 8003e54:	6f5b      	ldr	r3, [r3, #116]	; 0x74
 8003e56:	4908      	ldr	r1, [pc, #32]	; (8003e78 <HAL_RCCEx_PeriphCLKConfig+0x4ec>)
 8003e58:	4313      	orrs	r3, r2
 8003e5a:	f8c1 3088 	str.w	r3, [r1, #136]	; 0x88
 8003e5e:	687b      	ldr	r3, [r7, #4]
 8003e60:	6f5b      	ldr	r3, [r3, #116]	; 0x74
 8003e62:	f1b3 6f00 	cmp.w	r3, #134217728	; 0x8000000
 8003e66:	d109      	bne.n	8003e7c <HAL_RCCEx_PeriphCLKConfig+0x4f0>
 8003e68:	4b03      	ldr	r3, [pc, #12]	; (8003e78 <HAL_RCCEx_PeriphCLKConfig+0x4ec>)
 8003e6a:	68db      	ldr	r3, [r3, #12]
 8003e6c:	4a02      	ldr	r2, [pc, #8]	; (8003e78 <HAL_RCCEx_PeriphCLKConfig+0x4ec>)
 8003e6e:	f443 1380 	orr.w	r3, r3, #1048576	; 0x100000
 8003e72:	60d3      	str	r3, [r2, #12]
 8003e74:	e014      	b.n	8003ea0 <HAL_RCCEx_PeriphCLKConfig+0x514>
 8003e76:	bf00      	nop
 8003e78:	40021000 	.word	0x40021000
 8003e7c:	687b      	ldr	r3, [r7, #4]
 8003e7e:	6f5b      	ldr	r3, [r3, #116]	; 0x74
 8003e80:	f1b3 6f80 	cmp.w	r3, #67108864	; 0x4000000
 8003e84:	d10c      	bne.n	8003ea0 <HAL_RCCEx_PeriphCLKConfig+0x514>
 8003e86:	687b      	ldr	r3, [r7, #4]
 8003e88:	3304      	adds	r3, #4
 8003e8a:	2101      	movs	r1, #1
 8003e8c:	4618      	mov	r0, r3
 8003e8e:	f000 f877 	bl	8003f80 <RCCEx_PLLSAI1_Config>
 8003e92:	4603      	mov	r3, r0
 8003e94:	74fb      	strb	r3, [r7, #19]
 8003e96:	7cfb      	ldrb	r3, [r7, #19]
 8003e98:	2b00      	cmp	r3, #0
 8003e9a:	d001      	beq.n	8003ea0 <HAL_RCCEx_PeriphCLKConfig+0x514>
 8003e9c:	7cfb      	ldrb	r3, [r7, #19]
 8003e9e:	74bb      	strb	r3, [r7, #18]
 8003ea0:	687b      	ldr	r3, [r7, #4]
 8003ea2:	681b      	ldr	r3, [r3, #0]
 8003ea4:	f403 4380 	and.w	r3, r3, #16384	; 0x4000
 8003ea8:	2b00      	cmp	r3, #0
 8003eaa:	d02f      	beq.n	8003f0c <HAL_RCCEx_PeriphCLKConfig+0x580>
 8003eac:	4b2b      	ldr	r3, [pc, #172]	; (8003f5c <HAL_RCCEx_PeriphCLKConfig+0x5d0>)
 8003eae:	f8d3 3088 	ldr.w	r3, [r3, #136]	; 0x88
 8003eb2:	f023 5240 	bic.w	r2, r3, #805306368	; 0x30000000
 8003eb6:	687b      	ldr	r3, [r7, #4]
 8003eb8:	6f9b      	ldr	r3, [r3, #120]	; 0x78
 8003eba:	4928      	ldr	r1, [pc, #160]	; (8003f5c <HAL_RCCEx_PeriphCLKConfig+0x5d0>)
 8003ebc:	4313      	orrs	r3, r2
 8003ebe:	f8c1 3088 	str.w	r3, [r1, #136]	; 0x88
 8003ec2:	687b      	ldr	r3, [r7, #4]
 8003ec4:	6f9b      	ldr	r3, [r3, #120]	; 0x78
 8003ec6:	f1b3 5f80 	cmp.w	r3, #268435456	; 0x10000000
 8003eca:	d10d      	bne.n	8003ee8 <HAL_RCCEx_PeriphCLKConfig+0x55c>
 8003ecc:	687b      	ldr	r3, [r7, #4]
 8003ece:	3304      	adds	r3, #4
 8003ed0:	2102      	movs	r1, #2
 8003ed2:	4618      	mov	r0, r3
 8003ed4:	f000 f854 	bl	8003f80 <RCCEx_PLLSAI1_Config>
 8003ed8:	4603      	mov	r3, r0
 8003eda:	74fb      	strb	r3, [r7, #19]
 8003edc:	7cfb      	ldrb	r3, [r7, #19]
 8003ede:	2b00      	cmp	r3, #0
 8003ee0:	d014      	beq.n	8003f0c <HAL_RCCEx_PeriphCLKConfig+0x580>
 8003ee2:	7cfb      	ldrb	r3, [r7, #19]
 8003ee4:	74bb      	strb	r3, [r7, #18]
 8003ee6:	e011      	b.n	8003f0c <HAL_RCCEx_PeriphCLKConfig+0x580>
 8003ee8:	687b      	ldr	r3, [r7, #4]
 8003eea:	6f9b      	ldr	r3, [r3, #120]	; 0x78
 8003eec:	f1b3 5f00 	cmp.w	r3, #536870912	; 0x20000000
 8003ef0:	d10c      	bne.n	8003f0c <HAL_RCCEx_PeriphCLKConfig+0x580>
 8003ef2:	687b      	ldr	r3, [r7, #4]
 8003ef4:	3320      	adds	r3, #32
 8003ef6:	2102      	movs	r1, #2
 8003ef8:	4618      	mov	r0, r3
 8003efa:	f000 f935 	bl	8004168 <RCCEx_PLLSAI2_Config>
 8003efe:	4603      	mov	r3, r0
 8003f00:	74fb      	strb	r3, [r7, #19]
 8003f02:	7cfb      	ldrb	r3, [r7, #19]
 8003f04:	2b00      	cmp	r3, #0
 8003f06:	d001      	beq.n	8003f0c <HAL_RCCEx_PeriphCLKConfig+0x580>
 8003f08:	7cfb      	ldrb	r3, [r7, #19]
 8003f0a:	74bb      	strb	r3, [r7, #18]
 8003f0c:	687b      	ldr	r3, [r7, #4]
 8003f0e:	681b      	ldr	r3, [r3, #0]
 8003f10:	f403 4300 	and.w	r3, r3, #32768	; 0x8000
 8003f14:	2b00      	cmp	r3, #0
 8003f16:	d00a      	beq.n	8003f2e <HAL_RCCEx_PeriphCLKConfig+0x5a2>
 8003f18:	4b10      	ldr	r3, [pc, #64]	; (8003f5c <HAL_RCCEx_PeriphCLKConfig+0x5d0>)
 8003f1a:	f8d3 3088 	ldr.w	r3, [r3, #136]	; 0x88
 8003f1e:	f023 4280 	bic.w	r2, r3, #1073741824	; 0x40000000
 8003f22:	687b      	ldr	r3, [r7, #4]
 8003f24:	6fdb      	ldr	r3, [r3, #124]	; 0x7c
 8003f26:	490d      	ldr	r1, [pc, #52]	; (8003f5c <HAL_RCCEx_PeriphCLKConfig+0x5d0>)
 8003f28:	4313      	orrs	r3, r2
 8003f2a:	f8c1 3088 	str.w	r3, [r1, #136]	; 0x88
 8003f2e:	687b      	ldr	r3, [r7, #4]
 8003f30:	681b      	ldr	r3, [r3, #0]
 8003f32:	f403 3380 	and.w	r3, r3, #65536	; 0x10000
 8003f36:	2b00      	cmp	r3, #0
 8003f38:	d00b      	beq.n	8003f52 <HAL_RCCEx_PeriphCLKConfig+0x5c6>
 8003f3a:	4b08      	ldr	r3, [pc, #32]	; (8003f5c <HAL_RCCEx_PeriphCLKConfig+0x5d0>)
 8003f3c:	f8d3 3088 	ldr.w	r3, [r3, #136]	; 0x88
 8003f40:	f023 4200 	bic.w	r2, r3, #2147483648	; 0x80000000
 8003f44:	687b      	ldr	r3, [r7, #4]
 8003f46:	f8d3 3080 	ldr.w	r3, [r3, #128]	; 0x80
 8003f4a:	4904      	ldr	r1, [pc, #16]	; (8003f5c <HAL_RCCEx_PeriphCLKConfig+0x5d0>)
 8003f4c:	4313      	orrs	r3, r2
 8003f4e:	f8c1 3088 	str.w	r3, [r1, #136]	; 0x88
 8003f52:	7cbb      	ldrb	r3, [r7, #18]
 8003f54:	4618      	mov	r0, r3
 8003f56:	3718      	adds	r7, #24
 8003f58:	46bd      	mov	sp, r7
 8003f5a:	bd80      	pop	{r7, pc}
 8003f5c:	40021000 	.word	0x40021000

08003f60 <HAL_RCCEx_EnableMSIPLLMode>:
 8003f60:	b480      	push	{r7}
 8003f62:	af00      	add	r7, sp, #0
 8003f64:	4b05      	ldr	r3, [pc, #20]	; (8003f7c <HAL_RCCEx_EnableMSIPLLMode+0x1c>)
 8003f66:	681b      	ldr	r3, [r3, #0]
 8003f68:	4a04      	ldr	r2, [pc, #16]	; (8003f7c <HAL_RCCEx_EnableMSIPLLMode+0x1c>)
 8003f6a:	f043 0304 	orr.w	r3, r3, #4
 8003f6e:	6013      	str	r3, [r2, #0]
 8003f70:	bf00      	nop
 8003f72:	46bd      	mov	sp, r7
 8003f74:	f85d 7b04 	ldr.w	r7, [sp], #4
 8003f78:	4770      	bx	lr
 8003f7a:	bf00      	nop
 8003f7c:	40021000 	.word	0x40021000

08003f80 <RCCEx_PLLSAI1_Config>:
 8003f80:	b580      	push	{r7, lr}
 8003f82:	b084      	sub	sp, #16
 8003f84:	af00      	add	r7, sp, #0
 8003f86:	6078      	str	r0, [r7, #4]
 8003f88:	6039      	str	r1, [r7, #0]
 8003f8a:	2300      	movs	r3, #0
 8003f8c:	73fb      	strb	r3, [r7, #15]
 8003f8e:	4b75      	ldr	r3, [pc, #468]	; (8004164 <RCCEx_PLLSAI1_Config+0x1e4>)
 8003f90:	68db      	ldr	r3, [r3, #12]
 8003f92:	f003 0303 	and.w	r3, r3, #3
 8003f96:	2b00      	cmp	r3, #0
 8003f98:	d018      	beq.n	8003fcc <RCCEx_PLLSAI1_Config+0x4c>
 8003f9a:	4b72      	ldr	r3, [pc, #456]	; (8004164 <RCCEx_PLLSAI1_Config+0x1e4>)
 8003f9c:	68db      	ldr	r3, [r3, #12]
 8003f9e:	f003 0203 	and.w	r2, r3, #3
 8003fa2:	687b      	ldr	r3, [r7, #4]
 8003fa4:	681b      	ldr	r3, [r3, #0]
 8003fa6:	429a      	cmp	r2, r3
 8003fa8:	d10d      	bne.n	8003fc6 <RCCEx_PLLSAI1_Config+0x46>
 8003faa:	687b      	ldr	r3, [r7, #4]
 8003fac:	681b      	ldr	r3, [r3, #0]
 8003fae:	2b00      	cmp	r3, #0
 8003fb0:	d009      	beq.n	8003fc6 <RCCEx_PLLSAI1_Config+0x46>
 8003fb2:	4b6c      	ldr	r3, [pc, #432]	; (8004164 <RCCEx_PLLSAI1_Config+0x1e4>)
 8003fb4:	68db      	ldr	r3, [r3, #12]
 8003fb6:	091b      	lsrs	r3, r3, #4
 8003fb8:	f003 0307 	and.w	r3, r3, #7
 8003fbc:	1c5a      	adds	r2, r3, #1
 8003fbe:	687b      	ldr	r3, [r7, #4]
 8003fc0:	685b      	ldr	r3, [r3, #4]
 8003fc2:	429a      	cmp	r2, r3
 8003fc4:	d047      	beq.n	8004056 <RCCEx_PLLSAI1_Config+0xd6>
 8003fc6:	2301      	movs	r3, #1
 8003fc8:	73fb      	strb	r3, [r7, #15]
 8003fca:	e044      	b.n	8004056 <RCCEx_PLLSAI1_Config+0xd6>
 8003fcc:	687b      	ldr	r3, [r7, #4]
 8003fce:	681b      	ldr	r3, [r3, #0]
 8003fd0:	2b03      	cmp	r3, #3
 8003fd2:	d018      	beq.n	8004006 <RCCEx_PLLSAI1_Config+0x86>
 8003fd4:	2b03      	cmp	r3, #3
 8003fd6:	d825      	bhi.n	8004024 <RCCEx_PLLSAI1_Config+0xa4>
 8003fd8:	2b01      	cmp	r3, #1
 8003fda:	d002      	beq.n	8003fe2 <RCCEx_PLLSAI1_Config+0x62>
 8003fdc:	2b02      	cmp	r3, #2
 8003fde:	d009      	beq.n	8003ff4 <RCCEx_PLLSAI1_Config+0x74>
 8003fe0:	e020      	b.n	8004024 <RCCEx_PLLSAI1_Config+0xa4>
 8003fe2:	4b60      	ldr	r3, [pc, #384]	; (8004164 <RCCEx_PLLSAI1_Config+0x1e4>)
 8003fe4:	681b      	ldr	r3, [r3, #0]
 8003fe6:	f003 0302 	and.w	r3, r3, #2
 8003fea:	2b00      	cmp	r3, #0
 8003fec:	d11d      	bne.n	800402a <RCCEx_PLLSAI1_Config+0xaa>
 8003fee:	2301      	movs	r3, #1
 8003ff0:	73fb      	strb	r3, [r7, #15]
 8003ff2:	e01a      	b.n	800402a <RCCEx_PLLSAI1_Config+0xaa>
 8003ff4:	4b5b      	ldr	r3, [pc, #364]	; (8004164 <RCCEx_PLLSAI1_Config+0x1e4>)
 8003ff6:	681b      	ldr	r3, [r3, #0]
 8003ff8:	f403 6380 	and.w	r3, r3, #1024	; 0x400
 8003ffc:	2b00      	cmp	r3, #0
 8003ffe:	d116      	bne.n	800402e <RCCEx_PLLSAI1_Config+0xae>
 8004000:	2301      	movs	r3, #1
 8004002:	73fb      	strb	r3, [r7, #15]
 8004004:	e013      	b.n	800402e <RCCEx_PLLSAI1_Config+0xae>
 8004006:	4b57      	ldr	r3, [pc, #348]	; (8004164 <RCCEx_PLLSAI1_Config+0x1e4>)
 8004008:	681b      	ldr	r3, [r3, #0]
 800400a:	f403 3300 	and.w	r3, r3, #131072	; 0x20000
 800400e:	2b00      	cmp	r3, #0
 8004010:	d10f      	bne.n	8004032 <RCCEx_PLLSAI1_Config+0xb2>
 8004012:	4b54      	ldr	r3, [pc, #336]	; (8004164 <RCCEx_PLLSAI1_Config+0x1e4>)
 8004014:	681b      	ldr	r3, [r3, #0]
 8004016:	f403 2380 	and.w	r3, r3, #262144	; 0x40000
 800401a:	2b00      	cmp	r3, #0
 800401c:	d109      	bne.n	8004032 <RCCEx_PLLSAI1_Config+0xb2>
 800401e:	2301      	movs	r3, #1
 8004020:	73fb      	strb	r3, [r7, #15]
 8004022:	e006      	b.n	8004032 <RCCEx_PLLSAI1_Config+0xb2>
 8004024:	2301      	movs	r3, #1
 8004026:	73fb      	strb	r3, [r7, #15]
 8004028:	e004      	b.n	8004034 <RCCEx_PLLSAI1_Config+0xb4>
 800402a:	bf00      	nop
 800402c:	e002      	b.n	8004034 <RCCEx_PLLSAI1_Config+0xb4>
 800402e:	bf00      	nop
 8004030:	e000      	b.n	8004034 <RCCEx_PLLSAI1_Config+0xb4>
 8004032:	bf00      	nop
 8004034:	7bfb      	ldrb	r3, [r7, #15]
 8004036:	2b00      	cmp	r3, #0
 8004038:	d10d      	bne.n	8004056 <RCCEx_PLLSAI1_Config+0xd6>
 800403a:	4b4a      	ldr	r3, [pc, #296]	; (8004164 <RCCEx_PLLSAI1_Config+0x1e4>)
 800403c:	68db      	ldr	r3, [r3, #12]
 800403e:	f023 0273 	bic.w	r2, r3, #115	; 0x73
 8004042:	687b      	ldr	r3, [r7, #4]
 8004044:	6819      	ldr	r1, [r3, #0]
 8004046:	687b      	ldr	r3, [r7, #4]
 8004048:	685b      	ldr	r3, [r3, #4]
 800404a:	3b01      	subs	r3, #1
 800404c:	011b      	lsls	r3, r3, #4
 800404e:	430b      	orrs	r3, r1
 8004050:	4944      	ldr	r1, [pc, #272]	; (8004164 <RCCEx_PLLSAI1_Config+0x1e4>)
 8004052:	4313      	orrs	r3, r2
 8004054:	60cb      	str	r3, [r1, #12]
 8004056:	7bfb      	ldrb	r3, [r7, #15]
 8004058:	2b00      	cmp	r3, #0
 800405a:	d17d      	bne.n	8004158 <RCCEx_PLLSAI1_Config+0x1d8>
 800405c:	4b41      	ldr	r3, [pc, #260]	; (8004164 <RCCEx_PLLSAI1_Config+0x1e4>)
 800405e:	681b      	ldr	r3, [r3, #0]
 8004060:	4a40      	ldr	r2, [pc, #256]	; (8004164 <RCCEx_PLLSAI1_Config+0x1e4>)
 8004062:	f023 6380 	bic.w	r3, r3, #67108864	; 0x4000000
 8004066:	6013      	str	r3, [r2, #0]
 8004068:	f7fc ff44 	bl	8000ef4 <HAL_GetTick>
 800406c:	60b8      	str	r0, [r7, #8]
 800406e:	e009      	b.n	8004084 <RCCEx_PLLSAI1_Config+0x104>
 8004070:	f7fc ff40 	bl	8000ef4 <HAL_GetTick>
 8004074:	4602      	mov	r2, r0
 8004076:	68bb      	ldr	r3, [r7, #8]
 8004078:	1ad3      	subs	r3, r2, r3
 800407a:	2b02      	cmp	r3, #2
 800407c:	d902      	bls.n	8004084 <RCCEx_PLLSAI1_Config+0x104>
 800407e:	2303      	movs	r3, #3
 8004080:	73fb      	strb	r3, [r7, #15]
 8004082:	e005      	b.n	8004090 <RCCEx_PLLSAI1_Config+0x110>
 8004084:	4b37      	ldr	r3, [pc, #220]	; (8004164 <RCCEx_PLLSAI1_Config+0x1e4>)
 8004086:	681b      	ldr	r3, [r3, #0]
 8004088:	f003 6300 	and.w	r3, r3, #134217728	; 0x8000000
 800408c:	2b00      	cmp	r3, #0
 800408e:	d1ef      	bne.n	8004070 <RCCEx_PLLSAI1_Config+0xf0>
 8004090:	7bfb      	ldrb	r3, [r7, #15]
 8004092:	2b00      	cmp	r3, #0
 8004094:	d160      	bne.n	8004158 <RCCEx_PLLSAI1_Config+0x1d8>
 8004096:	683b      	ldr	r3, [r7, #0]
 8004098:	2b00      	cmp	r3, #0
 800409a:	d111      	bne.n	80040c0 <RCCEx_PLLSAI1_Config+0x140>
 800409c:	4b31      	ldr	r3, [pc, #196]	; (8004164 <RCCEx_PLLSAI1_Config+0x1e4>)
 800409e:	691b      	ldr	r3, [r3, #16]
 80040a0:	f423 331f 	bic.w	r3, r3, #162816	; 0x27c00
 80040a4:	f423 7340 	bic.w	r3, r3, #768	; 0x300
 80040a8:	687a      	ldr	r2, [r7, #4]
 80040aa:	6892      	ldr	r2, [r2, #8]
 80040ac:	0211      	lsls	r1, r2, #8
 80040ae:	687a      	ldr	r2, [r7, #4]
 80040b0:	68d2      	ldr	r2, [r2, #12]
 80040b2:	0912      	lsrs	r2, r2, #4
 80040b4:	0452      	lsls	r2, r2, #17
 80040b6:	430a      	orrs	r2, r1
 80040b8:	492a      	ldr	r1, [pc, #168]	; (8004164 <RCCEx_PLLSAI1_Config+0x1e4>)
 80040ba:	4313      	orrs	r3, r2
 80040bc:	610b      	str	r3, [r1, #16]
 80040be:	e027      	b.n	8004110 <RCCEx_PLLSAI1_Config+0x190>
 80040c0:	683b      	ldr	r3, [r7, #0]
 80040c2:	2b01      	cmp	r3, #1
 80040c4:	d112      	bne.n	80040ec <RCCEx_PLLSAI1_Config+0x16c>
 80040c6:	4b27      	ldr	r3, [pc, #156]	; (8004164 <RCCEx_PLLSAI1_Config+0x1e4>)
 80040c8:	691b      	ldr	r3, [r3, #16]
 80040ca:	f423 03c0 	bic.w	r3, r3, #6291456	; 0x600000
 80040ce:	f423 43fe 	bic.w	r3, r3, #32512	; 0x7f00
 80040d2:	687a      	ldr	r2, [r7, #4]
 80040d4:	6892      	ldr	r2, [r2, #8]
 80040d6:	0211      	lsls	r1, r2, #8
 80040d8:	687a      	ldr	r2, [r7, #4]
 80040da:	6912      	ldr	r2, [r2, #16]
 80040dc:	0852      	lsrs	r2, r2, #1
 80040de:	3a01      	subs	r2, #1
 80040e0:	0552      	lsls	r2, r2, #21
 80040e2:	430a      	orrs	r2, r1
 80040e4:	491f      	ldr	r1, [pc, #124]	; (8004164 <RCCEx_PLLSAI1_Config+0x1e4>)
 80040e6:	4313      	orrs	r3, r2
 80040e8:	610b      	str	r3, [r1, #16]
 80040ea:	e011      	b.n	8004110 <RCCEx_PLLSAI1_Config+0x190>
 80040ec:	4b1d      	ldr	r3, [pc, #116]	; (8004164 <RCCEx_PLLSAI1_Config+0x1e4>)
 80040ee:	691b      	ldr	r3, [r3, #16]
 80040f0:	f023 63c0 	bic.w	r3, r3, #100663296	; 0x6000000
 80040f4:	f423 43fe 	bic.w	r3, r3, #32512	; 0x7f00
 80040f8:	687a      	ldr	r2, [r7, #4]
 80040fa:	6892      	ldr	r2, [r2, #8]
 80040fc:	0211      	lsls	r1, r2, #8
 80040fe:	687a      	ldr	r2, [r7, #4]
 8004100:	6952      	ldr	r2, [r2, #20]
 8004102:	0852      	lsrs	r2, r2, #1
 8004104:	3a01      	subs	r2, #1
 8004106:	0652      	lsls	r2, r2, #25
 8004108:	430a      	orrs	r2, r1
 800410a:	4916      	ldr	r1, [pc, #88]	; (8004164 <RCCEx_PLLSAI1_Config+0x1e4>)
 800410c:	4313      	orrs	r3, r2
 800410e:	610b      	str	r3, [r1, #16]
 8004110:	4b14      	ldr	r3, [pc, #80]	; (8004164 <RCCEx_PLLSAI1_Config+0x1e4>)
 8004112:	681b      	ldr	r3, [r3, #0]
 8004114:	4a13      	ldr	r2, [pc, #76]	; (8004164 <RCCEx_PLLSAI1_Config+0x1e4>)
 8004116:	f043 6380 	orr.w	r3, r3, #67108864	; 0x4000000
 800411a:	6013      	str	r3, [r2, #0]
 800411c:	f7fc feea 	bl	8000ef4 <HAL_GetTick>
 8004120:	60b8      	str	r0, [r7, #8]
 8004122:	e009      	b.n	8004138 <RCCEx_PLLSAI1_Config+0x1b8>
 8004124:	f7fc fee6 	bl	8000ef4 <HAL_GetTick>
 8004128:	4602      	mov	r2, r0
 800412a:	68bb      	ldr	r3, [r7, #8]
 800412c:	1ad3      	subs	r3, r2, r3
 800412e:	2b02      	cmp	r3, #2
 8004130:	d902      	bls.n	8004138 <RCCEx_PLLSAI1_Config+0x1b8>
 8004132:	2303      	movs	r3, #3
 8004134:	73fb      	strb	r3, [r7, #15]
 8004136:	e005      	b.n	8004144 <RCCEx_PLLSAI1_Config+0x1c4>
 8004138:	4b0a      	ldr	r3, [pc, #40]	; (8004164 <RCCEx_PLLSAI1_Config+0x1e4>)
 800413a:	681b      	ldr	r3, [r3, #0]
 800413c:	f003 6300 	and.w	r3, r3, #134217728	; 0x8000000
 8004140:	2b00      	cmp	r3, #0
 8004142:	d0ef      	beq.n	8004124 <RCCEx_PLLSAI1_Config+0x1a4>
 8004144:	7bfb      	ldrb	r3, [r7, #15]
 8004146:	2b00      	cmp	r3, #0
 8004148:	d106      	bne.n	8004158 <RCCEx_PLLSAI1_Config+0x1d8>
 800414a:	4b06      	ldr	r3, [pc, #24]	; (8004164 <RCCEx_PLLSAI1_Config+0x1e4>)
 800414c:	691a      	ldr	r2, [r3, #16]
 800414e:	687b      	ldr	r3, [r7, #4]
 8004150:	699b      	ldr	r3, [r3, #24]
 8004152:	4904      	ldr	r1, [pc, #16]	; (8004164 <RCCEx_PLLSAI1_Config+0x1e4>)
 8004154:	4313      	orrs	r3, r2
 8004156:	610b      	str	r3, [r1, #16]
 8004158:	7bfb      	ldrb	r3, [r7, #15]
 800415a:	4618      	mov	r0, r3
 800415c:	3710      	adds	r7, #16
 800415e:	46bd      	mov	sp, r7
 8004160:	bd80      	pop	{r7, pc}
 8004162:	bf00      	nop
 8004164:	40021000 	.word	0x40021000

08004168 <RCCEx_PLLSAI2_Config>:
 8004168:	b580      	push	{r7, lr}
 800416a:	b084      	sub	sp, #16
 800416c:	af00      	add	r7, sp, #0
 800416e:	6078      	str	r0, [r7, #4]
 8004170:	6039      	str	r1, [r7, #0]
 8004172:	2300      	movs	r3, #0
 8004174:	73fb      	strb	r3, [r7, #15]
 8004176:	4b6a      	ldr	r3, [pc, #424]	; (8004320 <RCCEx_PLLSAI2_Config+0x1b8>)
 8004178:	68db      	ldr	r3, [r3, #12]
 800417a:	f003 0303 	and.w	r3, r3, #3
 800417e:	2b00      	cmp	r3, #0
 8004180:	d018      	beq.n	80041b4 <RCCEx_PLLSAI2_Config+0x4c>
 8004182:	4b67      	ldr	r3, [pc, #412]	; (8004320 <RCCEx_PLLSAI2_Config+0x1b8>)
 8004184:	68db      	ldr	r3, [r3, #12]
 8004186:	f003 0203 	and.w	r2, r3, #3
 800418a:	687b      	ldr	r3, [r7, #4]
 800418c:	681b      	ldr	r3, [r3, #0]
 800418e:	429a      	cmp	r2, r3
 8004190:	d10d      	bne.n	80041ae <RCCEx_PLLSAI2_Config+0x46>
 8004192:	687b      	ldr	r3, [r7, #4]
 8004194:	681b      	ldr	r3, [r3, #0]
 8004196:	2b00      	cmp	r3, #0
 8004198:	d009      	beq.n	80041ae <RCCEx_PLLSAI2_Config+0x46>
 800419a:	4b61      	ldr	r3, [pc, #388]	; (8004320 <RCCEx_PLLSAI2_Config+0x1b8>)
 800419c:	68db      	ldr	r3, [r3, #12]
 800419e:	091b      	lsrs	r3, r3, #4
 80041a0:	f003 0307 	and.w	r3, r3, #7
 80041a4:	1c5a      	adds	r2, r3, #1
 80041a6:	687b      	ldr	r3, [r7, #4]
 80041a8:	685b      	ldr	r3, [r3, #4]
 80041aa:	429a      	cmp	r2, r3
 80041ac:	d047      	beq.n	800423e <RCCEx_PLLSAI2_Config+0xd6>
 80041ae:	2301      	movs	r3, #1
 80041b0:	73fb      	strb	r3, [r7, #15]
 80041b2:	e044      	b.n	800423e <RCCEx_PLLSAI2_Config+0xd6>
 80041b4:	687b      	ldr	r3, [r7, #4]
 80041b6:	681b      	ldr	r3, [r3, #0]
 80041b8:	2b03      	cmp	r3, #3
 80041ba:	d018      	beq.n	80041ee <RCCEx_PLLSAI2_Config+0x86>
 80041bc:	2b03      	cmp	r3, #3
 80041be:	d825      	bhi.n	800420c <RCCEx_PLLSAI2_Config+0xa4>
 80041c0:	2b01      	cmp	r3, #1
 80041c2:	d002      	beq.n	80041ca <RCCEx_PLLSAI2_Config+0x62>
 80041c4:	2b02      	cmp	r3, #2
 80041c6:	d009      	beq.n	80041dc <RCCEx_PLLSAI2_Config+0x74>
 80041c8:	e020      	b.n	800420c <RCCEx_PLLSAI2_Config+0xa4>
 80041ca:	4b55      	ldr	r3, [pc, #340]	; (8004320 <RCCEx_PLLSAI2_Config+0x1b8>)
 80041cc:	681b      	ldr	r3, [r3, #0]
 80041ce:	f003 0302 	and.w	r3, r3, #2
 80041d2:	2b00      	cmp	r3, #0
 80041d4:	d11d      	bne.n	8004212 <RCCEx_PLLSAI2_Config+0xaa>
 80041d6:	2301      	movs	r3, #1
 80041d8:	73fb      	strb	r3, [r7, #15]
 80041da:	e01a      	b.n	8004212 <RCCEx_PLLSAI2_Config+0xaa>
 80041dc:	4b50      	ldr	r3, [pc, #320]	; (8004320 <RCCEx_PLLSAI2_Config+0x1b8>)
 80041de:	681b      	ldr	r3, [r3, #0]
 80041e0:	f403 6380 	and.w	r3, r3, #1024	; 0x400
 80041e4:	2b00      	cmp	r3, #0
 80041e6:	d116      	bne.n	8004216 <RCCEx_PLLSAI2_Config+0xae>
 80041e8:	2301      	movs	r3, #1
 80041ea:	73fb      	strb	r3, [r7, #15]
 80041ec:	e013      	b.n	8004216 <RCCEx_PLLSAI2_Config+0xae>
 80041ee:	4b4c      	ldr	r3, [pc, #304]	; (8004320 <RCCEx_PLLSAI2_Config+0x1b8>)
 80041f0:	681b      	ldr	r3, [r3, #0]
 80041f2:	f403 3300 	and.w	r3, r3, #131072	; 0x20000
 80041f6:	2b00      	cmp	r3, #0
 80041f8:	d10f      	bne.n	800421a <RCCEx_PLLSAI2_Config+0xb2>
 80041fa:	4b49      	ldr	r3, [pc, #292]	; (8004320 <RCCEx_PLLSAI2_Config+0x1b8>)
 80041fc:	681b      	ldr	r3, [r3, #0]
 80041fe:	f403 2380 	and.w	r3, r3, #262144	; 0x40000
 8004202:	2b00      	cmp	r3, #0
 8004204:	d109      	bne.n	800421a <RCCEx_PLLSAI2_Config+0xb2>
 8004206:	2301      	movs	r3, #1
 8004208:	73fb      	strb	r3, [r7, #15]
 800420a:	e006      	b.n	800421a <RCCEx_PLLSAI2_Config+0xb2>
 800420c:	2301      	movs	r3, #1
 800420e:	73fb      	strb	r3, [r7, #15]
 8004210:	e004      	b.n	800421c <RCCEx_PLLSAI2_Config+0xb4>
 8004212:	bf00      	nop
 8004214:	e002      	b.n	800421c <RCCEx_PLLSAI2_Config+0xb4>
 8004216:	bf00      	nop
 8004218:	e000      	b.n	800421c <RCCEx_PLLSAI2_Config+0xb4>
 800421a:	bf00      	nop
 800421c:	7bfb      	ldrb	r3, [r7, #15]
 800421e:	2b00      	cmp	r3, #0
 8004220:	d10d      	bne.n	800423e <RCCEx_PLLSAI2_Config+0xd6>
 8004222:	4b3f      	ldr	r3, [pc, #252]	; (8004320 <RCCEx_PLLSAI2_Config+0x1b8>)
 8004224:	68db      	ldr	r3, [r3, #12]
 8004226:	f023 0273 	bic.w	r2, r3, #115	; 0x73
 800422a:	687b      	ldr	r3, [r7, #4]
 800422c:	6819      	ldr	r1, [r3, #0]
 800422e:	687b      	ldr	r3, [r7, #4]
 8004230:	685b      	ldr	r3, [r3, #4]
 8004232:	3b01      	subs	r3, #1
 8004234:	011b      	lsls	r3, r3, #4
 8004236:	430b      	orrs	r3, r1
 8004238:	4939      	ldr	r1, [pc, #228]	; (8004320 <RCCEx_PLLSAI2_Config+0x1b8>)
 800423a:	4313      	orrs	r3, r2
 800423c:	60cb      	str	r3, [r1, #12]
 800423e:	7bfb      	ldrb	r3, [r7, #15]
 8004240:	2b00      	cmp	r3, #0
 8004242:	d167      	bne.n	8004314 <RCCEx_PLLSAI2_Config+0x1ac>
 8004244:	4b36      	ldr	r3, [pc, #216]	; (8004320 <RCCEx_PLLSAI2_Config+0x1b8>)
 8004246:	681b      	ldr	r3, [r3, #0]
 8004248:	4a35      	ldr	r2, [pc, #212]	; (8004320 <RCCEx_PLLSAI2_Config+0x1b8>)
 800424a:	f023 5380 	bic.w	r3, r3, #268435456	; 0x10000000
 800424e:	6013      	str	r3, [r2, #0]
 8004250:	f7fc fe50 	bl	8000ef4 <HAL_GetTick>
 8004254:	60b8      	str	r0, [r7, #8]
 8004256:	e009      	b.n	800426c <RCCEx_PLLSAI2_Config+0x104>
 8004258:	f7fc fe4c 	bl	8000ef4 <HAL_GetTick>
 800425c:	4602      	mov	r2, r0
 800425e:	68bb      	ldr	r3, [r7, #8]
 8004260:	1ad3      	subs	r3, r2, r3
 8004262:	2b02      	cmp	r3, #2
 8004264:	d902      	bls.n	800426c <RCCEx_PLLSAI2_Config+0x104>
 8004266:	2303      	movs	r3, #3
 8004268:	73fb      	strb	r3, [r7, #15]
 800426a:	e005      	b.n	8004278 <RCCEx_PLLSAI2_Config+0x110>
 800426c:	4b2c      	ldr	r3, [pc, #176]	; (8004320 <RCCEx_PLLSAI2_Config+0x1b8>)
 800426e:	681b      	ldr	r3, [r3, #0]
 8004270:	f003 5300 	and.w	r3, r3, #536870912	; 0x20000000
 8004274:	2b00      	cmp	r3, #0
 8004276:	d1ef      	bne.n	8004258 <RCCEx_PLLSAI2_Config+0xf0>
 8004278:	7bfb      	ldrb	r3, [r7, #15]
 800427a:	2b00      	cmp	r3, #0
 800427c:	d14a      	bne.n	8004314 <RCCEx_PLLSAI2_Config+0x1ac>
 800427e:	683b      	ldr	r3, [r7, #0]
 8004280:	2b00      	cmp	r3, #0
 8004282:	d111      	bne.n	80042a8 <RCCEx_PLLSAI2_Config+0x140>
 8004284:	4b26      	ldr	r3, [pc, #152]	; (8004320 <RCCEx_PLLSAI2_Config+0x1b8>)
 8004286:	695b      	ldr	r3, [r3, #20]
 8004288:	f423 331f 	bic.w	r3, r3, #162816	; 0x27c00
 800428c:	f423 7340 	bic.w	r3, r3, #768	; 0x300
 8004290:	687a      	ldr	r2, [r7, #4]
 8004292:	6892      	ldr	r2, [r2, #8]
 8004294:	0211      	lsls	r1, r2, #8
 8004296:	687a      	ldr	r2, [r7, #4]
 8004298:	68d2      	ldr	r2, [r2, #12]
 800429a:	0912      	lsrs	r2, r2, #4
 800429c:	0452      	lsls	r2, r2, #17
 800429e:	430a      	orrs	r2, r1
 80042a0:	491f      	ldr	r1, [pc, #124]	; (8004320 <RCCEx_PLLSAI2_Config+0x1b8>)
 80042a2:	4313      	orrs	r3, r2
 80042a4:	614b      	str	r3, [r1, #20]
 80042a6:	e011      	b.n	80042cc <RCCEx_PLLSAI2_Config+0x164>
 80042a8:	4b1d      	ldr	r3, [pc, #116]	; (8004320 <RCCEx_PLLSAI2_Config+0x1b8>)
 80042aa:	695b      	ldr	r3, [r3, #20]
 80042ac:	f023 63c0 	bic.w	r3, r3, #100663296	; 0x6000000
 80042b0:	f423 43fe 	bic.w	r3, r3, #32512	; 0x7f00
 80042b4:	687a      	ldr	r2, [r7, #4]
 80042b6:	6892      	ldr	r2, [r2, #8]
 80042b8:	0211      	lsls	r1, r2, #8
 80042ba:	687a      	ldr	r2, [r7, #4]
 80042bc:	6912      	ldr	r2, [r2, #16]
 80042be:	0852      	lsrs	r2, r2, #1
 80042c0:	3a01      	subs	r2, #1
 80042c2:	0652      	lsls	r2, r2, #25
 80042c4:	430a      	orrs	r2, r1
 80042c6:	4916      	ldr	r1, [pc, #88]	; (8004320 <RCCEx_PLLSAI2_Config+0x1b8>)
 80042c8:	4313      	orrs	r3, r2
 80042ca:	614b      	str	r3, [r1, #20]
 80042cc:	4b14      	ldr	r3, [pc, #80]	; (8004320 <RCCEx_PLLSAI2_Config+0x1b8>)
 80042ce:	681b      	ldr	r3, [r3, #0]
 80042d0:	4a13      	ldr	r2, [pc, #76]	; (8004320 <RCCEx_PLLSAI2_Config+0x1b8>)
 80042d2:	f043 5380 	orr.w	r3, r3, #268435456	; 0x10000000
 80042d6:	6013      	str	r3, [r2, #0]
 80042d8:	f7fc fe0c 	bl	8000ef4 <HAL_GetTick>
 80042dc:	60b8      	str	r0, [r7, #8]
 80042de:	e009      	b.n	80042f4 <RCCEx_PLLSAI2_Config+0x18c>
 80042e0:	f7fc fe08 	bl	8000ef4 <HAL_GetTick>
 80042e4:	4602      	mov	r2, r0
 80042e6:	68bb      	ldr	r3, [r7, #8]
 80042e8:	1ad3      	subs	r3, r2, r3
 80042ea:	2b02      	cmp	r3, #2
 80042ec:	d902      	bls.n	80042f4 <RCCEx_PLLSAI2_Config+0x18c>
 80042ee:	2303      	movs	r3, #3
 80042f0:	73fb      	strb	r3, [r7, #15]
 80042f2:	e005      	b.n	8004300 <RCCEx_PLLSAI2_Config+0x198>
 80042f4:	4b0a      	ldr	r3, [pc, #40]	; (8004320 <RCCEx_PLLSAI2_Config+0x1b8>)
 80042f6:	681b      	ldr	r3, [r3, #0]
 80042f8:	f003 5300 	and.w	r3, r3, #536870912	; 0x20000000
 80042fc:	2b00      	cmp	r3, #0
 80042fe:	d0ef      	beq.n	80042e0 <RCCEx_PLLSAI2_Config+0x178>
 8004300:	7bfb      	ldrb	r3, [r7, #15]
 8004302:	2b00      	cmp	r3, #0
 8004304:	d106      	bne.n	8004314 <RCCEx_PLLSAI2_Config+0x1ac>
 8004306:	4b06      	ldr	r3, [pc, #24]	; (8004320 <RCCEx_PLLSAI2_Config+0x1b8>)
 8004308:	695a      	ldr	r2, [r3, #20]
 800430a:	687b      	ldr	r3, [r7, #4]
 800430c:	695b      	ldr	r3, [r3, #20]
 800430e:	4904      	ldr	r1, [pc, #16]	; (8004320 <RCCEx_PLLSAI2_Config+0x1b8>)
 8004310:	4313      	orrs	r3, r2
 8004312:	614b      	str	r3, [r1, #20]
 8004314:	7bfb      	ldrb	r3, [r7, #15]
 8004316:	4618      	mov	r0, r3
 8004318:	3710      	adds	r7, #16
 800431a:	46bd      	mov	sp, r7
 800431c:	bd80      	pop	{r7, pc}
 800431e:	bf00      	nop
 8004320:	40021000 	.word	0x40021000

08004324 <HAL_TIM_Base_Init>:
 8004324:	b580      	push	{r7, lr}
 8004326:	b082      	sub	sp, #8
 8004328:	af00      	add	r7, sp, #0
 800432a:	6078      	str	r0, [r7, #4]
 800432c:	687b      	ldr	r3, [r7, #4]
 800432e:	2b00      	cmp	r3, #0
 8004330:	d101      	bne.n	8004336 <HAL_TIM_Base_Init+0x12>
 8004332:	2301      	movs	r3, #1
 8004334:	e049      	b.n	80043ca <HAL_TIM_Base_Init+0xa6>
 8004336:	687b      	ldr	r3, [r7, #4]
 8004338:	f893 303d 	ldrb.w	r3, [r3, #61]	; 0x3d
 800433c:	b2db      	uxtb	r3, r3
 800433e:	2b00      	cmp	r3, #0
 8004340:	d106      	bne.n	8004350 <HAL_TIM_Base_Init+0x2c>
 8004342:	687b      	ldr	r3, [r7, #4]
 8004344:	2200      	movs	r2, #0
 8004346:	f883 203c 	strb.w	r2, [r3, #60]	; 0x3c
 800434a:	6878      	ldr	r0, [r7, #4]
 800434c:	f000 f841 	bl	80043d2 <HAL_TIM_Base_MspInit>
 8004350:	687b      	ldr	r3, [r7, #4]
 8004352:	2202      	movs	r2, #2
 8004354:	f883 203d 	strb.w	r2, [r3, #61]	; 0x3d
 8004358:	687b      	ldr	r3, [r7, #4]
 800435a:	681a      	ldr	r2, [r3, #0]
 800435c:	687b      	ldr	r3, [r7, #4]
 800435e:	3304      	adds	r3, #4
 8004360:	4619      	mov	r1, r3
 8004362:	4610      	mov	r0, r2
 8004364:	f000 f9f8 	bl	8004758 <TIM_Base_SetConfig>
 8004368:	687b      	ldr	r3, [r7, #4]
 800436a:	2201      	movs	r2, #1
 800436c:	f883 2048 	strb.w	r2, [r3, #72]	; 0x48
 8004370:	687b      	ldr	r3, [r7, #4]
 8004372:	2201      	movs	r2, #1
 8004374:	f883 203e 	strb.w	r2, [r3, #62]	; 0x3e
 8004378:	687b      	ldr	r3, [r7, #4]
 800437a:	2201      	movs	r2, #1
 800437c:	f883 203f 	strb.w	r2, [r3, #63]	; 0x3f
 8004380:	687b      	ldr	r3, [r7, #4]
 8004382:	2201      	movs	r2, #1
 8004384:	f883 2040 	strb.w	r2, [r3, #64]	; 0x40
 8004388:	687b      	ldr	r3, [r7, #4]
 800438a:	2201      	movs	r2, #1
 800438c:	f883 2041 	strb.w	r2, [r3, #65]	; 0x41
 8004390:	687b      	ldr	r3, [r7, #4]
 8004392:	2201      	movs	r2, #1
 8004394:	f883 2042 	strb.w	r2, [r3, #66]	; 0x42
 8004398:	687b      	ldr	r3, [r7, #4]
 800439a:	2201      	movs	r2, #1
 800439c:	f883 2043 	strb.w	r2, [r3, #67]	; 0x43
 80043a0:	687b      	ldr	r3, [r7, #4]
 80043a2:	2201      	movs	r2, #1
 80043a4:	f883 2044 	strb.w	r2, [r3, #68]	; 0x44
 80043a8:	687b      	ldr	r3, [r7, #4]
 80043aa:	2201      	movs	r2, #1
 80043ac:	f883 2045 	strb.w	r2, [r3, #69]	; 0x45
 80043b0:	687b      	ldr	r3, [r7, #4]
 80043b2:	2201      	movs	r2, #1
 80043b4:	f883 2046 	strb.w	r2, [r3, #70]	; 0x46
 80043b8:	687b      	ldr	r3, [r7, #4]
 80043ba:	2201      	movs	r2, #1
 80043bc:	f883 2047 	strb.w	r2, [r3, #71]	; 0x47
 80043c0:	687b      	ldr	r3, [r7, #4]
 80043c2:	2201      	movs	r2, #1
 80043c4:	f883 203d 	strb.w	r2, [r3, #61]	; 0x3d
 80043c8:	2300      	movs	r3, #0
 80043ca:	4618      	mov	r0, r3
 80043cc:	3708      	adds	r7, #8
 80043ce:	46bd      	mov	sp, r7
 80043d0:	bd80      	pop	{r7, pc}

080043d2 <HAL_TIM_Base_MspInit>:
 80043d2:	b480      	push	{r7}
 80043d4:	b083      	sub	sp, #12
 80043d6:	af00      	add	r7, sp, #0
 80043d8:	6078      	str	r0, [r7, #4]
 80043da:	bf00      	nop
 80043dc:	370c      	adds	r7, #12
 80043de:	46bd      	mov	sp, r7
 80043e0:	f85d 7b04 	ldr.w	r7, [sp], #4
 80043e4:	4770      	bx	lr
	...

080043e8 <HAL_TIM_Base_Start_IT>:
 80043e8:	b480      	push	{r7}
 80043ea:	b085      	sub	sp, #20
 80043ec:	af00      	add	r7, sp, #0
 80043ee:	6078      	str	r0, [r7, #4]
 80043f0:	687b      	ldr	r3, [r7, #4]
 80043f2:	f893 303d 	ldrb.w	r3, [r3, #61]	; 0x3d
 80043f6:	b2db      	uxtb	r3, r3
 80043f8:	2b01      	cmp	r3, #1
 80043fa:	d001      	beq.n	8004400 <HAL_TIM_Base_Start_IT+0x18>
 80043fc:	2301      	movs	r3, #1
 80043fe:	e04f      	b.n	80044a0 <HAL_TIM_Base_Start_IT+0xb8>
 8004400:	687b      	ldr	r3, [r7, #4]
 8004402:	2202      	movs	r2, #2
 8004404:	f883 203d 	strb.w	r2, [r3, #61]	; 0x3d
 8004408:	687b      	ldr	r3, [r7, #4]
 800440a:	681b      	ldr	r3, [r3, #0]
 800440c:	68da      	ldr	r2, [r3, #12]
 800440e:	687b      	ldr	r3, [r7, #4]
 8004410:	681b      	ldr	r3, [r3, #0]
 8004412:	f042 0201 	orr.w	r2, r2, #1
 8004416:	60da      	str	r2, [r3, #12]
 8004418:	687b      	ldr	r3, [r7, #4]
 800441a:	681b      	ldr	r3, [r3, #0]
 800441c:	4a23      	ldr	r2, [pc, #140]	; (80044ac <HAL_TIM_Base_Start_IT+0xc4>)
 800441e:	4293      	cmp	r3, r2
 8004420:	d01d      	beq.n	800445e <HAL_TIM_Base_Start_IT+0x76>
 8004422:	687b      	ldr	r3, [r7, #4]
 8004424:	681b      	ldr	r3, [r3, #0]
 8004426:	f1b3 4f80 	cmp.w	r3, #1073741824	; 0x40000000
 800442a:	d018      	beq.n	800445e <HAL_TIM_Base_Start_IT+0x76>
 800442c:	687b      	ldr	r3, [r7, #4]
 800442e:	681b      	ldr	r3, [r3, #0]
 8004430:	4a1f      	ldr	r2, [pc, #124]	; (80044b0 <HAL_TIM_Base_Start_IT+0xc8>)
 8004432:	4293      	cmp	r3, r2
 8004434:	d013      	beq.n	800445e <HAL_TIM_Base_Start_IT+0x76>
 8004436:	687b      	ldr	r3, [r7, #4]
 8004438:	681b      	ldr	r3, [r3, #0]
 800443a:	4a1e      	ldr	r2, [pc, #120]	; (80044b4 <HAL_TIM_Base_Start_IT+0xcc>)
 800443c:	4293      	cmp	r3, r2
 800443e:	d00e      	beq.n	800445e <HAL_TIM_Base_Start_IT+0x76>
 8004440:	687b      	ldr	r3, [r7, #4]
 8004442:	681b      	ldr	r3, [r3, #0]
 8004444:	4a1c      	ldr	r2, [pc, #112]	; (80044b8 <HAL_TIM_Base_Start_IT+0xd0>)
 8004446:	4293      	cmp	r3, r2
 8004448:	d009      	beq.n	800445e <HAL_TIM_Base_Start_IT+0x76>
 800444a:	687b      	ldr	r3, [r7, #4]
 800444c:	681b      	ldr	r3, [r3, #0]
 800444e:	4a1b      	ldr	r2, [pc, #108]	; (80044bc <HAL_TIM_Base_Start_IT+0xd4>)
 8004450:	4293      	cmp	r3, r2
 8004452:	d004      	beq.n	800445e <HAL_TIM_Base_Start_IT+0x76>
 8004454:	687b      	ldr	r3, [r7, #4]
 8004456:	681b      	ldr	r3, [r3, #0]
 8004458:	4a19      	ldr	r2, [pc, #100]	; (80044c0 <HAL_TIM_Base_Start_IT+0xd8>)
 800445a:	4293      	cmp	r3, r2
 800445c:	d115      	bne.n	800448a <HAL_TIM_Base_Start_IT+0xa2>
 800445e:	687b      	ldr	r3, [r7, #4]
 8004460:	681b      	ldr	r3, [r3, #0]
 8004462:	689a      	ldr	r2, [r3, #8]
 8004464:	4b17      	ldr	r3, [pc, #92]	; (80044c4 <HAL_TIM_Base_Start_IT+0xdc>)
 8004466:	4013      	ands	r3, r2
 8004468:	60fb      	str	r3, [r7, #12]
 800446a:	68fb      	ldr	r3, [r7, #12]
 800446c:	2b06      	cmp	r3, #6
 800446e:	d015      	beq.n	800449c <HAL_TIM_Base_Start_IT+0xb4>
 8004470:	68fb      	ldr	r3, [r7, #12]
 8004472:	f5b3 3f80 	cmp.w	r3, #65536	; 0x10000
 8004476:	d011      	beq.n	800449c <HAL_TIM_Base_Start_IT+0xb4>
 8004478:	687b      	ldr	r3, [r7, #4]
 800447a:	681b      	ldr	r3, [r3, #0]
 800447c:	681a      	ldr	r2, [r3, #0]
 800447e:	687b      	ldr	r3, [r7, #4]
 8004480:	681b      	ldr	r3, [r3, #0]
 8004482:	f042 0201 	orr.w	r2, r2, #1
 8004486:	601a      	str	r2, [r3, #0]
 8004488:	e008      	b.n	800449c <HAL_TIM_Base_Start_IT+0xb4>
 800448a:	687b      	ldr	r3, [r7, #4]
 800448c:	681b      	ldr	r3, [r3, #0]
 800448e:	681a      	ldr	r2, [r3, #0]
 8004490:	687b      	ldr	r3, [r7, #4]
 8004492:	681b      	ldr	r3, [r3, #0]
 8004494:	f042 0201 	orr.w	r2, r2, #1
 8004498:	601a      	str	r2, [r3, #0]
 800449a:	e000      	b.n	800449e <HAL_TIM_Base_Start_IT+0xb6>
 800449c:	bf00      	nop
 800449e:	2300      	movs	r3, #0
 80044a0:	4618      	mov	r0, r3
 80044a2:	3714      	adds	r7, #20
 80044a4:	46bd      	mov	sp, r7
 80044a6:	f85d 7b04 	ldr.w	r7, [sp], #4
 80044aa:	4770      	bx	lr
 80044ac:	40012c00 	.word	0x40012c00
 80044b0:	40000400 	.word	0x40000400
 80044b4:	40000800 	.word	0x40000800
 80044b8:	40000c00 	.word	0x40000c00
 80044bc:	40013400 	.word	0x40013400
 80044c0:	40014000 	.word	0x40014000
 80044c4:	00010007 	.word	0x00010007

080044c8 <HAL_TIM_IRQHandler>:
 80044c8:	b580      	push	{r7, lr}
 80044ca:	b082      	sub	sp, #8
 80044cc:	af00      	add	r7, sp, #0
 80044ce:	6078      	str	r0, [r7, #4]
 80044d0:	687b      	ldr	r3, [r7, #4]
 80044d2:	681b      	ldr	r3, [r3, #0]
 80044d4:	691b      	ldr	r3, [r3, #16]
 80044d6:	f003 0302 	and.w	r3, r3, #2
 80044da:	2b02      	cmp	r3, #2
 80044dc:	d122      	bne.n	8004524 <HAL_TIM_IRQHandler+0x5c>
 80044de:	687b      	ldr	r3, [r7, #4]
 80044e0:	681b      	ldr	r3, [r3, #0]
 80044e2:	68db      	ldr	r3, [r3, #12]
 80044e4:	f003 0302 	and.w	r3, r3, #2
 80044e8:	2b02      	cmp	r3, #2
 80044ea:	d11b      	bne.n	8004524 <HAL_TIM_IRQHandler+0x5c>
 80044ec:	687b      	ldr	r3, [r7, #4]
 80044ee:	681b      	ldr	r3, [r3, #0]
 80044f0:	f06f 0202 	mvn.w	r2, #2
 80044f4:	611a      	str	r2, [r3, #16]
 80044f6:	687b      	ldr	r3, [r7, #4]
 80044f8:	2201      	movs	r2, #1
 80044fa:	771a      	strb	r2, [r3, #28]
 80044fc:	687b      	ldr	r3, [r7, #4]
 80044fe:	681b      	ldr	r3, [r3, #0]
 8004500:	699b      	ldr	r3, [r3, #24]
 8004502:	f003 0303 	and.w	r3, r3, #3
 8004506:	2b00      	cmp	r3, #0
 8004508:	d003      	beq.n	8004512 <HAL_TIM_IRQHandler+0x4a>
 800450a:	6878      	ldr	r0, [r7, #4]
 800450c:	f000 f905 	bl	800471a <HAL_TIM_IC_CaptureCallback>
 8004510:	e005      	b.n	800451e <HAL_TIM_IRQHandler+0x56>
 8004512:	6878      	ldr	r0, [r7, #4]
 8004514:	f000 f8f7 	bl	8004706 <HAL_TIM_OC_DelayElapsedCallback>
 8004518:	6878      	ldr	r0, [r7, #4]
 800451a:	f000 f908 	bl	800472e <HAL_TIM_PWM_PulseFinishedCallback>
 800451e:	687b      	ldr	r3, [r7, #4]
 8004520:	2200      	movs	r2, #0
 8004522:	771a      	strb	r2, [r3, #28]
 8004524:	687b      	ldr	r3, [r7, #4]
 8004526:	681b      	ldr	r3, [r3, #0]
 8004528:	691b      	ldr	r3, [r3, #16]
 800452a:	f003 0304 	and.w	r3, r3, #4
 800452e:	2b04      	cmp	r3, #4
 8004530:	d122      	bne.n	8004578 <HAL_TIM_IRQHandler+0xb0>
 8004532:	687b      	ldr	r3, [r7, #4]
 8004534:	681b      	ldr	r3, [r3, #0]
 8004536:	68db      	ldr	r3, [r3, #12]
 8004538:	f003 0304 	and.w	r3, r3, #4
 800453c:	2b04      	cmp	r3, #4
 800453e:	d11b      	bne.n	8004578 <HAL_TIM_IRQHandler+0xb0>
 8004540:	687b      	ldr	r3, [r7, #4]
 8004542:	681b      	ldr	r3, [r3, #0]
 8004544:	f06f 0204 	mvn.w	r2, #4
 8004548:	611a      	str	r2, [r3, #16]
 800454a:	687b      	ldr	r3, [r7, #4]
 800454c:	2202      	movs	r2, #2
 800454e:	771a      	strb	r2, [r3, #28]
 8004550:	687b      	ldr	r3, [r7, #4]
 8004552:	681b      	ldr	r3, [r3, #0]
 8004554:	699b      	ldr	r3, [r3, #24]
 8004556:	f403 7340 	and.w	r3, r3, #768	; 0x300
 800455a:	2b00      	cmp	r3, #0
 800455c:	d003      	beq.n	8004566 <HAL_TIM_IRQHandler+0x9e>
 800455e:	6878      	ldr	r0, [r7, #4]
 8004560:	f000 f8db 	bl	800471a <HAL_TIM_IC_CaptureCallback>
 8004564:	e005      	b.n	8004572 <HAL_TIM_IRQHandler+0xaa>
 8004566:	6878      	ldr	r0, [r7, #4]
 8004568:	f000 f8cd 	bl	8004706 <HAL_TIM_OC_DelayElapsedCallback>
 800456c:	6878      	ldr	r0, [r7, #4]
 800456e:	f000 f8de 	bl	800472e <HAL_TIM_PWM_PulseFinishedCallback>
 8004572:	687b      	ldr	r3, [r7, #4]
 8004574:	2200      	movs	r2, #0
 8004576:	771a      	strb	r2, [r3, #28]
 8004578:	687b      	ldr	r3, [r7, #4]
 800457a:	681b      	ldr	r3, [r3, #0]
 800457c:	691b      	ldr	r3, [r3, #16]
 800457e:	f003 0308 	and.w	r3, r3, #8
 8004582:	2b08      	cmp	r3, #8
 8004584:	d122      	bne.n	80045cc <HAL_TIM_IRQHandler+0x104>
 8004586:	687b      	ldr	r3, [r7, #4]
 8004588:	681b      	ldr	r3, [r3, #0]
 800458a:	68db      	ldr	r3, [r3, #12]
 800458c:	f003 0308 	and.w	r3, r3, #8
 8004590:	2b08      	cmp	r3, #8
 8004592:	d11b      	bne.n	80045cc <HAL_TIM_IRQHandler+0x104>
 8004594:	687b      	ldr	r3, [r7, #4]
 8004596:	681b      	ldr	r3, [r3, #0]
 8004598:	f06f 0208 	mvn.w	r2, #8
 800459c:	611a      	str	r2, [r3, #16]
 800459e:	687b      	ldr	r3, [r7, #4]
 80045a0:	2204      	movs	r2, #4
 80045a2:	771a      	strb	r2, [r3, #28]
 80045a4:	687b      	ldr	r3, [r7, #4]
 80045a6:	681b      	ldr	r3, [r3, #0]
 80045a8:	69db      	ldr	r3, [r3, #28]
 80045aa:	f003 0303 	and.w	r3, r3, #3
 80045ae:	2b00      	cmp	r3, #0
 80045b0:	d003      	beq.n	80045ba <HAL_TIM_IRQHandler+0xf2>
 80045b2:	6878      	ldr	r0, [r7, #4]
 80045b4:	f000 f8b1 	bl	800471a <HAL_TIM_IC_CaptureCallback>
 80045b8:	e005      	b.n	80045c6 <HAL_TIM_IRQHandler+0xfe>
 80045ba:	6878      	ldr	r0, [r7, #4]
 80045bc:	f000 f8a3 	bl	8004706 <HAL_TIM_OC_DelayElapsedCallback>
 80045c0:	6878      	ldr	r0, [r7, #4]
 80045c2:	f000 f8b4 	bl	800472e <HAL_TIM_PWM_PulseFinishedCallback>
 80045c6:	687b      	ldr	r3, [r7, #4]
 80045c8:	2200      	movs	r2, #0
 80045ca:	771a      	strb	r2, [r3, #28]
 80045cc:	687b      	ldr	r3, [r7, #4]
 80045ce:	681b      	ldr	r3, [r3, #0]
 80045d0:	691b      	ldr	r3, [r3, #16]
 80045d2:	f003 0310 	and.w	r3, r3, #16
 80045d6:	2b10      	cmp	r3, #16
 80045d8:	d122      	bne.n	8004620 <HAL_TIM_IRQHandler+0x158>
 80045da:	687b      	ldr	r3, [r7, #4]
 80045dc:	681b      	ldr	r3, [r3, #0]
 80045de:	68db      	ldr	r3, [r3, #12]
 80045e0:	f003 0310 	and.w	r3, r3, #16
 80045e4:	2b10      	cmp	r3, #16
 80045e6:	d11b      	bne.n	8004620 <HAL_TIM_IRQHandler+0x158>
 80045e8:	687b      	ldr	r3, [r7, #4]
 80045ea:	681b      	ldr	r3, [r3, #0]
 80045ec:	f06f 0210 	mvn.w	r2, #16
 80045f0:	611a      	str	r2, [r3, #16]
 80045f2:	687b      	ldr	r3, [r7, #4]
 80045f4:	2208      	movs	r2, #8
 80045f6:	771a      	strb	r2, [r3, #28]
 80045f8:	687b      	ldr	r3, [r7, #4]
 80045fa:	681b      	ldr	r3, [r3, #0]
 80045fc:	69db      	ldr	r3, [r3, #28]
 80045fe:	f403 7340 	and.w	r3, r3, #768	; 0x300
 8004602:	2b00      	cmp	r3, #0
 8004604:	d003      	beq.n	800460e <HAL_TIM_IRQHandler+0x146>
 8004606:	6878      	ldr	r0, [r7, #4]
 8004608:	f000 f887 	bl	800471a <HAL_TIM_IC_CaptureCallback>
 800460c:	e005      	b.n	800461a <HAL_TIM_IRQHandler+0x152>
 800460e:	6878      	ldr	r0, [r7, #4]
 8004610:	f000 f879 	bl	8004706 <HAL_TIM_OC_DelayElapsedCallback>
 8004614:	6878      	ldr	r0, [r7, #4]
 8004616:	f000 f88a 	bl	800472e <HAL_TIM_PWM_PulseFinishedCallback>
 800461a:	687b      	ldr	r3, [r7, #4]
 800461c:	2200      	movs	r2, #0
 800461e:	771a      	strb	r2, [r3, #28]
 8004620:	687b      	ldr	r3, [r7, #4]
 8004622:	681b      	ldr	r3, [r3, #0]
 8004624:	691b      	ldr	r3, [r3, #16]
 8004626:	f003 0301 	and.w	r3, r3, #1
 800462a:	2b01      	cmp	r3, #1
 800462c:	d10e      	bne.n	800464c <HAL_TIM_IRQHandler+0x184>
 800462e:	687b      	ldr	r3, [r7, #4]
 8004630:	681b      	ldr	r3, [r3, #0]
 8004632:	68db      	ldr	r3, [r3, #12]
 8004634:	f003 0301 	and.w	r3, r3, #1
 8004638:	2b01      	cmp	r3, #1
 800463a:	d107      	bne.n	800464c <HAL_TIM_IRQHandler+0x184>
 800463c:	687b      	ldr	r3, [r7, #4]
 800463e:	681b      	ldr	r3, [r3, #0]
 8004640:	f06f 0201 	mvn.w	r2, #1
 8004644:	611a      	str	r2, [r3, #16]
 8004646:	6878      	ldr	r0, [r7, #4]
 8004648:	f7fc fa22 	bl	8000a90 <HAL_TIM_PeriodElapsedCallback>
 800464c:	687b      	ldr	r3, [r7, #4]
 800464e:	681b      	ldr	r3, [r3, #0]
 8004650:	691b      	ldr	r3, [r3, #16]
 8004652:	f003 0380 	and.w	r3, r3, #128	; 0x80
 8004656:	2b80      	cmp	r3, #128	; 0x80
 8004658:	d10e      	bne.n	8004678 <HAL_TIM_IRQHandler+0x1b0>
 800465a:	687b      	ldr	r3, [r7, #4]
 800465c:	681b      	ldr	r3, [r3, #0]
 800465e:	68db      	ldr	r3, [r3, #12]
 8004660:	f003 0380 	and.w	r3, r3, #128	; 0x80
 8004664:	2b80      	cmp	r3, #128	; 0x80
 8004666:	d107      	bne.n	8004678 <HAL_TIM_IRQHandler+0x1b0>
 8004668:	687b      	ldr	r3, [r7, #4]
 800466a:	681b      	ldr	r3, [r3, #0]
 800466c:	f06f 0280 	mvn.w	r2, #128	; 0x80
 8004670:	611a      	str	r2, [r3, #16]
 8004672:	6878      	ldr	r0, [r7, #4]
 8004674:	f000 f914 	bl	80048a0 <HAL_TIMEx_BreakCallback>
 8004678:	687b      	ldr	r3, [r7, #4]
 800467a:	681b      	ldr	r3, [r3, #0]
 800467c:	691b      	ldr	r3, [r3, #16]
 800467e:	f403 7380 	and.w	r3, r3, #256	; 0x100
 8004682:	f5b3 7f80 	cmp.w	r3, #256	; 0x100
 8004686:	d10e      	bne.n	80046a6 <HAL_TIM_IRQHandler+0x1de>
 8004688:	687b      	ldr	r3, [r7, #4]
 800468a:	681b      	ldr	r3, [r3, #0]
 800468c:	68db      	ldr	r3, [r3, #12]
 800468e:	f003 0380 	and.w	r3, r3, #128	; 0x80
 8004692:	2b80      	cmp	r3, #128	; 0x80
 8004694:	d107      	bne.n	80046a6 <HAL_TIM_IRQHandler+0x1de>
 8004696:	687b      	ldr	r3, [r7, #4]
 8004698:	681b      	ldr	r3, [r3, #0]
 800469a:	f46f 7280 	mvn.w	r2, #256	; 0x100
 800469e:	611a      	str	r2, [r3, #16]
 80046a0:	6878      	ldr	r0, [r7, #4]
 80046a2:	f000 f907 	bl	80048b4 <HAL_TIMEx_Break2Callback>
 80046a6:	687b      	ldr	r3, [r7, #4]
 80046a8:	681b      	ldr	r3, [r3, #0]
 80046aa:	691b      	ldr	r3, [r3, #16]
 80046ac:	f003 0340 	and.w	r3, r3, #64	; 0x40
 80046b0:	2b40      	cmp	r3, #64	; 0x40
 80046b2:	d10e      	bne.n	80046d2 <HAL_TIM_IRQHandler+0x20a>
 80046b4:	687b      	ldr	r3, [r7, #4]
 80046b6:	681b      	ldr	r3, [r3, #0]
 80046b8:	68db      	ldr	r3, [r3, #12]
 80046ba:	f003 0340 	and.w	r3, r3, #64	; 0x40
 80046be:	2b40      	cmp	r3, #64	; 0x40
 80046c0:	d107      	bne.n	80046d2 <HAL_TIM_IRQHandler+0x20a>
 80046c2:	687b      	ldr	r3, [r7, #4]
 80046c4:	681b      	ldr	r3, [r3, #0]
 80046c6:	f06f 0240 	mvn.w	r2, #64	; 0x40
 80046ca:	611a      	str	r2, [r3, #16]
 80046cc:	6878      	ldr	r0, [r7, #4]
 80046ce:	f000 f838 	bl	8004742 <HAL_TIM_TriggerCallback>
 80046d2:	687b      	ldr	r3, [r7, #4]
 80046d4:	681b      	ldr	r3, [r3, #0]
 80046d6:	691b      	ldr	r3, [r3, #16]
 80046d8:	f003 0320 	and.w	r3, r3, #32
 80046dc:	2b20      	cmp	r3, #32
 80046de:	d10e      	bne.n	80046fe <HAL_TIM_IRQHandler+0x236>
 80046e0:	687b      	ldr	r3, [r7, #4]
 80046e2:	681b      	ldr	r3, [r3, #0]
 80046e4:	68db      	ldr	r3, [r3, #12]
 80046e6:	f003 0320 	and.w	r3, r3, #32
 80046ea:	2b20      	cmp	r3, #32
 80046ec:	d107      	bne.n	80046fe <HAL_TIM_IRQHandler+0x236>
 80046ee:	687b      	ldr	r3, [r7, #4]
 80046f0:	681b      	ldr	r3, [r3, #0]
 80046f2:	f06f 0220 	mvn.w	r2, #32
 80046f6:	611a      	str	r2, [r3, #16]
 80046f8:	6878      	ldr	r0, [r7, #4]
 80046fa:	f000 f8c7 	bl	800488c <HAL_TIMEx_CommutCallback>
 80046fe:	bf00      	nop
 8004700:	3708      	adds	r7, #8
 8004702:	46bd      	mov	sp, r7
 8004704:	bd80      	pop	{r7, pc}

08004706 <HAL_TIM_OC_DelayElapsedCallback>:
 8004706:	b480      	push	{r7}
 8004708:	b083      	sub	sp, #12
 800470a:	af00      	add	r7, sp, #0
 800470c:	6078      	str	r0, [r7, #4]
 800470e:	bf00      	nop
 8004710:	370c      	adds	r7, #12
 8004712:	46bd      	mov	sp, r7
 8004714:	f85d 7b04 	ldr.w	r7, [sp], #4
 8004718:	4770      	bx	lr

0800471a <HAL_TIM_IC_CaptureCallback>:
 800471a:	b480      	push	{r7}
 800471c:	b083      	sub	sp, #12
 800471e:	af00      	add	r7, sp, #0
 8004720:	6078      	str	r0, [r7, #4]
 8004722:	bf00      	nop
 8004724:	370c      	adds	r7, #12
 8004726:	46bd      	mov	sp, r7
 8004728:	f85d 7b04 	ldr.w	r7, [sp], #4
 800472c:	4770      	bx	lr

0800472e <HAL_TIM_PWM_PulseFinishedCallback>:
 800472e:	b480      	push	{r7}
 8004730:	b083      	sub	sp, #12
 8004732:	af00      	add	r7, sp, #0
 8004734:	6078      	str	r0, [r7, #4]
 8004736:	bf00      	nop
 8004738:	370c      	adds	r7, #12
 800473a:	46bd      	mov	sp, r7
 800473c:	f85d 7b04 	ldr.w	r7, [sp], #4
 8004740:	4770      	bx	lr

08004742 <HAL_TIM_TriggerCallback>:
 8004742:	b480      	push	{r7}
 8004744:	b083      	sub	sp, #12
 8004746:	af00      	add	r7, sp, #0
 8004748:	6078      	str	r0, [r7, #4]
 800474a:	bf00      	nop
 800474c:	370c      	adds	r7, #12
 800474e:	46bd      	mov	sp, r7
 8004750:	f85d 7b04 	ldr.w	r7, [sp], #4
 8004754:	4770      	bx	lr
	...

08004758 <TIM_Base_SetConfig>:
 8004758:	b480      	push	{r7}
 800475a:	b085      	sub	sp, #20
 800475c:	af00      	add	r7, sp, #0
 800475e:	6078      	str	r0, [r7, #4]
 8004760:	6039      	str	r1, [r7, #0]
 8004762:	687b      	ldr	r3, [r7, #4]
 8004764:	681b      	ldr	r3, [r3, #0]
 8004766:	60fb      	str	r3, [r7, #12]
 8004768:	687b      	ldr	r3, [r7, #4]
 800476a:	4a40      	ldr	r2, [pc, #256]	; (800486c <TIM_Base_SetConfig+0x114>)
 800476c:	4293      	cmp	r3, r2
 800476e:	d013      	beq.n	8004798 <TIM_Base_SetConfig+0x40>
 8004770:	687b      	ldr	r3, [r7, #4]
 8004772:	f1b3 4f80 	cmp.w	r3, #1073741824	; 0x40000000
 8004776:	d00f      	beq.n	8004798 <TIM_Base_SetConfig+0x40>
 8004778:	687b      	ldr	r3, [r7, #4]
 800477a:	4a3d      	ldr	r2, [pc, #244]	; (8004870 <TIM_Base_SetConfig+0x118>)
 800477c:	4293      	cmp	r3, r2
 800477e:	d00b      	beq.n	8004798 <TIM_Base_SetConfig+0x40>
 8004780:	687b      	ldr	r3, [r7, #4]
 8004782:	4a3c      	ldr	r2, [pc, #240]	; (8004874 <TIM_Base_SetConfig+0x11c>)
 8004784:	4293      	cmp	r3, r2
 8004786:	d007      	beq.n	8004798 <TIM_Base_SetConfig+0x40>
 8004788:	687b      	ldr	r3, [r7, #4]
 800478a:	4a3b      	ldr	r2, [pc, #236]	; (8004878 <TIM_Base_SetConfig+0x120>)
 800478c:	4293      	cmp	r3, r2
 800478e:	d003      	beq.n	8004798 <TIM_Base_SetConfig+0x40>
 8004790:	687b      	ldr	r3, [r7, #4]
 8004792:	4a3a      	ldr	r2, [pc, #232]	; (800487c <TIM_Base_SetConfig+0x124>)
 8004794:	4293      	cmp	r3, r2
 8004796:	d108      	bne.n	80047aa <TIM_Base_SetConfig+0x52>
 8004798:	68fb      	ldr	r3, [r7, #12]
 800479a:	f023 0370 	bic.w	r3, r3, #112	; 0x70
 800479e:	60fb      	str	r3, [r7, #12]
 80047a0:	683b      	ldr	r3, [r7, #0]
 80047a2:	685b      	ldr	r3, [r3, #4]
 80047a4:	68fa      	ldr	r2, [r7, #12]
 80047a6:	4313      	orrs	r3, r2
 80047a8:	60fb      	str	r3, [r7, #12]
 80047aa:	687b      	ldr	r3, [r7, #4]
 80047ac:	4a2f      	ldr	r2, [pc, #188]	; (800486c <TIM_Base_SetConfig+0x114>)
 80047ae:	4293      	cmp	r3, r2
 80047b0:	d01f      	beq.n	80047f2 <TIM_Base_SetConfig+0x9a>
 80047b2:	687b      	ldr	r3, [r7, #4]
 80047b4:	f1b3 4f80 	cmp.w	r3, #1073741824	; 0x40000000
 80047b8:	d01b      	beq.n	80047f2 <TIM_Base_SetConfig+0x9a>
 80047ba:	687b      	ldr	r3, [r7, #4]
 80047bc:	4a2c      	ldr	r2, [pc, #176]	; (8004870 <TIM_Base_SetConfig+0x118>)
 80047be:	4293      	cmp	r3, r2
 80047c0:	d017      	beq.n	80047f2 <TIM_Base_SetConfig+0x9a>
 80047c2:	687b      	ldr	r3, [r7, #4]
 80047c4:	4a2b      	ldr	r2, [pc, #172]	; (8004874 <TIM_Base_SetConfig+0x11c>)
 80047c6:	4293      	cmp	r3, r2
 80047c8:	d013      	beq.n	80047f2 <TIM_Base_SetConfig+0x9a>
 80047ca:	687b      	ldr	r3, [r7, #4]
 80047cc:	4a2a      	ldr	r2, [pc, #168]	; (8004878 <TIM_Base_SetConfig+0x120>)
 80047ce:	4293      	cmp	r3, r2
 80047d0:	d00f      	beq.n	80047f2 <TIM_Base_SetConfig+0x9a>
 80047d2:	687b      	ldr	r3, [r7, #4]
 80047d4:	4a29      	ldr	r2, [pc, #164]	; (800487c <TIM_Base_SetConfig+0x124>)
 80047d6:	4293      	cmp	r3, r2
 80047d8:	d00b      	beq.n	80047f2 <TIM_Base_SetConfig+0x9a>
 80047da:	687b      	ldr	r3, [r7, #4]
 80047dc:	4a28      	ldr	r2, [pc, #160]	; (8004880 <TIM_Base_SetConfig+0x128>)
 80047de:	4293      	cmp	r3, r2
 80047e0:	d007      	beq.n	80047f2 <TIM_Base_SetConfig+0x9a>
 80047e2:	687b      	ldr	r3, [r7, #4]
 80047e4:	4a27      	ldr	r2, [pc, #156]	; (8004884 <TIM_Base_SetConfig+0x12c>)
 80047e6:	4293      	cmp	r3, r2
 80047e8:	d003      	beq.n	80047f2 <TIM_Base_SetConfig+0x9a>
 80047ea:	687b      	ldr	r3, [r7, #4]
 80047ec:	4a26      	ldr	r2, [pc, #152]	; (8004888 <TIM_Base_SetConfig+0x130>)
 80047ee:	4293      	cmp	r3, r2
 80047f0:	d108      	bne.n	8004804 <TIM_Base_SetConfig+0xac>
 80047f2:	68fb      	ldr	r3, [r7, #12]
 80047f4:	f423 7340 	bic.w	r3, r3, #768	; 0x300
 80047f8:	60fb      	str	r3, [r7, #12]
 80047fa:	683b      	ldr	r3, [r7, #0]
 80047fc:	68db      	ldr	r3, [r3, #12]
 80047fe:	68fa      	ldr	r2, [r7, #12]
 8004800:	4313      	orrs	r3, r2
 8004802:	60fb      	str	r3, [r7, #12]
 8004804:	68fb      	ldr	r3, [r7, #12]
 8004806:	f023 0280 	bic.w	r2, r3, #128	; 0x80
 800480a:	683b      	ldr	r3, [r7, #0]
 800480c:	695b      	ldr	r3, [r3, #20]
 800480e:	4313      	orrs	r3, r2
 8004810:	60fb      	str	r3, [r7, #12]
 8004812:	687b      	ldr	r3, [r7, #4]
 8004814:	68fa      	ldr	r2, [r7, #12]
 8004816:	601a      	str	r2, [r3, #0]
 8004818:	683b      	ldr	r3, [r7, #0]
 800481a:	689a      	ldr	r2, [r3, #8]
 800481c:	687b      	ldr	r3, [r7, #4]
 800481e:	62da      	str	r2, [r3, #44]	; 0x2c
 8004820:	683b      	ldr	r3, [r7, #0]
 8004822:	681a      	ldr	r2, [r3, #0]
 8004824:	687b      	ldr	r3, [r7, #4]
 8004826:	629a      	str	r2, [r3, #40]	; 0x28
 8004828:	687b      	ldr	r3, [r7, #4]
 800482a:	4a10      	ldr	r2, [pc, #64]	; (800486c <TIM_Base_SetConfig+0x114>)
 800482c:	4293      	cmp	r3, r2
 800482e:	d00f      	beq.n	8004850 <TIM_Base_SetConfig+0xf8>
 8004830:	687b      	ldr	r3, [r7, #4]
 8004832:	4a12      	ldr	r2, [pc, #72]	; (800487c <TIM_Base_SetConfig+0x124>)
 8004834:	4293      	cmp	r3, r2
 8004836:	d00b      	beq.n	8004850 <TIM_Base_SetConfig+0xf8>
 8004838:	687b      	ldr	r3, [r7, #4]
 800483a:	4a11      	ldr	r2, [pc, #68]	; (8004880 <TIM_Base_SetConfig+0x128>)
 800483c:	4293      	cmp	r3, r2
 800483e:	d007      	beq.n	8004850 <TIM_Base_SetConfig+0xf8>
 8004840:	687b      	ldr	r3, [r7, #4]
 8004842:	4a10      	ldr	r2, [pc, #64]	; (8004884 <TIM_Base_SetConfig+0x12c>)
 8004844:	4293      	cmp	r3, r2
 8004846:	d003      	beq.n	8004850 <TIM_Base_SetConfig+0xf8>
 8004848:	687b      	ldr	r3, [r7, #4]
 800484a:	4a0f      	ldr	r2, [pc, #60]	; (8004888 <TIM_Base_SetConfig+0x130>)
 800484c:	4293      	cmp	r3, r2
 800484e:	d103      	bne.n	8004858 <TIM_Base_SetConfig+0x100>
 8004850:	683b      	ldr	r3, [r7, #0]
 8004852:	691a      	ldr	r2, [r3, #16]
 8004854:	687b      	ldr	r3, [r7, #4]
 8004856:	631a      	str	r2, [r3, #48]	; 0x30
 8004858:	687b      	ldr	r3, [r7, #4]
 800485a:	2201      	movs	r2, #1
 800485c:	615a      	str	r2, [r3, #20]
 800485e:	bf00      	nop
 8004860:	3714      	adds	r7, #20
 8004862:	46bd      	mov	sp, r7
 8004864:	f85d 7b04 	ldr.w	r7, [sp], #4
 8004868:	4770      	bx	lr
 800486a:	bf00      	nop
 800486c:	40012c00 	.word	0x40012c00
 8004870:	40000400 	.word	0x40000400
 8004874:	40000800 	.word	0x40000800
 8004878:	40000c00 	.word	0x40000c00
 800487c:	40013400 	.word	0x40013400
 8004880:	40014000 	.word	0x40014000
 8004884:	40014400 	.word	0x40014400
 8004888:	40014800 	.word	0x40014800

0800488c <HAL_TIMEx_CommutCallback>:
 800488c:	b480      	push	{r7}
 800488e:	b083      	sub	sp, #12
 8004890:	af00      	add	r7, sp, #0
 8004892:	6078      	str	r0, [r7, #4]
 8004894:	bf00      	nop
 8004896:	370c      	adds	r7, #12
 8004898:	46bd      	mov	sp, r7
 800489a:	f85d 7b04 	ldr.w	r7, [sp], #4
 800489e:	4770      	bx	lr

080048a0 <HAL_TIMEx_BreakCallback>:
 80048a0:	b480      	push	{r7}
 80048a2:	b083      	sub	sp, #12
 80048a4:	af00      	add	r7, sp, #0
 80048a6:	6078      	str	r0, [r7, #4]
 80048a8:	bf00      	nop
 80048aa:	370c      	adds	r7, #12
 80048ac:	46bd      	mov	sp, r7
 80048ae:	f85d 7b04 	ldr.w	r7, [sp], #4
 80048b2:	4770      	bx	lr

080048b4 <HAL_TIMEx_Break2Callback>:
 80048b4:	b480      	push	{r7}
 80048b6:	b083      	sub	sp, #12
 80048b8:	af00      	add	r7, sp, #0
 80048ba:	6078      	str	r0, [r7, #4]
 80048bc:	bf00      	nop
 80048be:	370c      	adds	r7, #12
 80048c0:	46bd      	mov	sp, r7
 80048c2:	f85d 7b04 	ldr.w	r7, [sp], #4
 80048c6:	4770      	bx	lr

080048c8 <HAL_UART_Init>:
 80048c8:	b580      	push	{r7, lr}
 80048ca:	b082      	sub	sp, #8
 80048cc:	af00      	add	r7, sp, #0
 80048ce:	6078      	str	r0, [r7, #4]
 80048d0:	687b      	ldr	r3, [r7, #4]
 80048d2:	2b00      	cmp	r3, #0
 80048d4:	d101      	bne.n	80048da <HAL_UART_Init+0x12>
 80048d6:	2301      	movs	r3, #1
 80048d8:	e040      	b.n	800495c <HAL_UART_Init+0x94>
 80048da:	687b      	ldr	r3, [r7, #4]
 80048dc:	6f9b      	ldr	r3, [r3, #120]	; 0x78
 80048de:	2b00      	cmp	r3, #0
 80048e0:	d106      	bne.n	80048f0 <HAL_UART_Init+0x28>
 80048e2:	687b      	ldr	r3, [r7, #4]
 80048e4:	2200      	movs	r2, #0
 80048e6:	f883 2074 	strb.w	r2, [r3, #116]	; 0x74
 80048ea:	6878      	ldr	r0, [r7, #4]
 80048ec:	f7fc f9f6 	bl	8000cdc <HAL_UART_MspInit>
 80048f0:	687b      	ldr	r3, [r7, #4]
 80048f2:	2224      	movs	r2, #36	; 0x24
 80048f4:	679a      	str	r2, [r3, #120]	; 0x78
 80048f6:	687b      	ldr	r3, [r7, #4]
 80048f8:	681b      	ldr	r3, [r3, #0]
 80048fa:	681a      	ldr	r2, [r3, #0]
 80048fc:	687b      	ldr	r3, [r7, #4]
 80048fe:	681b      	ldr	r3, [r3, #0]
 8004900:	f022 0201 	bic.w	r2, r2, #1
 8004904:	601a      	str	r2, [r3, #0]
 8004906:	6878      	ldr	r0, [r7, #4]
 8004908:	f000 f8c0 	bl	8004a8c <UART_SetConfig>
 800490c:	4603      	mov	r3, r0
 800490e:	2b01      	cmp	r3, #1
 8004910:	d101      	bne.n	8004916 <HAL_UART_Init+0x4e>
 8004912:	2301      	movs	r3, #1
 8004914:	e022      	b.n	800495c <HAL_UART_Init+0x94>
 8004916:	687b      	ldr	r3, [r7, #4]
 8004918:	6a5b      	ldr	r3, [r3, #36]	; 0x24
 800491a:	2b00      	cmp	r3, #0
 800491c:	d002      	beq.n	8004924 <HAL_UART_Init+0x5c>
 800491e:	6878      	ldr	r0, [r7, #4]
 8004920:	f000 fb3e 	bl	8004fa0 <UART_AdvFeatureConfig>
 8004924:	687b      	ldr	r3, [r7, #4]
 8004926:	681b      	ldr	r3, [r3, #0]
 8004928:	685a      	ldr	r2, [r3, #4]
 800492a:	687b      	ldr	r3, [r7, #4]
 800492c:	681b      	ldr	r3, [r3, #0]
 800492e:	f422 4290 	bic.w	r2, r2, #18432	; 0x4800
 8004932:	605a      	str	r2, [r3, #4]
 8004934:	687b      	ldr	r3, [r7, #4]
 8004936:	681b      	ldr	r3, [r3, #0]
 8004938:	689a      	ldr	r2, [r3, #8]
 800493a:	687b      	ldr	r3, [r7, #4]
 800493c:	681b      	ldr	r3, [r3, #0]
 800493e:	f022 022a 	bic.w	r2, r2, #42	; 0x2a
 8004942:	609a      	str	r2, [r3, #8]
 8004944:	687b      	ldr	r3, [r7, #4]
 8004946:	681b      	ldr	r3, [r3, #0]
 8004948:	681a      	ldr	r2, [r3, #0]
 800494a:	687b      	ldr	r3, [r7, #4]
 800494c:	681b      	ldr	r3, [r3, #0]
 800494e:	f042 0201 	orr.w	r2, r2, #1
 8004952:	601a      	str	r2, [r3, #0]
 8004954:	6878      	ldr	r0, [r7, #4]
 8004956:	f000 fbc5 	bl	80050e4 <UART_CheckIdleState>
 800495a:	4603      	mov	r3, r0
 800495c:	4618      	mov	r0, r3
 800495e:	3708      	adds	r7, #8
 8004960:	46bd      	mov	sp, r7
 8004962:	bd80      	pop	{r7, pc}

08004964 <HAL_UART_Transmit>:
 8004964:	b580      	push	{r7, lr}
 8004966:	b08a      	sub	sp, #40	; 0x28
 8004968:	af02      	add	r7, sp, #8
 800496a:	60f8      	str	r0, [r7, #12]
 800496c:	60b9      	str	r1, [r7, #8]
 800496e:	603b      	str	r3, [r7, #0]
 8004970:	4613      	mov	r3, r2
 8004972:	80fb      	strh	r3, [r7, #6]
 8004974:	68fb      	ldr	r3, [r7, #12]
 8004976:	6f9b      	ldr	r3, [r3, #120]	; 0x78
 8004978:	2b20      	cmp	r3, #32
 800497a:	f040 8082 	bne.w	8004a82 <HAL_UART_Transmit+0x11e>
 800497e:	68bb      	ldr	r3, [r7, #8]
 8004980:	2b00      	cmp	r3, #0
 8004982:	d002      	beq.n	800498a <HAL_UART_Transmit+0x26>
 8004984:	88fb      	ldrh	r3, [r7, #6]
 8004986:	2b00      	cmp	r3, #0
 8004988:	d101      	bne.n	800498e <HAL_UART_Transmit+0x2a>
 800498a:	2301      	movs	r3, #1
 800498c:	e07a      	b.n	8004a84 <HAL_UART_Transmit+0x120>
 800498e:	68fb      	ldr	r3, [r7, #12]
 8004990:	f893 3074 	ldrb.w	r3, [r3, #116]	; 0x74
 8004994:	2b01      	cmp	r3, #1
 8004996:	d101      	bne.n	800499c <HAL_UART_Transmit+0x38>
 8004998:	2302      	movs	r3, #2
 800499a:	e073      	b.n	8004a84 <HAL_UART_Transmit+0x120>
 800499c:	68fb      	ldr	r3, [r7, #12]
 800499e:	2201      	movs	r2, #1
 80049a0:	f883 2074 	strb.w	r2, [r3, #116]	; 0x74
 80049a4:	68fb      	ldr	r3, [r7, #12]
 80049a6:	2200      	movs	r2, #0
 80049a8:	f8c3 2080 	str.w	r2, [r3, #128]	; 0x80
 80049ac:	68fb      	ldr	r3, [r7, #12]
 80049ae:	2221      	movs	r2, #33	; 0x21
 80049b0:	679a      	str	r2, [r3, #120]	; 0x78
 80049b2:	f7fc fa9f 	bl	8000ef4 <HAL_GetTick>
 80049b6:	6178      	str	r0, [r7, #20]
 80049b8:	68fb      	ldr	r3, [r7, #12]
 80049ba:	88fa      	ldrh	r2, [r7, #6]
 80049bc:	f8a3 2050 	strh.w	r2, [r3, #80]	; 0x50
 80049c0:	68fb      	ldr	r3, [r7, #12]
 80049c2:	88fa      	ldrh	r2, [r7, #6]
 80049c4:	f8a3 2052 	strh.w	r2, [r3, #82]	; 0x52
 80049c8:	68fb      	ldr	r3, [r7, #12]
 80049ca:	689b      	ldr	r3, [r3, #8]
 80049cc:	f5b3 5f80 	cmp.w	r3, #4096	; 0x1000
 80049d0:	d108      	bne.n	80049e4 <HAL_UART_Transmit+0x80>
 80049d2:	68fb      	ldr	r3, [r7, #12]
 80049d4:	691b      	ldr	r3, [r3, #16]
 80049d6:	2b00      	cmp	r3, #0
 80049d8:	d104      	bne.n	80049e4 <HAL_UART_Transmit+0x80>
 80049da:	2300      	movs	r3, #0
 80049dc:	61fb      	str	r3, [r7, #28]
 80049de:	68bb      	ldr	r3, [r7, #8]
 80049e0:	61bb      	str	r3, [r7, #24]
 80049e2:	e003      	b.n	80049ec <HAL_UART_Transmit+0x88>
 80049e4:	68bb      	ldr	r3, [r7, #8]
 80049e6:	61fb      	str	r3, [r7, #28]
 80049e8:	2300      	movs	r3, #0
 80049ea:	61bb      	str	r3, [r7, #24]
 80049ec:	68fb      	ldr	r3, [r7, #12]
 80049ee:	2200      	movs	r2, #0
 80049f0:	f883 2074 	strb.w	r2, [r3, #116]	; 0x74
 80049f4:	e02d      	b.n	8004a52 <HAL_UART_Transmit+0xee>
 80049f6:	683b      	ldr	r3, [r7, #0]
 80049f8:	9300      	str	r3, [sp, #0]
 80049fa:	697b      	ldr	r3, [r7, #20]
 80049fc:	2200      	movs	r2, #0
 80049fe:	2180      	movs	r1, #128	; 0x80
 8004a00:	68f8      	ldr	r0, [r7, #12]
 8004a02:	f000 fbb8 	bl	8005176 <UART_WaitOnFlagUntilTimeout>
 8004a06:	4603      	mov	r3, r0
 8004a08:	2b00      	cmp	r3, #0
 8004a0a:	d001      	beq.n	8004a10 <HAL_UART_Transmit+0xac>
 8004a0c:	2303      	movs	r3, #3
 8004a0e:	e039      	b.n	8004a84 <HAL_UART_Transmit+0x120>
 8004a10:	69fb      	ldr	r3, [r7, #28]
 8004a12:	2b00      	cmp	r3, #0
 8004a14:	d10b      	bne.n	8004a2e <HAL_UART_Transmit+0xca>
 8004a16:	69bb      	ldr	r3, [r7, #24]
 8004a18:	881a      	ldrh	r2, [r3, #0]
 8004a1a:	68fb      	ldr	r3, [r7, #12]
 8004a1c:	681b      	ldr	r3, [r3, #0]
 8004a1e:	f3c2 0208 	ubfx	r2, r2, #0, #9
 8004a22:	b292      	uxth	r2, r2
 8004a24:	851a      	strh	r2, [r3, #40]	; 0x28
 8004a26:	69bb      	ldr	r3, [r7, #24]
 8004a28:	3302      	adds	r3, #2
 8004a2a:	61bb      	str	r3, [r7, #24]
 8004a2c:	e008      	b.n	8004a40 <HAL_UART_Transmit+0xdc>
 8004a2e:	69fb      	ldr	r3, [r7, #28]
 8004a30:	781a      	ldrb	r2, [r3, #0]
 8004a32:	68fb      	ldr	r3, [r7, #12]
 8004a34:	681b      	ldr	r3, [r3, #0]
 8004a36:	b292      	uxth	r2, r2
 8004a38:	851a      	strh	r2, [r3, #40]	; 0x28
 8004a3a:	69fb      	ldr	r3, [r7, #28]
 8004a3c:	3301      	adds	r3, #1
 8004a3e:	61fb      	str	r3, [r7, #28]
 8004a40:	68fb      	ldr	r3, [r7, #12]
 8004a42:	f8b3 3052 	ldrh.w	r3, [r3, #82]	; 0x52
 8004a46:	b29b      	uxth	r3, r3
 8004a48:	3b01      	subs	r3, #1
 8004a4a:	b29a      	uxth	r2, r3
 8004a4c:	68fb      	ldr	r3, [r7, #12]
 8004a4e:	f8a3 2052 	strh.w	r2, [r3, #82]	; 0x52
 8004a52:	68fb      	ldr	r3, [r7, #12]
 8004a54:	f8b3 3052 	ldrh.w	r3, [r3, #82]	; 0x52
 8004a58:	b29b      	uxth	r3, r3
 8004a5a:	2b00      	cmp	r3, #0
 8004a5c:	d1cb      	bne.n	80049f6 <HAL_UART_Transmit+0x92>
 8004a5e:	683b      	ldr	r3, [r7, #0]
 8004a60:	9300      	str	r3, [sp, #0]
 8004a62:	697b      	ldr	r3, [r7, #20]
 8004a64:	2200      	movs	r2, #0
 8004a66:	2140      	movs	r1, #64	; 0x40
 8004a68:	68f8      	ldr	r0, [r7, #12]
 8004a6a:	f000 fb84 	bl	8005176 <UART_WaitOnFlagUntilTimeout>
 8004a6e:	4603      	mov	r3, r0
 8004a70:	2b00      	cmp	r3, #0
 8004a72:	d001      	beq.n	8004a78 <HAL_UART_Transmit+0x114>
 8004a74:	2303      	movs	r3, #3
 8004a76:	e005      	b.n	8004a84 <HAL_UART_Transmit+0x120>
 8004a78:	68fb      	ldr	r3, [r7, #12]
 8004a7a:	2220      	movs	r2, #32
 8004a7c:	679a      	str	r2, [r3, #120]	; 0x78
 8004a7e:	2300      	movs	r3, #0
 8004a80:	e000      	b.n	8004a84 <HAL_UART_Transmit+0x120>
 8004a82:	2302      	movs	r3, #2
 8004a84:	4618      	mov	r0, r3
 8004a86:	3720      	adds	r7, #32
 8004a88:	46bd      	mov	sp, r7
 8004a8a:	bd80      	pop	{r7, pc}

08004a8c <UART_SetConfig>:
 8004a8c:	b5b0      	push	{r4, r5, r7, lr}
 8004a8e:	b088      	sub	sp, #32
 8004a90:	af00      	add	r7, sp, #0
 8004a92:	6078      	str	r0, [r7, #4]
 8004a94:	2300      	movs	r3, #0
 8004a96:	76bb      	strb	r3, [r7, #26]
 8004a98:	687b      	ldr	r3, [r7, #4]
 8004a9a:	689a      	ldr	r2, [r3, #8]
 8004a9c:	687b      	ldr	r3, [r7, #4]
 8004a9e:	691b      	ldr	r3, [r3, #16]
 8004aa0:	431a      	orrs	r2, r3
 8004aa2:	687b      	ldr	r3, [r7, #4]
 8004aa4:	695b      	ldr	r3, [r3, #20]
 8004aa6:	431a      	orrs	r2, r3
 8004aa8:	687b      	ldr	r3, [r7, #4]
 8004aaa:	69db      	ldr	r3, [r3, #28]
 8004aac:	4313      	orrs	r3, r2
 8004aae:	61fb      	str	r3, [r7, #28]
 8004ab0:	687b      	ldr	r3, [r7, #4]
 8004ab2:	681b      	ldr	r3, [r3, #0]
 8004ab4:	681a      	ldr	r2, [r3, #0]
 8004ab6:	4bad      	ldr	r3, [pc, #692]	; (8004d6c <UART_SetConfig+0x2e0>)
 8004ab8:	4013      	ands	r3, r2
 8004aba:	687a      	ldr	r2, [r7, #4]
 8004abc:	6812      	ldr	r2, [r2, #0]
 8004abe:	69f9      	ldr	r1, [r7, #28]
 8004ac0:	430b      	orrs	r3, r1
 8004ac2:	6013      	str	r3, [r2, #0]
 8004ac4:	687b      	ldr	r3, [r7, #4]
 8004ac6:	681b      	ldr	r3, [r3, #0]
 8004ac8:	685b      	ldr	r3, [r3, #4]
 8004aca:	f423 5140 	bic.w	r1, r3, #12288	; 0x3000
 8004ace:	687b      	ldr	r3, [r7, #4]
 8004ad0:	68da      	ldr	r2, [r3, #12]
 8004ad2:	687b      	ldr	r3, [r7, #4]
 8004ad4:	681b      	ldr	r3, [r3, #0]
 8004ad6:	430a      	orrs	r2, r1
 8004ad8:	605a      	str	r2, [r3, #4]
 8004ada:	687b      	ldr	r3, [r7, #4]
 8004adc:	699b      	ldr	r3, [r3, #24]
 8004ade:	61fb      	str	r3, [r7, #28]
 8004ae0:	687b      	ldr	r3, [r7, #4]
 8004ae2:	681b      	ldr	r3, [r3, #0]
 8004ae4:	4aa2      	ldr	r2, [pc, #648]	; (8004d70 <UART_SetConfig+0x2e4>)
 8004ae6:	4293      	cmp	r3, r2
 8004ae8:	d004      	beq.n	8004af4 <UART_SetConfig+0x68>
 8004aea:	687b      	ldr	r3, [r7, #4]
 8004aec:	6a1b      	ldr	r3, [r3, #32]
 8004aee:	69fa      	ldr	r2, [r7, #28]
 8004af0:	4313      	orrs	r3, r2
 8004af2:	61fb      	str	r3, [r7, #28]
 8004af4:	687b      	ldr	r3, [r7, #4]
 8004af6:	681b      	ldr	r3, [r3, #0]
 8004af8:	689b      	ldr	r3, [r3, #8]
 8004afa:	f423 6130 	bic.w	r1, r3, #2816	; 0xb00
 8004afe:	687b      	ldr	r3, [r7, #4]
 8004b00:	681b      	ldr	r3, [r3, #0]
 8004b02:	69fa      	ldr	r2, [r7, #28]
 8004b04:	430a      	orrs	r2, r1
 8004b06:	609a      	str	r2, [r3, #8]
 8004b08:	687b      	ldr	r3, [r7, #4]
 8004b0a:	681b      	ldr	r3, [r3, #0]
 8004b0c:	4a99      	ldr	r2, [pc, #612]	; (8004d74 <UART_SetConfig+0x2e8>)
 8004b0e:	4293      	cmp	r3, r2
 8004b10:	d121      	bne.n	8004b56 <UART_SetConfig+0xca>
 8004b12:	4b99      	ldr	r3, [pc, #612]	; (8004d78 <UART_SetConfig+0x2ec>)
 8004b14:	f8d3 3088 	ldr.w	r3, [r3, #136]	; 0x88
 8004b18:	f003 0303 	and.w	r3, r3, #3
 8004b1c:	2b03      	cmp	r3, #3
 8004b1e:	d817      	bhi.n	8004b50 <UART_SetConfig+0xc4>
 8004b20:	a201      	add	r2, pc, #4	; (adr r2, 8004b28 <UART_SetConfig+0x9c>)
 8004b22:	f852 f023 	ldr.w	pc, [r2, r3, lsl #2]
 8004b26:	bf00      	nop
 8004b28:	08004b39 	.word	0x08004b39
 8004b2c:	08004b45 	.word	0x08004b45
 8004b30:	08004b3f 	.word	0x08004b3f
 8004b34:	08004b4b 	.word	0x08004b4b
 8004b38:	2301      	movs	r3, #1
 8004b3a:	76fb      	strb	r3, [r7, #27]
 8004b3c:	e0e7      	b.n	8004d0e <UART_SetConfig+0x282>
 8004b3e:	2302      	movs	r3, #2
 8004b40:	76fb      	strb	r3, [r7, #27]
 8004b42:	e0e4      	b.n	8004d0e <UART_SetConfig+0x282>
 8004b44:	2304      	movs	r3, #4
 8004b46:	76fb      	strb	r3, [r7, #27]
 8004b48:	e0e1      	b.n	8004d0e <UART_SetConfig+0x282>
 8004b4a:	2308      	movs	r3, #8
 8004b4c:	76fb      	strb	r3, [r7, #27]
 8004b4e:	e0de      	b.n	8004d0e <UART_SetConfig+0x282>
 8004b50:	2310      	movs	r3, #16
 8004b52:	76fb      	strb	r3, [r7, #27]
 8004b54:	e0db      	b.n	8004d0e <UART_SetConfig+0x282>
 8004b56:	687b      	ldr	r3, [r7, #4]
 8004b58:	681b      	ldr	r3, [r3, #0]
 8004b5a:	4a88      	ldr	r2, [pc, #544]	; (8004d7c <UART_SetConfig+0x2f0>)
 8004b5c:	4293      	cmp	r3, r2
 8004b5e:	d132      	bne.n	8004bc6 <UART_SetConfig+0x13a>
 8004b60:	4b85      	ldr	r3, [pc, #532]	; (8004d78 <UART_SetConfig+0x2ec>)
 8004b62:	f8d3 3088 	ldr.w	r3, [r3, #136]	; 0x88
 8004b66:	f003 030c 	and.w	r3, r3, #12
 8004b6a:	2b0c      	cmp	r3, #12
 8004b6c:	d828      	bhi.n	8004bc0 <UART_SetConfig+0x134>
 8004b6e:	a201      	add	r2, pc, #4	; (adr r2, 8004b74 <UART_SetConfig+0xe8>)
 8004b70:	f852 f023 	ldr.w	pc, [r2, r3, lsl #2]
 8004b74:	08004ba9 	.word	0x08004ba9
 8004b78:	08004bc1 	.word	0x08004bc1
 8004b7c:	08004bc1 	.word	0x08004bc1
 8004b80:	08004bc1 	.word	0x08004bc1
 8004b84:	08004bb5 	.word	0x08004bb5
 8004b88:	08004bc1 	.word	0x08004bc1
 8004b8c:	08004bc1 	.word	0x08004bc1
 8004b90:	08004bc1 	.word	0x08004bc1
 8004b94:	08004baf 	.word	0x08004baf
 8004b98:	08004bc1 	.word	0x08004bc1
 8004b9c:	08004bc1 	.word	0x08004bc1
 8004ba0:	08004bc1 	.word	0x08004bc1
 8004ba4:	08004bbb 	.word	0x08004bbb
 8004ba8:	2300      	movs	r3, #0
 8004baa:	76fb      	strb	r3, [r7, #27]
 8004bac:	e0af      	b.n	8004d0e <UART_SetConfig+0x282>
 8004bae:	2302      	movs	r3, #2
 8004bb0:	76fb      	strb	r3, [r7, #27]
 8004bb2:	e0ac      	b.n	8004d0e <UART_SetConfig+0x282>
 8004bb4:	2304      	movs	r3, #4
 8004bb6:	76fb      	strb	r3, [r7, #27]
 8004bb8:	e0a9      	b.n	8004d0e <UART_SetConfig+0x282>
 8004bba:	2308      	movs	r3, #8
 8004bbc:	76fb      	strb	r3, [r7, #27]
 8004bbe:	e0a6      	b.n	8004d0e <UART_SetConfig+0x282>
 8004bc0:	2310      	movs	r3, #16
 8004bc2:	76fb      	strb	r3, [r7, #27]
 8004bc4:	e0a3      	b.n	8004d0e <UART_SetConfig+0x282>
 8004bc6:	687b      	ldr	r3, [r7, #4]
 8004bc8:	681b      	ldr	r3, [r3, #0]
 8004bca:	4a6d      	ldr	r2, [pc, #436]	; (8004d80 <UART_SetConfig+0x2f4>)
 8004bcc:	4293      	cmp	r3, r2
 8004bce:	d120      	bne.n	8004c12 <UART_SetConfig+0x186>
 8004bd0:	4b69      	ldr	r3, [pc, #420]	; (8004d78 <UART_SetConfig+0x2ec>)
 8004bd2:	f8d3 3088 	ldr.w	r3, [r3, #136]	; 0x88
 8004bd6:	f003 0330 	and.w	r3, r3, #48	; 0x30
 8004bda:	2b30      	cmp	r3, #48	; 0x30
 8004bdc:	d013      	beq.n	8004c06 <UART_SetConfig+0x17a>
 8004bde:	2b30      	cmp	r3, #48	; 0x30
 8004be0:	d814      	bhi.n	8004c0c <UART_SetConfig+0x180>
 8004be2:	2b20      	cmp	r3, #32
 8004be4:	d009      	beq.n	8004bfa <UART_SetConfig+0x16e>
 8004be6:	2b20      	cmp	r3, #32
 8004be8:	d810      	bhi.n	8004c0c <UART_SetConfig+0x180>
 8004bea:	2b00      	cmp	r3, #0
 8004bec:	d002      	beq.n	8004bf4 <UART_SetConfig+0x168>
 8004bee:	2b10      	cmp	r3, #16
 8004bf0:	d006      	beq.n	8004c00 <UART_SetConfig+0x174>
 8004bf2:	e00b      	b.n	8004c0c <UART_SetConfig+0x180>
 8004bf4:	2300      	movs	r3, #0
 8004bf6:	76fb      	strb	r3, [r7, #27]
 8004bf8:	e089      	b.n	8004d0e <UART_SetConfig+0x282>
 8004bfa:	2302      	movs	r3, #2
 8004bfc:	76fb      	strb	r3, [r7, #27]
 8004bfe:	e086      	b.n	8004d0e <UART_SetConfig+0x282>
 8004c00:	2304      	movs	r3, #4
 8004c02:	76fb      	strb	r3, [r7, #27]
 8004c04:	e083      	b.n	8004d0e <UART_SetConfig+0x282>
 8004c06:	2308      	movs	r3, #8
 8004c08:	76fb      	strb	r3, [r7, #27]
 8004c0a:	e080      	b.n	8004d0e <UART_SetConfig+0x282>
 8004c0c:	2310      	movs	r3, #16
 8004c0e:	76fb      	strb	r3, [r7, #27]
 8004c10:	e07d      	b.n	8004d0e <UART_SetConfig+0x282>
 8004c12:	687b      	ldr	r3, [r7, #4]
 8004c14:	681b      	ldr	r3, [r3, #0]
 8004c16:	4a5b      	ldr	r2, [pc, #364]	; (8004d84 <UART_SetConfig+0x2f8>)
 8004c18:	4293      	cmp	r3, r2
 8004c1a:	d120      	bne.n	8004c5e <UART_SetConfig+0x1d2>
 8004c1c:	4b56      	ldr	r3, [pc, #344]	; (8004d78 <UART_SetConfig+0x2ec>)
 8004c1e:	f8d3 3088 	ldr.w	r3, [r3, #136]	; 0x88
 8004c22:	f003 03c0 	and.w	r3, r3, #192	; 0xc0
 8004c26:	2bc0      	cmp	r3, #192	; 0xc0
 8004c28:	d013      	beq.n	8004c52 <UART_SetConfig+0x1c6>
 8004c2a:	2bc0      	cmp	r3, #192	; 0xc0
 8004c2c:	d814      	bhi.n	8004c58 <UART_SetConfig+0x1cc>
 8004c2e:	2b80      	cmp	r3, #128	; 0x80
 8004c30:	d009      	beq.n	8004c46 <UART_SetConfig+0x1ba>
 8004c32:	2b80      	cmp	r3, #128	; 0x80
 8004c34:	d810      	bhi.n	8004c58 <UART_SetConfig+0x1cc>
 8004c36:	2b00      	cmp	r3, #0
 8004c38:	d002      	beq.n	8004c40 <UART_SetConfig+0x1b4>
 8004c3a:	2b40      	cmp	r3, #64	; 0x40
 8004c3c:	d006      	beq.n	8004c4c <UART_SetConfig+0x1c0>
 8004c3e:	e00b      	b.n	8004c58 <UART_SetConfig+0x1cc>
 8004c40:	2300      	movs	r3, #0
 8004c42:	76fb      	strb	r3, [r7, #27]
 8004c44:	e063      	b.n	8004d0e <UART_SetConfig+0x282>
 8004c46:	2302      	movs	r3, #2
 8004c48:	76fb      	strb	r3, [r7, #27]
 8004c4a:	e060      	b.n	8004d0e <UART_SetConfig+0x282>
 8004c4c:	2304      	movs	r3, #4
 8004c4e:	76fb      	strb	r3, [r7, #27]
 8004c50:	e05d      	b.n	8004d0e <UART_SetConfig+0x282>
 8004c52:	2308      	movs	r3, #8
 8004c54:	76fb      	strb	r3, [r7, #27]
 8004c56:	e05a      	b.n	8004d0e <UART_SetConfig+0x282>
 8004c58:	2310      	movs	r3, #16
 8004c5a:	76fb      	strb	r3, [r7, #27]
 8004c5c:	e057      	b.n	8004d0e <UART_SetConfig+0x282>
 8004c5e:	687b      	ldr	r3, [r7, #4]
 8004c60:	681b      	ldr	r3, [r3, #0]
 8004c62:	4a49      	ldr	r2, [pc, #292]	; (8004d88 <UART_SetConfig+0x2fc>)
 8004c64:	4293      	cmp	r3, r2
 8004c66:	d125      	bne.n	8004cb4 <UART_SetConfig+0x228>
 8004c68:	4b43      	ldr	r3, [pc, #268]	; (8004d78 <UART_SetConfig+0x2ec>)
 8004c6a:	f8d3 3088 	ldr.w	r3, [r3, #136]	; 0x88
 8004c6e:	f403 7340 	and.w	r3, r3, #768	; 0x300
 8004c72:	f5b3 7f40 	cmp.w	r3, #768	; 0x300
 8004c76:	d017      	beq.n	8004ca8 <UART_SetConfig+0x21c>
 8004c78:	f5b3 7f40 	cmp.w	r3, #768	; 0x300
 8004c7c:	d817      	bhi.n	8004cae <UART_SetConfig+0x222>
 8004c7e:	f5b3 7f00 	cmp.w	r3, #512	; 0x200
 8004c82:	d00b      	beq.n	8004c9c <UART_SetConfig+0x210>
 8004c84:	f5b3 7f00 	cmp.w	r3, #512	; 0x200
 8004c88:	d811      	bhi.n	8004cae <UART_SetConfig+0x222>
 8004c8a:	2b00      	cmp	r3, #0
 8004c8c:	d003      	beq.n	8004c96 <UART_SetConfig+0x20a>
 8004c8e:	f5b3 7f80 	cmp.w	r3, #256	; 0x100
 8004c92:	d006      	beq.n	8004ca2 <UART_SetConfig+0x216>
 8004c94:	e00b      	b.n	8004cae <UART_SetConfig+0x222>
 8004c96:	2300      	movs	r3, #0
 8004c98:	76fb      	strb	r3, [r7, #27]
 8004c9a:	e038      	b.n	8004d0e <UART_SetConfig+0x282>
 8004c9c:	2302      	movs	r3, #2
 8004c9e:	76fb      	strb	r3, [r7, #27]
 8004ca0:	e035      	b.n	8004d0e <UART_SetConfig+0x282>
 8004ca2:	2304      	movs	r3, #4
 8004ca4:	76fb      	strb	r3, [r7, #27]
 8004ca6:	e032      	b.n	8004d0e <UART_SetConfig+0x282>
 8004ca8:	2308      	movs	r3, #8
 8004caa:	76fb      	strb	r3, [r7, #27]
 8004cac:	e02f      	b.n	8004d0e <UART_SetConfig+0x282>
 8004cae:	2310      	movs	r3, #16
 8004cb0:	76fb      	strb	r3, [r7, #27]
 8004cb2:	e02c      	b.n	8004d0e <UART_SetConfig+0x282>
 8004cb4:	687b      	ldr	r3, [r7, #4]
 8004cb6:	681b      	ldr	r3, [r3, #0]
 8004cb8:	4a2d      	ldr	r2, [pc, #180]	; (8004d70 <UART_SetConfig+0x2e4>)
 8004cba:	4293      	cmp	r3, r2
 8004cbc:	d125      	bne.n	8004d0a <UART_SetConfig+0x27e>
 8004cbe:	4b2e      	ldr	r3, [pc, #184]	; (8004d78 <UART_SetConfig+0x2ec>)
 8004cc0:	f8d3 3088 	ldr.w	r3, [r3, #136]	; 0x88
 8004cc4:	f403 6340 	and.w	r3, r3, #3072	; 0xc00
 8004cc8:	f5b3 6f40 	cmp.w	r3, #3072	; 0xc00
 8004ccc:	d017      	beq.n	8004cfe <UART_SetConfig+0x272>
 8004cce:	f5b3 6f40 	cmp.w	r3, #3072	; 0xc00
 8004cd2:	d817      	bhi.n	8004d04 <UART_SetConfig+0x278>
 8004cd4:	f5b3 6f00 	cmp.w	r3, #2048	; 0x800
 8004cd8:	d00b      	beq.n	8004cf2 <UART_SetConfig+0x266>
 8004cda:	f5b3 6f00 	cmp.w	r3, #2048	; 0x800
 8004cde:	d811      	bhi.n	8004d04 <UART_SetConfig+0x278>
 8004ce0:	2b00      	cmp	r3, #0
 8004ce2:	d003      	beq.n	8004cec <UART_SetConfig+0x260>
 8004ce4:	f5b3 6f80 	cmp.w	r3, #1024	; 0x400
 8004ce8:	d006      	beq.n	8004cf8 <UART_SetConfig+0x26c>
 8004cea:	e00b      	b.n	8004d04 <UART_SetConfig+0x278>
 8004cec:	2300      	movs	r3, #0
 8004cee:	76fb      	strb	r3, [r7, #27]
 8004cf0:	e00d      	b.n	8004d0e <UART_SetConfig+0x282>
 8004cf2:	2302      	movs	r3, #2
 8004cf4:	76fb      	strb	r3, [r7, #27]
 8004cf6:	e00a      	b.n	8004d0e <UART_SetConfig+0x282>
 8004cf8:	2304      	movs	r3, #4
 8004cfa:	76fb      	strb	r3, [r7, #27]
 8004cfc:	e007      	b.n	8004d0e <UART_SetConfig+0x282>
 8004cfe:	2308      	movs	r3, #8
 8004d00:	76fb      	strb	r3, [r7, #27]
 8004d02:	e004      	b.n	8004d0e <UART_SetConfig+0x282>
 8004d04:	2310      	movs	r3, #16
 8004d06:	76fb      	strb	r3, [r7, #27]
 8004d08:	e001      	b.n	8004d0e <UART_SetConfig+0x282>
 8004d0a:	2310      	movs	r3, #16
 8004d0c:	76fb      	strb	r3, [r7, #27]
 8004d0e:	687b      	ldr	r3, [r7, #4]
 8004d10:	681b      	ldr	r3, [r3, #0]
 8004d12:	4a17      	ldr	r2, [pc, #92]	; (8004d70 <UART_SetConfig+0x2e4>)
 8004d14:	4293      	cmp	r3, r2
 8004d16:	f040 8087 	bne.w	8004e28 <UART_SetConfig+0x39c>
 8004d1a:	7efb      	ldrb	r3, [r7, #27]
 8004d1c:	2b08      	cmp	r3, #8
 8004d1e:	d837      	bhi.n	8004d90 <UART_SetConfig+0x304>
 8004d20:	a201      	add	r2, pc, #4	; (adr r2, 8004d28 <UART_SetConfig+0x29c>)
 8004d22:	f852 f023 	ldr.w	pc, [r2, r3, lsl #2]
 8004d26:	bf00      	nop
 8004d28:	08004d4d 	.word	0x08004d4d
 8004d2c:	08004d91 	.word	0x08004d91
 8004d30:	08004d55 	.word	0x08004d55
 8004d34:	08004d91 	.word	0x08004d91
 8004d38:	08004d5b 	.word	0x08004d5b
 8004d3c:	08004d91 	.word	0x08004d91
 8004d40:	08004d91 	.word	0x08004d91
 8004d44:	08004d91 	.word	0x08004d91
 8004d48:	08004d63 	.word	0x08004d63
 8004d4c:	f7fe fd60 	bl	8003810 <HAL_RCC_GetPCLK1Freq>
 8004d50:	6178      	str	r0, [r7, #20]
 8004d52:	e022      	b.n	8004d9a <UART_SetConfig+0x30e>
 8004d54:	4b0d      	ldr	r3, [pc, #52]	; (8004d8c <UART_SetConfig+0x300>)
 8004d56:	617b      	str	r3, [r7, #20]
 8004d58:	e01f      	b.n	8004d9a <UART_SetConfig+0x30e>
 8004d5a:	f7fe fcc1 	bl	80036e0 <HAL_RCC_GetSysClockFreq>
 8004d5e:	6178      	str	r0, [r7, #20]
 8004d60:	e01b      	b.n	8004d9a <UART_SetConfig+0x30e>
 8004d62:	f44f 4300 	mov.w	r3, #32768	; 0x8000
 8004d66:	617b      	str	r3, [r7, #20]
 8004d68:	e017      	b.n	8004d9a <UART_SetConfig+0x30e>
 8004d6a:	bf00      	nop
 8004d6c:	efff69f3 	.word	0xefff69f3
 8004d70:	40008000 	.word	0x40008000
 8004d74:	40013800 	.word	0x40013800
 8004d78:	40021000 	.word	0x40021000
 8004d7c:	40004400 	.word	0x40004400
 8004d80:	40004800 	.word	0x40004800
 8004d84:	40004c00 	.word	0x40004c00
 8004d88:	40005000 	.word	0x40005000
 8004d8c:	00f42400 	.word	0x00f42400
 8004d90:	2300      	movs	r3, #0
 8004d92:	617b      	str	r3, [r7, #20]
 8004d94:	2301      	movs	r3, #1
 8004d96:	76bb      	strb	r3, [r7, #26]
 8004d98:	bf00      	nop
 8004d9a:	697b      	ldr	r3, [r7, #20]
 8004d9c:	2b00      	cmp	r3, #0
 8004d9e:	f000 80f1 	beq.w	8004f84 <UART_SetConfig+0x4f8>
 8004da2:	687b      	ldr	r3, [r7, #4]
 8004da4:	685a      	ldr	r2, [r3, #4]
 8004da6:	4613      	mov	r3, r2
 8004da8:	005b      	lsls	r3, r3, #1
 8004daa:	4413      	add	r3, r2
 8004dac:	697a      	ldr	r2, [r7, #20]
 8004dae:	429a      	cmp	r2, r3
 8004db0:	d305      	bcc.n	8004dbe <UART_SetConfig+0x332>
 8004db2:	687b      	ldr	r3, [r7, #4]
 8004db4:	685b      	ldr	r3, [r3, #4]
 8004db6:	031b      	lsls	r3, r3, #12
 8004db8:	697a      	ldr	r2, [r7, #20]
 8004dba:	429a      	cmp	r2, r3
 8004dbc:	d902      	bls.n	8004dc4 <UART_SetConfig+0x338>
 8004dbe:	2301      	movs	r3, #1
 8004dc0:	76bb      	strb	r3, [r7, #26]
 8004dc2:	e0df      	b.n	8004f84 <UART_SetConfig+0x4f8>
 8004dc4:	697b      	ldr	r3, [r7, #20]
 8004dc6:	4618      	mov	r0, r3
 8004dc8:	f04f 0100 	mov.w	r1, #0
 8004dcc:	f04f 0200 	mov.w	r2, #0
 8004dd0:	f04f 0300 	mov.w	r3, #0
 8004dd4:	020b      	lsls	r3, r1, #8
 8004dd6:	ea43 6310 	orr.w	r3, r3, r0, lsr #24
 8004dda:	0202      	lsls	r2, r0, #8
 8004ddc:	6879      	ldr	r1, [r7, #4]
 8004dde:	6849      	ldr	r1, [r1, #4]
 8004de0:	0849      	lsrs	r1, r1, #1
 8004de2:	4608      	mov	r0, r1
 8004de4:	f04f 0100 	mov.w	r1, #0
 8004de8:	1814      	adds	r4, r2, r0
 8004dea:	eb43 0501 	adc.w	r5, r3, r1
 8004dee:	687b      	ldr	r3, [r7, #4]
 8004df0:	685b      	ldr	r3, [r3, #4]
 8004df2:	461a      	mov	r2, r3
 8004df4:	f04f 0300 	mov.w	r3, #0
 8004df8:	4620      	mov	r0, r4
 8004dfa:	4629      	mov	r1, r5
 8004dfc:	f7fb f9e8 	bl	80001d0 <__aeabi_uldivmod>
 8004e00:	4602      	mov	r2, r0
 8004e02:	460b      	mov	r3, r1
 8004e04:	4613      	mov	r3, r2
 8004e06:	613b      	str	r3, [r7, #16]
 8004e08:	693b      	ldr	r3, [r7, #16]
 8004e0a:	f5b3 7f40 	cmp.w	r3, #768	; 0x300
 8004e0e:	d308      	bcc.n	8004e22 <UART_SetConfig+0x396>
 8004e10:	693b      	ldr	r3, [r7, #16]
 8004e12:	f5b3 1f80 	cmp.w	r3, #1048576	; 0x100000
 8004e16:	d204      	bcs.n	8004e22 <UART_SetConfig+0x396>
 8004e18:	687b      	ldr	r3, [r7, #4]
 8004e1a:	681b      	ldr	r3, [r3, #0]
 8004e1c:	693a      	ldr	r2, [r7, #16]
 8004e1e:	60da      	str	r2, [r3, #12]
 8004e20:	e0b0      	b.n	8004f84 <UART_SetConfig+0x4f8>
 8004e22:	2301      	movs	r3, #1
 8004e24:	76bb      	strb	r3, [r7, #26]
 8004e26:	e0ad      	b.n	8004f84 <UART_SetConfig+0x4f8>
 8004e28:	687b      	ldr	r3, [r7, #4]
 8004e2a:	69db      	ldr	r3, [r3, #28]
 8004e2c:	f5b3 4f00 	cmp.w	r3, #32768	; 0x8000
 8004e30:	d15b      	bne.n	8004eea <UART_SetConfig+0x45e>
 8004e32:	7efb      	ldrb	r3, [r7, #27]
 8004e34:	2b08      	cmp	r3, #8
 8004e36:	d828      	bhi.n	8004e8a <UART_SetConfig+0x3fe>
 8004e38:	a201      	add	r2, pc, #4	; (adr r2, 8004e40 <UART_SetConfig+0x3b4>)
 8004e3a:	f852 f023 	ldr.w	pc, [r2, r3, lsl #2]
 8004e3e:	bf00      	nop
 8004e40:	08004e65 	.word	0x08004e65
 8004e44:	08004e6d 	.word	0x08004e6d
 8004e48:	08004e75 	.word	0x08004e75
 8004e4c:	08004e8b 	.word	0x08004e8b
 8004e50:	08004e7b 	.word	0x08004e7b
 8004e54:	08004e8b 	.word	0x08004e8b
 8004e58:	08004e8b 	.word	0x08004e8b
 8004e5c:	08004e8b 	.word	0x08004e8b
 8004e60:	08004e83 	.word	0x08004e83
 8004e64:	f7fe fcd4 	bl	8003810 <HAL_RCC_GetPCLK1Freq>
 8004e68:	6178      	str	r0, [r7, #20]
 8004e6a:	e013      	b.n	8004e94 <UART_SetConfig+0x408>
 8004e6c:	f7fe fce6 	bl	800383c <HAL_RCC_GetPCLK2Freq>
 8004e70:	6178      	str	r0, [r7, #20]
 8004e72:	e00f      	b.n	8004e94 <UART_SetConfig+0x408>
 8004e74:	4b49      	ldr	r3, [pc, #292]	; (8004f9c <UART_SetConfig+0x510>)
 8004e76:	617b      	str	r3, [r7, #20]
 8004e78:	e00c      	b.n	8004e94 <UART_SetConfig+0x408>
 8004e7a:	f7fe fc31 	bl	80036e0 <HAL_RCC_GetSysClockFreq>
 8004e7e:	6178      	str	r0, [r7, #20]
 8004e80:	e008      	b.n	8004e94 <UART_SetConfig+0x408>
 8004e82:	f44f 4300 	mov.w	r3, #32768	; 0x8000
 8004e86:	617b      	str	r3, [r7, #20]
 8004e88:	e004      	b.n	8004e94 <UART_SetConfig+0x408>
 8004e8a:	2300      	movs	r3, #0
 8004e8c:	617b      	str	r3, [r7, #20]
 8004e8e:	2301      	movs	r3, #1
 8004e90:	76bb      	strb	r3, [r7, #26]
 8004e92:	bf00      	nop
 8004e94:	697b      	ldr	r3, [r7, #20]
 8004e96:	2b00      	cmp	r3, #0
 8004e98:	d074      	beq.n	8004f84 <UART_SetConfig+0x4f8>
 8004e9a:	697b      	ldr	r3, [r7, #20]
 8004e9c:	005a      	lsls	r2, r3, #1
 8004e9e:	687b      	ldr	r3, [r7, #4]
 8004ea0:	685b      	ldr	r3, [r3, #4]
 8004ea2:	085b      	lsrs	r3, r3, #1
 8004ea4:	441a      	add	r2, r3
 8004ea6:	687b      	ldr	r3, [r7, #4]
 8004ea8:	685b      	ldr	r3, [r3, #4]
 8004eaa:	fbb2 f3f3 	udiv	r3, r2, r3
 8004eae:	613b      	str	r3, [r7, #16]
 8004eb0:	693b      	ldr	r3, [r7, #16]
 8004eb2:	2b0f      	cmp	r3, #15
 8004eb4:	d916      	bls.n	8004ee4 <UART_SetConfig+0x458>
 8004eb6:	693b      	ldr	r3, [r7, #16]
 8004eb8:	f5b3 3f80 	cmp.w	r3, #65536	; 0x10000
 8004ebc:	d212      	bcs.n	8004ee4 <UART_SetConfig+0x458>
 8004ebe:	693b      	ldr	r3, [r7, #16]
 8004ec0:	b29b      	uxth	r3, r3
 8004ec2:	f023 030f 	bic.w	r3, r3, #15
 8004ec6:	81fb      	strh	r3, [r7, #14]
 8004ec8:	693b      	ldr	r3, [r7, #16]
 8004eca:	085b      	lsrs	r3, r3, #1
 8004ecc:	b29b      	uxth	r3, r3
 8004ece:	f003 0307 	and.w	r3, r3, #7
 8004ed2:	b29a      	uxth	r2, r3
 8004ed4:	89fb      	ldrh	r3, [r7, #14]
 8004ed6:	4313      	orrs	r3, r2
 8004ed8:	81fb      	strh	r3, [r7, #14]
 8004eda:	687b      	ldr	r3, [r7, #4]
 8004edc:	681b      	ldr	r3, [r3, #0]
 8004ede:	89fa      	ldrh	r2, [r7, #14]
 8004ee0:	60da      	str	r2, [r3, #12]
 8004ee2:	e04f      	b.n	8004f84 <UART_SetConfig+0x4f8>
 8004ee4:	2301      	movs	r3, #1
 8004ee6:	76bb      	strb	r3, [r7, #26]
 8004ee8:	e04c      	b.n	8004f84 <UART_SetConfig+0x4f8>
 8004eea:	7efb      	ldrb	r3, [r7, #27]
 8004eec:	2b08      	cmp	r3, #8
 8004eee:	d828      	bhi.n	8004f42 <UART_SetConfig+0x4b6>
 8004ef0:	a201      	add	r2, pc, #4	; (adr r2, 8004ef8 <UART_SetConfig+0x46c>)
 8004ef2:	f852 f023 	ldr.w	pc, [r2, r3, lsl #2]
 8004ef6:	bf00      	nop
 8004ef8:	08004f1d 	.word	0x08004f1d
 8004efc:	08004f25 	.word	0x08004f25
 8004f00:	08004f2d 	.word	0x08004f2d
 8004f04:	08004f43 	.word	0x08004f43
 8004f08:	08004f33 	.word	0x08004f33
 8004f0c:	08004f43 	.word	0x08004f43
 8004f10:	08004f43 	.word	0x08004f43
 8004f14:	08004f43 	.word	0x08004f43
 8004f18:	08004f3b 	.word	0x08004f3b
 8004f1c:	f7fe fc78 	bl	8003810 <HAL_RCC_GetPCLK1Freq>
 8004f20:	6178      	str	r0, [r7, #20]
 8004f22:	e013      	b.n	8004f4c <UART_SetConfig+0x4c0>
 8004f24:	f7fe fc8a 	bl	800383c <HAL_RCC_GetPCLK2Freq>
 8004f28:	6178      	str	r0, [r7, #20]
 8004f2a:	e00f      	b.n	8004f4c <UART_SetConfig+0x4c0>
 8004f2c:	4b1b      	ldr	r3, [pc, #108]	; (8004f9c <UART_SetConfig+0x510>)
 8004f2e:	617b      	str	r3, [r7, #20]
 8004f30:	e00c      	b.n	8004f4c <UART_SetConfig+0x4c0>
 8004f32:	f7fe fbd5 	bl	80036e0 <HAL_RCC_GetSysClockFreq>
 8004f36:	6178      	str	r0, [r7, #20]
 8004f38:	e008      	b.n	8004f4c <UART_SetConfig+0x4c0>
 8004f3a:	f44f 4300 	mov.w	r3, #32768	; 0x8000
 8004f3e:	617b      	str	r3, [r7, #20]
 8004f40:	e004      	b.n	8004f4c <UART_SetConfig+0x4c0>
 8004f42:	2300      	movs	r3, #0
 8004f44:	617b      	str	r3, [r7, #20]
 8004f46:	2301      	movs	r3, #1
 8004f48:	76bb      	strb	r3, [r7, #26]
 8004f4a:	bf00      	nop
 8004f4c:	697b      	ldr	r3, [r7, #20]
 8004f4e:	2b00      	cmp	r3, #0
 8004f50:	d018      	beq.n	8004f84 <UART_SetConfig+0x4f8>
 8004f52:	687b      	ldr	r3, [r7, #4]
 8004f54:	685b      	ldr	r3, [r3, #4]
 8004f56:	085a      	lsrs	r2, r3, #1
 8004f58:	697b      	ldr	r3, [r7, #20]
 8004f5a:	441a      	add	r2, r3
 8004f5c:	687b      	ldr	r3, [r7, #4]
 8004f5e:	685b      	ldr	r3, [r3, #4]
 8004f60:	fbb2 f3f3 	udiv	r3, r2, r3
 8004f64:	613b      	str	r3, [r7, #16]
 8004f66:	693b      	ldr	r3, [r7, #16]
 8004f68:	2b0f      	cmp	r3, #15
 8004f6a:	d909      	bls.n	8004f80 <UART_SetConfig+0x4f4>
 8004f6c:	693b      	ldr	r3, [r7, #16]
 8004f6e:	f5b3 3f80 	cmp.w	r3, #65536	; 0x10000
 8004f72:	d205      	bcs.n	8004f80 <UART_SetConfig+0x4f4>
 8004f74:	693b      	ldr	r3, [r7, #16]
 8004f76:	b29a      	uxth	r2, r3
 8004f78:	687b      	ldr	r3, [r7, #4]
 8004f7a:	681b      	ldr	r3, [r3, #0]
 8004f7c:	60da      	str	r2, [r3, #12]
 8004f7e:	e001      	b.n	8004f84 <UART_SetConfig+0x4f8>
 8004f80:	2301      	movs	r3, #1
 8004f82:	76bb      	strb	r3, [r7, #26]
 8004f84:	687b      	ldr	r3, [r7, #4]
 8004f86:	2200      	movs	r2, #0
 8004f88:	665a      	str	r2, [r3, #100]	; 0x64
 8004f8a:	687b      	ldr	r3, [r7, #4]
 8004f8c:	2200      	movs	r2, #0
 8004f8e:	669a      	str	r2, [r3, #104]	; 0x68
 8004f90:	7ebb      	ldrb	r3, [r7, #26]
 8004f92:	4618      	mov	r0, r3
 8004f94:	3720      	adds	r7, #32
 8004f96:	46bd      	mov	sp, r7
 8004f98:	bdb0      	pop	{r4, r5, r7, pc}
 8004f9a:	bf00      	nop
 8004f9c:	00f42400 	.word	0x00f42400

08004fa0 <UART_AdvFeatureConfig>:
 8004fa0:	b480      	push	{r7}
 8004fa2:	b083      	sub	sp, #12
 8004fa4:	af00      	add	r7, sp, #0
 8004fa6:	6078      	str	r0, [r7, #4]
 8004fa8:	687b      	ldr	r3, [r7, #4]
 8004faa:	6a5b      	ldr	r3, [r3, #36]	; 0x24
 8004fac:	f003 0301 	and.w	r3, r3, #1
 8004fb0:	2b00      	cmp	r3, #0
 8004fb2:	d00a      	beq.n	8004fca <UART_AdvFeatureConfig+0x2a>
 8004fb4:	687b      	ldr	r3, [r7, #4]
 8004fb6:	681b      	ldr	r3, [r3, #0]
 8004fb8:	685b      	ldr	r3, [r3, #4]
 8004fba:	f423 3100 	bic.w	r1, r3, #131072	; 0x20000
 8004fbe:	687b      	ldr	r3, [r7, #4]
 8004fc0:	6a9a      	ldr	r2, [r3, #40]	; 0x28
 8004fc2:	687b      	ldr	r3, [r7, #4]
 8004fc4:	681b      	ldr	r3, [r3, #0]
 8004fc6:	430a      	orrs	r2, r1
 8004fc8:	605a      	str	r2, [r3, #4]
 8004fca:	687b      	ldr	r3, [r7, #4]
 8004fcc:	6a5b      	ldr	r3, [r3, #36]	; 0x24
 8004fce:	f003 0302 	and.w	r3, r3, #2
 8004fd2:	2b00      	cmp	r3, #0
 8004fd4:	d00a      	beq.n	8004fec <UART_AdvFeatureConfig+0x4c>
 8004fd6:	687b      	ldr	r3, [r7, #4]
 8004fd8:	681b      	ldr	r3, [r3, #0]
 8004fda:	685b      	ldr	r3, [r3, #4]
 8004fdc:	f423 3180 	bic.w	r1, r3, #65536	; 0x10000
 8004fe0:	687b      	ldr	r3, [r7, #4]
 8004fe2:	6ada      	ldr	r2, [r3, #44]	; 0x2c
 8004fe4:	687b      	ldr	r3, [r7, #4]
 8004fe6:	681b      	ldr	r3, [r3, #0]
 8004fe8:	430a      	orrs	r2, r1
 8004fea:	605a      	str	r2, [r3, #4]
 8004fec:	687b      	ldr	r3, [r7, #4]
 8004fee:	6a5b      	ldr	r3, [r3, #36]	; 0x24
 8004ff0:	f003 0304 	and.w	r3, r3, #4
 8004ff4:	2b00      	cmp	r3, #0
 8004ff6:	d00a      	beq.n	800500e <UART_AdvFeatureConfig+0x6e>
 8004ff8:	687b      	ldr	r3, [r7, #4]
 8004ffa:	681b      	ldr	r3, [r3, #0]
 8004ffc:	685b      	ldr	r3, [r3, #4]
 8004ffe:	f423 2180 	bic.w	r1, r3, #262144	; 0x40000
 8005002:	687b      	ldr	r3, [r7, #4]
 8005004:	6b1a      	ldr	r2, [r3, #48]	; 0x30
 8005006:	687b      	ldr	r3, [r7, #4]
 8005008:	681b      	ldr	r3, [r3, #0]
 800500a:	430a      	orrs	r2, r1
 800500c:	605a      	str	r2, [r3, #4]
 800500e:	687b      	ldr	r3, [r7, #4]
 8005010:	6a5b      	ldr	r3, [r3, #36]	; 0x24
 8005012:	f003 0308 	and.w	r3, r3, #8
 8005016:	2b00      	cmp	r3, #0
 8005018:	d00a      	beq.n	8005030 <UART_AdvFeatureConfig+0x90>
 800501a:	687b      	ldr	r3, [r7, #4]
 800501c:	681b      	ldr	r3, [r3, #0]
 800501e:	685b      	ldr	r3, [r3, #4]
 8005020:	f423 4100 	bic.w	r1, r3, #32768	; 0x8000
 8005024:	687b      	ldr	r3, [r7, #4]
 8005026:	6b5a      	ldr	r2, [r3, #52]	; 0x34
 8005028:	687b      	ldr	r3, [r7, #4]
 800502a:	681b      	ldr	r3, [r3, #0]
 800502c:	430a      	orrs	r2, r1
 800502e:	605a      	str	r2, [r3, #4]
 8005030:	687b      	ldr	r3, [r7, #4]
 8005032:	6a5b      	ldr	r3, [r3, #36]	; 0x24
 8005034:	f003 0310 	and.w	r3, r3, #16
 8005038:	2b00      	cmp	r3, #0
 800503a:	d00a      	beq.n	8005052 <UART_AdvFeatureConfig+0xb2>
 800503c:	687b      	ldr	r3, [r7, #4]
 800503e:	681b      	ldr	r3, [r3, #0]
 8005040:	689b      	ldr	r3, [r3, #8]
 8005042:	f423 5180 	bic.w	r1, r3, #4096	; 0x1000
 8005046:	687b      	ldr	r3, [r7, #4]
 8005048:	6b9a      	ldr	r2, [r3, #56]	; 0x38
 800504a:	687b      	ldr	r3, [r7, #4]
 800504c:	681b      	ldr	r3, [r3, #0]
 800504e:	430a      	orrs	r2, r1
 8005050:	609a      	str	r2, [r3, #8]
 8005052:	687b      	ldr	r3, [r7, #4]
 8005054:	6a5b      	ldr	r3, [r3, #36]	; 0x24
 8005056:	f003 0320 	and.w	r3, r3, #32
 800505a:	2b00      	cmp	r3, #0
 800505c:	d00a      	beq.n	8005074 <UART_AdvFeatureConfig+0xd4>
 800505e:	687b      	ldr	r3, [r7, #4]
 8005060:	681b      	ldr	r3, [r3, #0]
 8005062:	689b      	ldr	r3, [r3, #8]
 8005064:	f423 5100 	bic.w	r1, r3, #8192	; 0x2000
 8005068:	687b      	ldr	r3, [r7, #4]
 800506a:	6bda      	ldr	r2, [r3, #60]	; 0x3c
 800506c:	687b      	ldr	r3, [r7, #4]
 800506e:	681b      	ldr	r3, [r3, #0]
 8005070:	430a      	orrs	r2, r1
 8005072:	609a      	str	r2, [r3, #8]
 8005074:	687b      	ldr	r3, [r7, #4]
 8005076:	6a5b      	ldr	r3, [r3, #36]	; 0x24
 8005078:	f003 0340 	and.w	r3, r3, #64	; 0x40
 800507c:	2b00      	cmp	r3, #0
 800507e:	d01a      	beq.n	80050b6 <UART_AdvFeatureConfig+0x116>
 8005080:	687b      	ldr	r3, [r7, #4]
 8005082:	681b      	ldr	r3, [r3, #0]
 8005084:	685b      	ldr	r3, [r3, #4]
 8005086:	f423 1180 	bic.w	r1, r3, #1048576	; 0x100000
 800508a:	687b      	ldr	r3, [r7, #4]
 800508c:	6c1a      	ldr	r2, [r3, #64]	; 0x40
 800508e:	687b      	ldr	r3, [r7, #4]
 8005090:	681b      	ldr	r3, [r3, #0]
 8005092:	430a      	orrs	r2, r1
 8005094:	605a      	str	r2, [r3, #4]
 8005096:	687b      	ldr	r3, [r7, #4]
 8005098:	6c1b      	ldr	r3, [r3, #64]	; 0x40
 800509a:	f5b3 1f80 	cmp.w	r3, #1048576	; 0x100000
 800509e:	d10a      	bne.n	80050b6 <UART_AdvFeatureConfig+0x116>
 80050a0:	687b      	ldr	r3, [r7, #4]
 80050a2:	681b      	ldr	r3, [r3, #0]
 80050a4:	685b      	ldr	r3, [r3, #4]
 80050a6:	f423 01c0 	bic.w	r1, r3, #6291456	; 0x600000
 80050aa:	687b      	ldr	r3, [r7, #4]
 80050ac:	6c5a      	ldr	r2, [r3, #68]	; 0x44
 80050ae:	687b      	ldr	r3, [r7, #4]
 80050b0:	681b      	ldr	r3, [r3, #0]
 80050b2:	430a      	orrs	r2, r1
 80050b4:	605a      	str	r2, [r3, #4]
 80050b6:	687b      	ldr	r3, [r7, #4]
 80050b8:	6a5b      	ldr	r3, [r3, #36]	; 0x24
 80050ba:	f003 0380 	and.w	r3, r3, #128	; 0x80
 80050be:	2b00      	cmp	r3, #0
 80050c0:	d00a      	beq.n	80050d8 <UART_AdvFeatureConfig+0x138>
 80050c2:	687b      	ldr	r3, [r7, #4]
 80050c4:	681b      	ldr	r3, [r3, #0]
 80050c6:	685b      	ldr	r3, [r3, #4]
 80050c8:	f423 2100 	bic.w	r1, r3, #524288	; 0x80000
 80050cc:	687b      	ldr	r3, [r7, #4]
 80050ce:	6c9a      	ldr	r2, [r3, #72]	; 0x48
 80050d0:	687b      	ldr	r3, [r7, #4]
 80050d2:	681b      	ldr	r3, [r3, #0]
 80050d4:	430a      	orrs	r2, r1
 80050d6:	605a      	str	r2, [r3, #4]
 80050d8:	bf00      	nop
 80050da:	370c      	adds	r7, #12
 80050dc:	46bd      	mov	sp, r7
 80050de:	f85d 7b04 	ldr.w	r7, [sp], #4
 80050e2:	4770      	bx	lr

080050e4 <UART_CheckIdleState>:
 80050e4:	b580      	push	{r7, lr}
 80050e6:	b086      	sub	sp, #24
 80050e8:	af02      	add	r7, sp, #8
 80050ea:	6078      	str	r0, [r7, #4]
 80050ec:	687b      	ldr	r3, [r7, #4]
 80050ee:	2200      	movs	r2, #0
 80050f0:	f8c3 2080 	str.w	r2, [r3, #128]	; 0x80
 80050f4:	f7fb fefe 	bl	8000ef4 <HAL_GetTick>
 80050f8:	60f8      	str	r0, [r7, #12]
 80050fa:	687b      	ldr	r3, [r7, #4]
 80050fc:	681b      	ldr	r3, [r3, #0]
 80050fe:	681b      	ldr	r3, [r3, #0]
 8005100:	f003 0308 	and.w	r3, r3, #8
 8005104:	2b08      	cmp	r3, #8
 8005106:	d10e      	bne.n	8005126 <UART_CheckIdleState+0x42>
 8005108:	f06f 437e 	mvn.w	r3, #4261412864	; 0xfe000000
 800510c:	9300      	str	r3, [sp, #0]
 800510e:	68fb      	ldr	r3, [r7, #12]
 8005110:	2200      	movs	r2, #0
 8005112:	f44f 1100 	mov.w	r1, #2097152	; 0x200000
 8005116:	6878      	ldr	r0, [r7, #4]
 8005118:	f000 f82d 	bl	8005176 <UART_WaitOnFlagUntilTimeout>
 800511c:	4603      	mov	r3, r0
 800511e:	2b00      	cmp	r3, #0
 8005120:	d001      	beq.n	8005126 <UART_CheckIdleState+0x42>
 8005122:	2303      	movs	r3, #3
 8005124:	e023      	b.n	800516e <UART_CheckIdleState+0x8a>
 8005126:	687b      	ldr	r3, [r7, #4]
 8005128:	681b      	ldr	r3, [r3, #0]
 800512a:	681b      	ldr	r3, [r3, #0]
 800512c:	f003 0304 	and.w	r3, r3, #4
 8005130:	2b04      	cmp	r3, #4
 8005132:	d10e      	bne.n	8005152 <UART_CheckIdleState+0x6e>
 8005134:	f06f 437e 	mvn.w	r3, #4261412864	; 0xfe000000
 8005138:	9300      	str	r3, [sp, #0]
 800513a:	68fb      	ldr	r3, [r7, #12]
 800513c:	2200      	movs	r2, #0
 800513e:	f44f 0180 	mov.w	r1, #4194304	; 0x400000
 8005142:	6878      	ldr	r0, [r7, #4]
 8005144:	f000 f817 	bl	8005176 <UART_WaitOnFlagUntilTimeout>
 8005148:	4603      	mov	r3, r0
 800514a:	2b00      	cmp	r3, #0
 800514c:	d001      	beq.n	8005152 <UART_CheckIdleState+0x6e>
 800514e:	2303      	movs	r3, #3
 8005150:	e00d      	b.n	800516e <UART_CheckIdleState+0x8a>
 8005152:	687b      	ldr	r3, [r7, #4]
 8005154:	2220      	movs	r2, #32
 8005156:	679a      	str	r2, [r3, #120]	; 0x78
 8005158:	687b      	ldr	r3, [r7, #4]
 800515a:	2220      	movs	r2, #32
 800515c:	67da      	str	r2, [r3, #124]	; 0x7c
 800515e:	687b      	ldr	r3, [r7, #4]
 8005160:	2200      	movs	r2, #0
 8005162:	661a      	str	r2, [r3, #96]	; 0x60
 8005164:	687b      	ldr	r3, [r7, #4]
 8005166:	2200      	movs	r2, #0
 8005168:	f883 2074 	strb.w	r2, [r3, #116]	; 0x74
 800516c:	2300      	movs	r3, #0
 800516e:	4618      	mov	r0, r3
 8005170:	3710      	adds	r7, #16
 8005172:	46bd      	mov	sp, r7
 8005174:	bd80      	pop	{r7, pc}

08005176 <UART_WaitOnFlagUntilTimeout>:
 8005176:	b580      	push	{r7, lr}
 8005178:	b09c      	sub	sp, #112	; 0x70
 800517a:	af00      	add	r7, sp, #0
 800517c:	60f8      	str	r0, [r7, #12]
 800517e:	60b9      	str	r1, [r7, #8]
 8005180:	603b      	str	r3, [r7, #0]
 8005182:	4613      	mov	r3, r2
 8005184:	71fb      	strb	r3, [r7, #7]
 8005186:	e0a5      	b.n	80052d4 <UART_WaitOnFlagUntilTimeout+0x15e>
 8005188:	6fbb      	ldr	r3, [r7, #120]	; 0x78
 800518a:	f1b3 3fff 	cmp.w	r3, #4294967295
 800518e:	f000 80a1 	beq.w	80052d4 <UART_WaitOnFlagUntilTimeout+0x15e>
 8005192:	f7fb feaf 	bl	8000ef4 <HAL_GetTick>
 8005196:	4602      	mov	r2, r0
 8005198:	683b      	ldr	r3, [r7, #0]
 800519a:	1ad3      	subs	r3, r2, r3
 800519c:	6fba      	ldr	r2, [r7, #120]	; 0x78
 800519e:	429a      	cmp	r2, r3
 80051a0:	d302      	bcc.n	80051a8 <UART_WaitOnFlagUntilTimeout+0x32>
 80051a2:	6fbb      	ldr	r3, [r7, #120]	; 0x78
 80051a4:	2b00      	cmp	r3, #0
 80051a6:	d13e      	bne.n	8005226 <UART_WaitOnFlagUntilTimeout+0xb0>
 80051a8:	68fb      	ldr	r3, [r7, #12]
 80051aa:	681b      	ldr	r3, [r3, #0]
 80051ac:	653b      	str	r3, [r7, #80]	; 0x50
 80051ae:	6d3b      	ldr	r3, [r7, #80]	; 0x50
 80051b0:	e853 3f00 	ldrex	r3, [r3]
 80051b4:	64fb      	str	r3, [r7, #76]	; 0x4c
 80051b6:	6cfb      	ldr	r3, [r7, #76]	; 0x4c
 80051b8:	f423 73d0 	bic.w	r3, r3, #416	; 0x1a0
 80051bc:	667b      	str	r3, [r7, #100]	; 0x64
 80051be:	68fb      	ldr	r3, [r7, #12]
 80051c0:	681b      	ldr	r3, [r3, #0]
 80051c2:	461a      	mov	r2, r3
 80051c4:	6e7b      	ldr	r3, [r7, #100]	; 0x64
 80051c6:	65fb      	str	r3, [r7, #92]	; 0x5c
 80051c8:	65ba      	str	r2, [r7, #88]	; 0x58
 80051ca:	6db9      	ldr	r1, [r7, #88]	; 0x58
 80051cc:	6dfa      	ldr	r2, [r7, #92]	; 0x5c
 80051ce:	e841 2300 	strex	r3, r2, [r1]
 80051d2:	657b      	str	r3, [r7, #84]	; 0x54
 80051d4:	6d7b      	ldr	r3, [r7, #84]	; 0x54
 80051d6:	2b00      	cmp	r3, #0
 80051d8:	d1e6      	bne.n	80051a8 <UART_WaitOnFlagUntilTimeout+0x32>
 80051da:	68fb      	ldr	r3, [r7, #12]
 80051dc:	681b      	ldr	r3, [r3, #0]
 80051de:	3308      	adds	r3, #8
 80051e0:	63fb      	str	r3, [r7, #60]	; 0x3c
 80051e2:	6bfb      	ldr	r3, [r7, #60]	; 0x3c
 80051e4:	e853 3f00 	ldrex	r3, [r3]
 80051e8:	63bb      	str	r3, [r7, #56]	; 0x38
 80051ea:	6bbb      	ldr	r3, [r7, #56]	; 0x38
 80051ec:	f023 0301 	bic.w	r3, r3, #1
 80051f0:	663b      	str	r3, [r7, #96]	; 0x60
 80051f2:	68fb      	ldr	r3, [r7, #12]
 80051f4:	681b      	ldr	r3, [r3, #0]
 80051f6:	3308      	adds	r3, #8
 80051f8:	6e3a      	ldr	r2, [r7, #96]	; 0x60
 80051fa:	64ba      	str	r2, [r7, #72]	; 0x48
 80051fc:	647b      	str	r3, [r7, #68]	; 0x44
 80051fe:	6c79      	ldr	r1, [r7, #68]	; 0x44
 8005200:	6cba      	ldr	r2, [r7, #72]	; 0x48
 8005202:	e841 2300 	strex	r3, r2, [r1]
 8005206:	643b      	str	r3, [r7, #64]	; 0x40
 8005208:	6c3b      	ldr	r3, [r7, #64]	; 0x40
 800520a:	2b00      	cmp	r3, #0
 800520c:	d1e5      	bne.n	80051da <UART_WaitOnFlagUntilTimeout+0x64>
 800520e:	68fb      	ldr	r3, [r7, #12]
 8005210:	2220      	movs	r2, #32
 8005212:	679a      	str	r2, [r3, #120]	; 0x78
 8005214:	68fb      	ldr	r3, [r7, #12]
 8005216:	2220      	movs	r2, #32
 8005218:	67da      	str	r2, [r3, #124]	; 0x7c
 800521a:	68fb      	ldr	r3, [r7, #12]
 800521c:	2200      	movs	r2, #0
 800521e:	f883 2074 	strb.w	r2, [r3, #116]	; 0x74
 8005222:	2303      	movs	r3, #3
 8005224:	e067      	b.n	80052f6 <UART_WaitOnFlagUntilTimeout+0x180>
 8005226:	68fb      	ldr	r3, [r7, #12]
 8005228:	681b      	ldr	r3, [r3, #0]
 800522a:	681b      	ldr	r3, [r3, #0]
 800522c:	f003 0304 	and.w	r3, r3, #4
 8005230:	2b00      	cmp	r3, #0
 8005232:	d04f      	beq.n	80052d4 <UART_WaitOnFlagUntilTimeout+0x15e>
 8005234:	68fb      	ldr	r3, [r7, #12]
 8005236:	681b      	ldr	r3, [r3, #0]
 8005238:	69db      	ldr	r3, [r3, #28]
 800523a:	f403 6300 	and.w	r3, r3, #2048	; 0x800
 800523e:	f5b3 6f00 	cmp.w	r3, #2048	; 0x800
 8005242:	d147      	bne.n	80052d4 <UART_WaitOnFlagUntilTimeout+0x15e>
 8005244:	68fb      	ldr	r3, [r7, #12]
 8005246:	681b      	ldr	r3, [r3, #0]
 8005248:	f44f 6200 	mov.w	r2, #2048	; 0x800
 800524c:	621a      	str	r2, [r3, #32]
 800524e:	68fb      	ldr	r3, [r7, #12]
 8005250:	681b      	ldr	r3, [r3, #0]
 8005252:	62bb      	str	r3, [r7, #40]	; 0x28
 8005254:	6abb      	ldr	r3, [r7, #40]	; 0x28
 8005256:	e853 3f00 	ldrex	r3, [r3]
 800525a:	627b      	str	r3, [r7, #36]	; 0x24
 800525c:	6a7b      	ldr	r3, [r7, #36]	; 0x24
 800525e:	f423 73d0 	bic.w	r3, r3, #416	; 0x1a0
 8005262:	66fb      	str	r3, [r7, #108]	; 0x6c
 8005264:	68fb      	ldr	r3, [r7, #12]
 8005266:	681b      	ldr	r3, [r3, #0]
 8005268:	461a      	mov	r2, r3
 800526a:	6efb      	ldr	r3, [r7, #108]	; 0x6c
 800526c:	637b      	str	r3, [r7, #52]	; 0x34
 800526e:	633a      	str	r2, [r7, #48]	; 0x30
 8005270:	6b39      	ldr	r1, [r7, #48]	; 0x30
 8005272:	6b7a      	ldr	r2, [r7, #52]	; 0x34
 8005274:	e841 2300 	strex	r3, r2, [r1]
 8005278:	62fb      	str	r3, [r7, #44]	; 0x2c
 800527a:	6afb      	ldr	r3, [r7, #44]	; 0x2c
 800527c:	2b00      	cmp	r3, #0
 800527e:	d1e6      	bne.n	800524e <UART_WaitOnFlagUntilTimeout+0xd8>
 8005280:	68fb      	ldr	r3, [r7, #12]
 8005282:	681b      	ldr	r3, [r3, #0]
 8005284:	3308      	adds	r3, #8
 8005286:	617b      	str	r3, [r7, #20]
 8005288:	697b      	ldr	r3, [r7, #20]
 800528a:	e853 3f00 	ldrex	r3, [r3]
 800528e:	613b      	str	r3, [r7, #16]
 8005290:	693b      	ldr	r3, [r7, #16]
 8005292:	f023 0301 	bic.w	r3, r3, #1
 8005296:	66bb      	str	r3, [r7, #104]	; 0x68
 8005298:	68fb      	ldr	r3, [r7, #12]
 800529a:	681b      	ldr	r3, [r3, #0]
 800529c:	3308      	adds	r3, #8
 800529e:	6eba      	ldr	r2, [r7, #104]	; 0x68
 80052a0:	623a      	str	r2, [r7, #32]
 80052a2:	61fb      	str	r3, [r7, #28]
 80052a4:	69f9      	ldr	r1, [r7, #28]
 80052a6:	6a3a      	ldr	r2, [r7, #32]
 80052a8:	e841 2300 	strex	r3, r2, [r1]
 80052ac:	61bb      	str	r3, [r7, #24]
 80052ae:	69bb      	ldr	r3, [r7, #24]
 80052b0:	2b00      	cmp	r3, #0
 80052b2:	d1e5      	bne.n	8005280 <UART_WaitOnFlagUntilTimeout+0x10a>
 80052b4:	68fb      	ldr	r3, [r7, #12]
 80052b6:	2220      	movs	r2, #32
 80052b8:	679a      	str	r2, [r3, #120]	; 0x78
 80052ba:	68fb      	ldr	r3, [r7, #12]
 80052bc:	2220      	movs	r2, #32
 80052be:	67da      	str	r2, [r3, #124]	; 0x7c
 80052c0:	68fb      	ldr	r3, [r7, #12]
 80052c2:	2220      	movs	r2, #32
 80052c4:	f8c3 2080 	str.w	r2, [r3, #128]	; 0x80
 80052c8:	68fb      	ldr	r3, [r7, #12]
 80052ca:	2200      	movs	r2, #0
 80052cc:	f883 2074 	strb.w	r2, [r3, #116]	; 0x74
 80052d0:	2303      	movs	r3, #3
 80052d2:	e010      	b.n	80052f6 <UART_WaitOnFlagUntilTimeout+0x180>
 80052d4:	68fb      	ldr	r3, [r7, #12]
 80052d6:	681b      	ldr	r3, [r3, #0]
 80052d8:	69da      	ldr	r2, [r3, #28]
 80052da:	68bb      	ldr	r3, [r7, #8]
 80052dc:	4013      	ands	r3, r2
 80052de:	68ba      	ldr	r2, [r7, #8]
 80052e0:	429a      	cmp	r2, r3
 80052e2:	bf0c      	ite	eq
 80052e4:	2301      	moveq	r3, #1
 80052e6:	2300      	movne	r3, #0
 80052e8:	b2db      	uxtb	r3, r3
 80052ea:	461a      	mov	r2, r3
 80052ec:	79fb      	ldrb	r3, [r7, #7]
 80052ee:	429a      	cmp	r2, r3
 80052f0:	f43f af4a 	beq.w	8005188 <UART_WaitOnFlagUntilTimeout+0x12>
 80052f4:	2300      	movs	r3, #0
 80052f6:	4618      	mov	r0, r3
 80052f8:	3770      	adds	r7, #112	; 0x70
 80052fa:	46bd      	mov	sp, r7
 80052fc:	bd80      	pop	{r7, pc}

080052fe <makeFreeRtosPriority>:
 80052fe:	b480      	push	{r7}
 8005300:	b085      	sub	sp, #20
 8005302:	af00      	add	r7, sp, #0
 8005304:	4603      	mov	r3, r0
 8005306:	80fb      	strh	r3, [r7, #6]
 8005308:	2300      	movs	r3, #0
 800530a:	60fb      	str	r3, [r7, #12]
 800530c:	f9b7 3006 	ldrsh.w	r3, [r7, #6]
 8005310:	2b84      	cmp	r3, #132	; 0x84
 8005312:	d005      	beq.n	8005320 <makeFreeRtosPriority+0x22>
 8005314:	f9b7 2006 	ldrsh.w	r2, [r7, #6]
 8005318:	68fb      	ldr	r3, [r7, #12]
 800531a:	4413      	add	r3, r2
 800531c:	3303      	adds	r3, #3
 800531e:	60fb      	str	r3, [r7, #12]
 8005320:	68fb      	ldr	r3, [r7, #12]
 8005322:	4618      	mov	r0, r3
 8005324:	3714      	adds	r7, #20
 8005326:	46bd      	mov	sp, r7
 8005328:	f85d 7b04 	ldr.w	r7, [sp], #4
 800532c:	4770      	bx	lr

0800532e <osKernelStart>:
 800532e:	b580      	push	{r7, lr}
 8005330:	af00      	add	r7, sp, #0
 8005332:	f000 fe4f 	bl	8005fd4 <vTaskStartScheduler>
 8005336:	2300      	movs	r3, #0
 8005338:	4618      	mov	r0, r3
 800533a:	bd80      	pop	{r7, pc}

0800533c <osThreadCreate>:
 800533c:	b5f0      	push	{r4, r5, r6, r7, lr}
 800533e:	b089      	sub	sp, #36	; 0x24
 8005340:	af04      	add	r7, sp, #16
 8005342:	6078      	str	r0, [r7, #4]
 8005344:	6039      	str	r1, [r7, #0]
 8005346:	687b      	ldr	r3, [r7, #4]
 8005348:	695b      	ldr	r3, [r3, #20]
 800534a:	2b00      	cmp	r3, #0
 800534c:	d020      	beq.n	8005390 <osThreadCreate+0x54>
 800534e:	687b      	ldr	r3, [r7, #4]
 8005350:	699b      	ldr	r3, [r3, #24]
 8005352:	2b00      	cmp	r3, #0
 8005354:	d01c      	beq.n	8005390 <osThreadCreate+0x54>
 8005356:	687b      	ldr	r3, [r7, #4]
 8005358:	685c      	ldr	r4, [r3, #4]
 800535a:	687b      	ldr	r3, [r7, #4]
 800535c:	681d      	ldr	r5, [r3, #0]
 800535e:	687b      	ldr	r3, [r7, #4]
 8005360:	691e      	ldr	r6, [r3, #16]
 8005362:	687b      	ldr	r3, [r7, #4]
 8005364:	f9b3 3008 	ldrsh.w	r3, [r3, #8]
 8005368:	4618      	mov	r0, r3
 800536a:	f7ff ffc8 	bl	80052fe <makeFreeRtosPriority>
 800536e:	4601      	mov	r1, r0
 8005370:	687b      	ldr	r3, [r7, #4]
 8005372:	695b      	ldr	r3, [r3, #20]
 8005374:	687a      	ldr	r2, [r7, #4]
 8005376:	6992      	ldr	r2, [r2, #24]
 8005378:	9202      	str	r2, [sp, #8]
 800537a:	9301      	str	r3, [sp, #4]
 800537c:	9100      	str	r1, [sp, #0]
 800537e:	683b      	ldr	r3, [r7, #0]
 8005380:	4632      	mov	r2, r6
 8005382:	4629      	mov	r1, r5
 8005384:	4620      	mov	r0, r4
 8005386:	f000 fc5d 	bl	8005c44 <xTaskCreateStatic>
 800538a:	4603      	mov	r3, r0
 800538c:	60fb      	str	r3, [r7, #12]
 800538e:	e01c      	b.n	80053ca <osThreadCreate+0x8e>
 8005390:	687b      	ldr	r3, [r7, #4]
 8005392:	685c      	ldr	r4, [r3, #4]
 8005394:	687b      	ldr	r3, [r7, #4]
 8005396:	681d      	ldr	r5, [r3, #0]
 8005398:	687b      	ldr	r3, [r7, #4]
 800539a:	691b      	ldr	r3, [r3, #16]
 800539c:	b29e      	uxth	r6, r3
 800539e:	687b      	ldr	r3, [r7, #4]
 80053a0:	f9b3 3008 	ldrsh.w	r3, [r3, #8]
 80053a4:	4618      	mov	r0, r3
 80053a6:	f7ff ffaa 	bl	80052fe <makeFreeRtosPriority>
 80053aa:	4602      	mov	r2, r0
 80053ac:	f107 030c 	add.w	r3, r7, #12
 80053b0:	9301      	str	r3, [sp, #4]
 80053b2:	9200      	str	r2, [sp, #0]
 80053b4:	683b      	ldr	r3, [r7, #0]
 80053b6:	4632      	mov	r2, r6
 80053b8:	4629      	mov	r1, r5
 80053ba:	4620      	mov	r0, r4
 80053bc:	f000 fc9f 	bl	8005cfe <xTaskCreate>
 80053c0:	4603      	mov	r3, r0
 80053c2:	2b01      	cmp	r3, #1
 80053c4:	d001      	beq.n	80053ca <osThreadCreate+0x8e>
 80053c6:	2300      	movs	r3, #0
 80053c8:	e000      	b.n	80053cc <osThreadCreate+0x90>
 80053ca:	68fb      	ldr	r3, [r7, #12]
 80053cc:	4618      	mov	r0, r3
 80053ce:	3714      	adds	r7, #20
 80053d0:	46bd      	mov	sp, r7
 80053d2:	bdf0      	pop	{r4, r5, r6, r7, pc}

080053d4 <osDelay>:
 80053d4:	b580      	push	{r7, lr}
 80053d6:	b084      	sub	sp, #16
 80053d8:	af00      	add	r7, sp, #0
 80053da:	6078      	str	r0, [r7, #4]
 80053dc:	687b      	ldr	r3, [r7, #4]
 80053de:	60fb      	str	r3, [r7, #12]
 80053e0:	68fb      	ldr	r3, [r7, #12]
 80053e2:	2b00      	cmp	r3, #0
 80053e4:	d001      	beq.n	80053ea <osDelay+0x16>
 80053e6:	68fb      	ldr	r3, [r7, #12]
 80053e8:	e000      	b.n	80053ec <osDelay+0x18>
 80053ea:	2301      	movs	r3, #1
 80053ec:	4618      	mov	r0, r3
 80053ee:	f000 fdbd 	bl	8005f6c <vTaskDelay>
 80053f2:	2300      	movs	r3, #0
 80053f4:	4618      	mov	r0, r3
 80053f6:	3710      	adds	r7, #16
 80053f8:	46bd      	mov	sp, r7
 80053fa:	bd80      	pop	{r7, pc}

080053fc <osMutexCreate>:
 80053fc:	b580      	push	{r7, lr}
 80053fe:	b082      	sub	sp, #8
 8005400:	af00      	add	r7, sp, #0
 8005402:	6078      	str	r0, [r7, #4]
 8005404:	687b      	ldr	r3, [r7, #4]
 8005406:	685b      	ldr	r3, [r3, #4]
 8005408:	2b00      	cmp	r3, #0
 800540a:	d007      	beq.n	800541c <osMutexCreate+0x20>
 800540c:	687b      	ldr	r3, [r7, #4]
 800540e:	685b      	ldr	r3, [r3, #4]
 8005410:	4619      	mov	r1, r3
 8005412:	2001      	movs	r0, #1
 8005414:	f000 fa29 	bl	800586a <xQueueCreateMutexStatic>
 8005418:	4603      	mov	r3, r0
 800541a:	e003      	b.n	8005424 <osMutexCreate+0x28>
 800541c:	2001      	movs	r0, #1
 800541e:	f000 fa0c 	bl	800583a <xQueueCreateMutex>
 8005422:	4603      	mov	r3, r0
 8005424:	4618      	mov	r0, r3
 8005426:	3708      	adds	r7, #8
 8005428:	46bd      	mov	sp, r7
 800542a:	bd80      	pop	{r7, pc}

0800542c <vListInitialise>:
 800542c:	b480      	push	{r7}
 800542e:	b083      	sub	sp, #12
 8005430:	af00      	add	r7, sp, #0
 8005432:	6078      	str	r0, [r7, #4]
 8005434:	687b      	ldr	r3, [r7, #4]
 8005436:	f103 0208 	add.w	r2, r3, #8
 800543a:	687b      	ldr	r3, [r7, #4]
 800543c:	605a      	str	r2, [r3, #4]
 800543e:	687b      	ldr	r3, [r7, #4]
 8005440:	f04f 32ff 	mov.w	r2, #4294967295
 8005444:	609a      	str	r2, [r3, #8]
 8005446:	687b      	ldr	r3, [r7, #4]
 8005448:	f103 0208 	add.w	r2, r3, #8
 800544c:	687b      	ldr	r3, [r7, #4]
 800544e:	60da      	str	r2, [r3, #12]
 8005450:	687b      	ldr	r3, [r7, #4]
 8005452:	f103 0208 	add.w	r2, r3, #8
 8005456:	687b      	ldr	r3, [r7, #4]
 8005458:	611a      	str	r2, [r3, #16]
 800545a:	687b      	ldr	r3, [r7, #4]
 800545c:	2200      	movs	r2, #0
 800545e:	601a      	str	r2, [r3, #0]
 8005460:	bf00      	nop
 8005462:	370c      	adds	r7, #12
 8005464:	46bd      	mov	sp, r7
 8005466:	f85d 7b04 	ldr.w	r7, [sp], #4
 800546a:	4770      	bx	lr

0800546c <vListInitialiseItem>:
 800546c:	b480      	push	{r7}
 800546e:	b083      	sub	sp, #12
 8005470:	af00      	add	r7, sp, #0
 8005472:	6078      	str	r0, [r7, #4]
 8005474:	687b      	ldr	r3, [r7, #4]
 8005476:	2200      	movs	r2, #0
 8005478:	611a      	str	r2, [r3, #16]
 800547a:	bf00      	nop
 800547c:	370c      	adds	r7, #12
 800547e:	46bd      	mov	sp, r7
 8005480:	f85d 7b04 	ldr.w	r7, [sp], #4
 8005484:	4770      	bx	lr

08005486 <vListInsertEnd>:
 8005486:	b480      	push	{r7}
 8005488:	b085      	sub	sp, #20
 800548a:	af00      	add	r7, sp, #0
 800548c:	6078      	str	r0, [r7, #4]
 800548e:	6039      	str	r1, [r7, #0]
 8005490:	687b      	ldr	r3, [r7, #4]
 8005492:	685b      	ldr	r3, [r3, #4]
 8005494:	60fb      	str	r3, [r7, #12]
 8005496:	683b      	ldr	r3, [r7, #0]
 8005498:	68fa      	ldr	r2, [r7, #12]
 800549a:	605a      	str	r2, [r3, #4]
 800549c:	68fb      	ldr	r3, [r7, #12]
 800549e:	689a      	ldr	r2, [r3, #8]
 80054a0:	683b      	ldr	r3, [r7, #0]
 80054a2:	609a      	str	r2, [r3, #8]
 80054a4:	68fb      	ldr	r3, [r7, #12]
 80054a6:	689b      	ldr	r3, [r3, #8]
 80054a8:	683a      	ldr	r2, [r7, #0]
 80054aa:	605a      	str	r2, [r3, #4]
 80054ac:	68fb      	ldr	r3, [r7, #12]
 80054ae:	683a      	ldr	r2, [r7, #0]
 80054b0:	609a      	str	r2, [r3, #8]
 80054b2:	683b      	ldr	r3, [r7, #0]
 80054b4:	687a      	ldr	r2, [r7, #4]
 80054b6:	611a      	str	r2, [r3, #16]
 80054b8:	687b      	ldr	r3, [r7, #4]
 80054ba:	681b      	ldr	r3, [r3, #0]
 80054bc:	1c5a      	adds	r2, r3, #1
 80054be:	687b      	ldr	r3, [r7, #4]
 80054c0:	601a      	str	r2, [r3, #0]
 80054c2:	bf00      	nop
 80054c4:	3714      	adds	r7, #20
 80054c6:	46bd      	mov	sp, r7
 80054c8:	f85d 7b04 	ldr.w	r7, [sp], #4
 80054cc:	4770      	bx	lr

080054ce <vListInsert>:
 80054ce:	b480      	push	{r7}
 80054d0:	b085      	sub	sp, #20
 80054d2:	af00      	add	r7, sp, #0
 80054d4:	6078      	str	r0, [r7, #4]
 80054d6:	6039      	str	r1, [r7, #0]
 80054d8:	683b      	ldr	r3, [r7, #0]
 80054da:	681b      	ldr	r3, [r3, #0]
 80054dc:	60bb      	str	r3, [r7, #8]
 80054de:	68bb      	ldr	r3, [r7, #8]
 80054e0:	f1b3 3fff 	cmp.w	r3, #4294967295
 80054e4:	d103      	bne.n	80054ee <vListInsert+0x20>
 80054e6:	687b      	ldr	r3, [r7, #4]
 80054e8:	691b      	ldr	r3, [r3, #16]
 80054ea:	60fb      	str	r3, [r7, #12]
 80054ec:	e00c      	b.n	8005508 <vListInsert+0x3a>
 80054ee:	687b      	ldr	r3, [r7, #4]
 80054f0:	3308      	adds	r3, #8
 80054f2:	60fb      	str	r3, [r7, #12]
 80054f4:	e002      	b.n	80054fc <vListInsert+0x2e>
 80054f6:	68fb      	ldr	r3, [r7, #12]
 80054f8:	685b      	ldr	r3, [r3, #4]
 80054fa:	60fb      	str	r3, [r7, #12]
 80054fc:	68fb      	ldr	r3, [r7, #12]
 80054fe:	685b      	ldr	r3, [r3, #4]
 8005500:	681b      	ldr	r3, [r3, #0]
 8005502:	68ba      	ldr	r2, [r7, #8]
 8005504:	429a      	cmp	r2, r3
 8005506:	d2f6      	bcs.n	80054f6 <vListInsert+0x28>
 8005508:	68fb      	ldr	r3, [r7, #12]
 800550a:	685a      	ldr	r2, [r3, #4]
 800550c:	683b      	ldr	r3, [r7, #0]
 800550e:	605a      	str	r2, [r3, #4]
 8005510:	683b      	ldr	r3, [r7, #0]
 8005512:	685b      	ldr	r3, [r3, #4]
 8005514:	683a      	ldr	r2, [r7, #0]
 8005516:	609a      	str	r2, [r3, #8]
 8005518:	683b      	ldr	r3, [r7, #0]
 800551a:	68fa      	ldr	r2, [r7, #12]
 800551c:	609a      	str	r2, [r3, #8]
 800551e:	68fb      	ldr	r3, [r7, #12]
 8005520:	683a      	ldr	r2, [r7, #0]
 8005522:	605a      	str	r2, [r3, #4]
 8005524:	683b      	ldr	r3, [r7, #0]
 8005526:	687a      	ldr	r2, [r7, #4]
 8005528:	611a      	str	r2, [r3, #16]
 800552a:	687b      	ldr	r3, [r7, #4]
 800552c:	681b      	ldr	r3, [r3, #0]
 800552e:	1c5a      	adds	r2, r3, #1
 8005530:	687b      	ldr	r3, [r7, #4]
 8005532:	601a      	str	r2, [r3, #0]
 8005534:	bf00      	nop
 8005536:	3714      	adds	r7, #20
 8005538:	46bd      	mov	sp, r7
 800553a:	f85d 7b04 	ldr.w	r7, [sp], #4
 800553e:	4770      	bx	lr

08005540 <uxListRemove>:
 8005540:	b480      	push	{r7}
 8005542:	b085      	sub	sp, #20
 8005544:	af00      	add	r7, sp, #0
 8005546:	6078      	str	r0, [r7, #4]
 8005548:	687b      	ldr	r3, [r7, #4]
 800554a:	691b      	ldr	r3, [r3, #16]
 800554c:	60fb      	str	r3, [r7, #12]
 800554e:	687b      	ldr	r3, [r7, #4]
 8005550:	685b      	ldr	r3, [r3, #4]
 8005552:	687a      	ldr	r2, [r7, #4]
 8005554:	6892      	ldr	r2, [r2, #8]
 8005556:	609a      	str	r2, [r3, #8]
 8005558:	687b      	ldr	r3, [r7, #4]
 800555a:	689b      	ldr	r3, [r3, #8]
 800555c:	687a      	ldr	r2, [r7, #4]
 800555e:	6852      	ldr	r2, [r2, #4]
 8005560:	605a      	str	r2, [r3, #4]
 8005562:	68fb      	ldr	r3, [r7, #12]
 8005564:	685b      	ldr	r3, [r3, #4]
 8005566:	687a      	ldr	r2, [r7, #4]
 8005568:	429a      	cmp	r2, r3
 800556a:	d103      	bne.n	8005574 <uxListRemove+0x34>
 800556c:	687b      	ldr	r3, [r7, #4]
 800556e:	689a      	ldr	r2, [r3, #8]
 8005570:	68fb      	ldr	r3, [r7, #12]
 8005572:	605a      	str	r2, [r3, #4]
 8005574:	687b      	ldr	r3, [r7, #4]
 8005576:	2200      	movs	r2, #0
 8005578:	611a      	str	r2, [r3, #16]
 800557a:	68fb      	ldr	r3, [r7, #12]
 800557c:	681b      	ldr	r3, [r3, #0]
 800557e:	1e5a      	subs	r2, r3, #1
 8005580:	68fb      	ldr	r3, [r7, #12]
 8005582:	601a      	str	r2, [r3, #0]
 8005584:	68fb      	ldr	r3, [r7, #12]
 8005586:	681b      	ldr	r3, [r3, #0]
 8005588:	4618      	mov	r0, r3
 800558a:	3714      	adds	r7, #20
 800558c:	46bd      	mov	sp, r7
 800558e:	f85d 7b04 	ldr.w	r7, [sp], #4
 8005592:	4770      	bx	lr

08005594 <xQueueGenericReset>:
 8005594:	b580      	push	{r7, lr}
 8005596:	b084      	sub	sp, #16
 8005598:	af00      	add	r7, sp, #0
 800559a:	6078      	str	r0, [r7, #4]
 800559c:	6039      	str	r1, [r7, #0]
 800559e:	687b      	ldr	r3, [r7, #4]
 80055a0:	60fb      	str	r3, [r7, #12]
 80055a2:	68fb      	ldr	r3, [r7, #12]
 80055a4:	2b00      	cmp	r3, #0
 80055a6:	d10a      	bne.n	80055be <xQueueGenericReset+0x2a>
 80055a8:	f04f 0350 	mov.w	r3, #80	; 0x50
 80055ac:	f383 8811 	msr	BASEPRI, r3
 80055b0:	f3bf 8f6f 	isb	sy
 80055b4:	f3bf 8f4f 	dsb	sy
 80055b8:	60bb      	str	r3, [r7, #8]
 80055ba:	bf00      	nop
 80055bc:	e7fe      	b.n	80055bc <xQueueGenericReset+0x28>
 80055be:	f001 fb41 	bl	8006c44 <vPortEnterCritical>
 80055c2:	68fb      	ldr	r3, [r7, #12]
 80055c4:	681a      	ldr	r2, [r3, #0]
 80055c6:	68fb      	ldr	r3, [r7, #12]
 80055c8:	6bdb      	ldr	r3, [r3, #60]	; 0x3c
 80055ca:	68f9      	ldr	r1, [r7, #12]
 80055cc:	6c09      	ldr	r1, [r1, #64]	; 0x40
 80055ce:	fb01 f303 	mul.w	r3, r1, r3
 80055d2:	441a      	add	r2, r3
 80055d4:	68fb      	ldr	r3, [r7, #12]
 80055d6:	609a      	str	r2, [r3, #8]
 80055d8:	68fb      	ldr	r3, [r7, #12]
 80055da:	2200      	movs	r2, #0
 80055dc:	639a      	str	r2, [r3, #56]	; 0x38
 80055de:	68fb      	ldr	r3, [r7, #12]
 80055e0:	681a      	ldr	r2, [r3, #0]
 80055e2:	68fb      	ldr	r3, [r7, #12]
 80055e4:	605a      	str	r2, [r3, #4]
 80055e6:	68fb      	ldr	r3, [r7, #12]
 80055e8:	681a      	ldr	r2, [r3, #0]
 80055ea:	68fb      	ldr	r3, [r7, #12]
 80055ec:	6bdb      	ldr	r3, [r3, #60]	; 0x3c
 80055ee:	3b01      	subs	r3, #1
 80055f0:	68f9      	ldr	r1, [r7, #12]
 80055f2:	6c09      	ldr	r1, [r1, #64]	; 0x40
 80055f4:	fb01 f303 	mul.w	r3, r1, r3
 80055f8:	441a      	add	r2, r3
 80055fa:	68fb      	ldr	r3, [r7, #12]
 80055fc:	60da      	str	r2, [r3, #12]
 80055fe:	68fb      	ldr	r3, [r7, #12]
 8005600:	22ff      	movs	r2, #255	; 0xff
 8005602:	f883 2044 	strb.w	r2, [r3, #68]	; 0x44
 8005606:	68fb      	ldr	r3, [r7, #12]
 8005608:	22ff      	movs	r2, #255	; 0xff
 800560a:	f883 2045 	strb.w	r2, [r3, #69]	; 0x45
 800560e:	683b      	ldr	r3, [r7, #0]
 8005610:	2b00      	cmp	r3, #0
 8005612:	d114      	bne.n	800563e <xQueueGenericReset+0xaa>
 8005614:	68fb      	ldr	r3, [r7, #12]
 8005616:	691b      	ldr	r3, [r3, #16]
 8005618:	2b00      	cmp	r3, #0
 800561a:	d01a      	beq.n	8005652 <xQueueGenericReset+0xbe>
 800561c:	68fb      	ldr	r3, [r7, #12]
 800561e:	3310      	adds	r3, #16
 8005620:	4618      	mov	r0, r3
 8005622:	f000 ff19 	bl	8006458 <xTaskRemoveFromEventList>
 8005626:	4603      	mov	r3, r0
 8005628:	2b00      	cmp	r3, #0
 800562a:	d012      	beq.n	8005652 <xQueueGenericReset+0xbe>
 800562c:	4b0c      	ldr	r3, [pc, #48]	; (8005660 <xQueueGenericReset+0xcc>)
 800562e:	f04f 5280 	mov.w	r2, #268435456	; 0x10000000
 8005632:	601a      	str	r2, [r3, #0]
 8005634:	f3bf 8f4f 	dsb	sy
 8005638:	f3bf 8f6f 	isb	sy
 800563c:	e009      	b.n	8005652 <xQueueGenericReset+0xbe>
 800563e:	68fb      	ldr	r3, [r7, #12]
 8005640:	3310      	adds	r3, #16
 8005642:	4618      	mov	r0, r3
 8005644:	f7ff fef2 	bl	800542c <vListInitialise>
 8005648:	68fb      	ldr	r3, [r7, #12]
 800564a:	3324      	adds	r3, #36	; 0x24
 800564c:	4618      	mov	r0, r3
 800564e:	f7ff feed 	bl	800542c <vListInitialise>
 8005652:	f001 fb27 	bl	8006ca4 <vPortExitCritical>
 8005656:	2301      	movs	r3, #1
 8005658:	4618      	mov	r0, r3
 800565a:	3710      	adds	r7, #16
 800565c:	46bd      	mov	sp, r7
 800565e:	bd80      	pop	{r7, pc}
 8005660:	e000ed04 	.word	0xe000ed04

08005664 <xQueueGenericCreateStatic>:
 8005664:	b580      	push	{r7, lr}
 8005666:	b08e      	sub	sp, #56	; 0x38
 8005668:	af02      	add	r7, sp, #8
 800566a:	60f8      	str	r0, [r7, #12]
 800566c:	60b9      	str	r1, [r7, #8]
 800566e:	607a      	str	r2, [r7, #4]
 8005670:	603b      	str	r3, [r7, #0]
 8005672:	68fb      	ldr	r3, [r7, #12]
 8005674:	2b00      	cmp	r3, #0
 8005676:	d10a      	bne.n	800568e <xQueueGenericCreateStatic+0x2a>
 8005678:	f04f 0350 	mov.w	r3, #80	; 0x50
 800567c:	f383 8811 	msr	BASEPRI, r3
 8005680:	f3bf 8f6f 	isb	sy
 8005684:	f3bf 8f4f 	dsb	sy
 8005688:	62bb      	str	r3, [r7, #40]	; 0x28
 800568a:	bf00      	nop
 800568c:	e7fe      	b.n	800568c <xQueueGenericCreateStatic+0x28>
 800568e:	683b      	ldr	r3, [r7, #0]
 8005690:	2b00      	cmp	r3, #0
 8005692:	d10a      	bne.n	80056aa <xQueueGenericCreateStatic+0x46>
 8005694:	f04f 0350 	mov.w	r3, #80	; 0x50
 8005698:	f383 8811 	msr	BASEPRI, r3
 800569c:	f3bf 8f6f 	isb	sy
 80056a0:	f3bf 8f4f 	dsb	sy
 80056a4:	627b      	str	r3, [r7, #36]	; 0x24
 80056a6:	bf00      	nop
 80056a8:	e7fe      	b.n	80056a8 <xQueueGenericCreateStatic+0x44>
 80056aa:	687b      	ldr	r3, [r7, #4]
 80056ac:	2b00      	cmp	r3, #0
 80056ae:	d002      	beq.n	80056b6 <xQueueGenericCreateStatic+0x52>
 80056b0:	68bb      	ldr	r3, [r7, #8]
 80056b2:	2b00      	cmp	r3, #0
 80056b4:	d001      	beq.n	80056ba <xQueueGenericCreateStatic+0x56>
 80056b6:	2301      	movs	r3, #1
 80056b8:	e000      	b.n	80056bc <xQueueGenericCreateStatic+0x58>
 80056ba:	2300      	movs	r3, #0
 80056bc:	2b00      	cmp	r3, #0
 80056be:	d10a      	bne.n	80056d6 <xQueueGenericCreateStatic+0x72>
 80056c0:	f04f 0350 	mov.w	r3, #80	; 0x50
 80056c4:	f383 8811 	msr	BASEPRI, r3
 80056c8:	f3bf 8f6f 	isb	sy
 80056cc:	f3bf 8f4f 	dsb	sy
 80056d0:	623b      	str	r3, [r7, #32]
 80056d2:	bf00      	nop
 80056d4:	e7fe      	b.n	80056d4 <xQueueGenericCreateStatic+0x70>
 80056d6:	687b      	ldr	r3, [r7, #4]
 80056d8:	2b00      	cmp	r3, #0
 80056da:	d102      	bne.n	80056e2 <xQueueGenericCreateStatic+0x7e>
 80056dc:	68bb      	ldr	r3, [r7, #8]
 80056de:	2b00      	cmp	r3, #0
 80056e0:	d101      	bne.n	80056e6 <xQueueGenericCreateStatic+0x82>
 80056e2:	2301      	movs	r3, #1
 80056e4:	e000      	b.n	80056e8 <xQueueGenericCreateStatic+0x84>
 80056e6:	2300      	movs	r3, #0
 80056e8:	2b00      	cmp	r3, #0
 80056ea:	d10a      	bne.n	8005702 <xQueueGenericCreateStatic+0x9e>
 80056ec:	f04f 0350 	mov.w	r3, #80	; 0x50
 80056f0:	f383 8811 	msr	BASEPRI, r3
 80056f4:	f3bf 8f6f 	isb	sy
 80056f8:	f3bf 8f4f 	dsb	sy
 80056fc:	61fb      	str	r3, [r7, #28]
 80056fe:	bf00      	nop
 8005700:	e7fe      	b.n	8005700 <xQueueGenericCreateStatic+0x9c>
 8005702:	2348      	movs	r3, #72	; 0x48
 8005704:	617b      	str	r3, [r7, #20]
 8005706:	697b      	ldr	r3, [r7, #20]
 8005708:	2b48      	cmp	r3, #72	; 0x48
 800570a:	d00a      	beq.n	8005722 <xQueueGenericCreateStatic+0xbe>
 800570c:	f04f 0350 	mov.w	r3, #80	; 0x50
 8005710:	f383 8811 	msr	BASEPRI, r3
 8005714:	f3bf 8f6f 	isb	sy
 8005718:	f3bf 8f4f 	dsb	sy
 800571c:	61bb      	str	r3, [r7, #24]
 800571e:	bf00      	nop
 8005720:	e7fe      	b.n	8005720 <xQueueGenericCreateStatic+0xbc>
 8005722:	697b      	ldr	r3, [r7, #20]
 8005724:	683b      	ldr	r3, [r7, #0]
 8005726:	62fb      	str	r3, [r7, #44]	; 0x2c
 8005728:	6afb      	ldr	r3, [r7, #44]	; 0x2c
 800572a:	2b00      	cmp	r3, #0
 800572c:	d00d      	beq.n	800574a <xQueueGenericCreateStatic+0xe6>
 800572e:	6afb      	ldr	r3, [r7, #44]	; 0x2c
 8005730:	2201      	movs	r2, #1
 8005732:	f883 2046 	strb.w	r2, [r3, #70]	; 0x46
 8005736:	f897 2038 	ldrb.w	r2, [r7, #56]	; 0x38
 800573a:	6afb      	ldr	r3, [r7, #44]	; 0x2c
 800573c:	9300      	str	r3, [sp, #0]
 800573e:	4613      	mov	r3, r2
 8005740:	687a      	ldr	r2, [r7, #4]
 8005742:	68b9      	ldr	r1, [r7, #8]
 8005744:	68f8      	ldr	r0, [r7, #12]
 8005746:	f000 f83f 	bl	80057c8 <prvInitialiseNewQueue>
 800574a:	6afb      	ldr	r3, [r7, #44]	; 0x2c
 800574c:	4618      	mov	r0, r3
 800574e:	3730      	adds	r7, #48	; 0x30
 8005750:	46bd      	mov	sp, r7
 8005752:	bd80      	pop	{r7, pc}

08005754 <xQueueGenericCreate>:
 8005754:	b580      	push	{r7, lr}
 8005756:	b08a      	sub	sp, #40	; 0x28
 8005758:	af02      	add	r7, sp, #8
 800575a:	60f8      	str	r0, [r7, #12]
 800575c:	60b9      	str	r1, [r7, #8]
 800575e:	4613      	mov	r3, r2
 8005760:	71fb      	strb	r3, [r7, #7]
 8005762:	68fb      	ldr	r3, [r7, #12]
 8005764:	2b00      	cmp	r3, #0
 8005766:	d10a      	bne.n	800577e <xQueueGenericCreate+0x2a>
 8005768:	f04f 0350 	mov.w	r3, #80	; 0x50
 800576c:	f383 8811 	msr	BASEPRI, r3
 8005770:	f3bf 8f6f 	isb	sy
 8005774:	f3bf 8f4f 	dsb	sy
 8005778:	613b      	str	r3, [r7, #16]
 800577a:	bf00      	nop
 800577c:	e7fe      	b.n	800577c <xQueueGenericCreate+0x28>
 800577e:	68fb      	ldr	r3, [r7, #12]
 8005780:	68ba      	ldr	r2, [r7, #8]
 8005782:	fb02 f303 	mul.w	r3, r2, r3
 8005786:	61fb      	str	r3, [r7, #28]
 8005788:	69fb      	ldr	r3, [r7, #28]
 800578a:	3348      	adds	r3, #72	; 0x48
 800578c:	4618      	mov	r0, r3
 800578e:	f001 fb3b 	bl	8006e08 <pvPortMalloc>
 8005792:	61b8      	str	r0, [r7, #24]
 8005794:	69bb      	ldr	r3, [r7, #24]
 8005796:	2b00      	cmp	r3, #0
 8005798:	d011      	beq.n	80057be <xQueueGenericCreate+0x6a>
 800579a:	69bb      	ldr	r3, [r7, #24]
 800579c:	617b      	str	r3, [r7, #20]
 800579e:	697b      	ldr	r3, [r7, #20]
 80057a0:	3348      	adds	r3, #72	; 0x48
 80057a2:	617b      	str	r3, [r7, #20]
 80057a4:	69bb      	ldr	r3, [r7, #24]
 80057a6:	2200      	movs	r2, #0
 80057a8:	f883 2046 	strb.w	r2, [r3, #70]	; 0x46
 80057ac:	79fa      	ldrb	r2, [r7, #7]
 80057ae:	69bb      	ldr	r3, [r7, #24]
 80057b0:	9300      	str	r3, [sp, #0]
 80057b2:	4613      	mov	r3, r2
 80057b4:	697a      	ldr	r2, [r7, #20]
 80057b6:	68b9      	ldr	r1, [r7, #8]
 80057b8:	68f8      	ldr	r0, [r7, #12]
 80057ba:	f000 f805 	bl	80057c8 <prvInitialiseNewQueue>
 80057be:	69bb      	ldr	r3, [r7, #24]
 80057c0:	4618      	mov	r0, r3
 80057c2:	3720      	adds	r7, #32
 80057c4:	46bd      	mov	sp, r7
 80057c6:	bd80      	pop	{r7, pc}

080057c8 <prvInitialiseNewQueue>:
 80057c8:	b580      	push	{r7, lr}
 80057ca:	b084      	sub	sp, #16
 80057cc:	af00      	add	r7, sp, #0
 80057ce:	60f8      	str	r0, [r7, #12]
 80057d0:	60b9      	str	r1, [r7, #8]
 80057d2:	607a      	str	r2, [r7, #4]
 80057d4:	70fb      	strb	r3, [r7, #3]
 80057d6:	68bb      	ldr	r3, [r7, #8]
 80057d8:	2b00      	cmp	r3, #0
 80057da:	d103      	bne.n	80057e4 <prvInitialiseNewQueue+0x1c>
 80057dc:	69bb      	ldr	r3, [r7, #24]
 80057de:	69ba      	ldr	r2, [r7, #24]
 80057e0:	601a      	str	r2, [r3, #0]
 80057e2:	e002      	b.n	80057ea <prvInitialiseNewQueue+0x22>
 80057e4:	69bb      	ldr	r3, [r7, #24]
 80057e6:	687a      	ldr	r2, [r7, #4]
 80057e8:	601a      	str	r2, [r3, #0]
 80057ea:	69bb      	ldr	r3, [r7, #24]
 80057ec:	68fa      	ldr	r2, [r7, #12]
 80057ee:	63da      	str	r2, [r3, #60]	; 0x3c
 80057f0:	69bb      	ldr	r3, [r7, #24]
 80057f2:	68ba      	ldr	r2, [r7, #8]
 80057f4:	641a      	str	r2, [r3, #64]	; 0x40
 80057f6:	2101      	movs	r1, #1
 80057f8:	69b8      	ldr	r0, [r7, #24]
 80057fa:	f7ff fecb 	bl	8005594 <xQueueGenericReset>
 80057fe:	bf00      	nop
 8005800:	3710      	adds	r7, #16
 8005802:	46bd      	mov	sp, r7
 8005804:	bd80      	pop	{r7, pc}

08005806 <prvInitialiseMutex>:
 8005806:	b580      	push	{r7, lr}
 8005808:	b082      	sub	sp, #8
 800580a:	af00      	add	r7, sp, #0
 800580c:	6078      	str	r0, [r7, #4]
 800580e:	687b      	ldr	r3, [r7, #4]
 8005810:	2b00      	cmp	r3, #0
 8005812:	d00e      	beq.n	8005832 <prvInitialiseMutex+0x2c>
 8005814:	687b      	ldr	r3, [r7, #4]
 8005816:	2200      	movs	r2, #0
 8005818:	609a      	str	r2, [r3, #8]
 800581a:	687b      	ldr	r3, [r7, #4]
 800581c:	2200      	movs	r2, #0
 800581e:	601a      	str	r2, [r3, #0]
 8005820:	687b      	ldr	r3, [r7, #4]
 8005822:	2200      	movs	r2, #0
 8005824:	60da      	str	r2, [r3, #12]
 8005826:	2300      	movs	r3, #0
 8005828:	2200      	movs	r2, #0
 800582a:	2100      	movs	r1, #0
 800582c:	6878      	ldr	r0, [r7, #4]
 800582e:	f000 f837 	bl	80058a0 <xQueueGenericSend>
 8005832:	bf00      	nop
 8005834:	3708      	adds	r7, #8
 8005836:	46bd      	mov	sp, r7
 8005838:	bd80      	pop	{r7, pc}

0800583a <xQueueCreateMutex>:
 800583a:	b580      	push	{r7, lr}
 800583c:	b086      	sub	sp, #24
 800583e:	af00      	add	r7, sp, #0
 8005840:	4603      	mov	r3, r0
 8005842:	71fb      	strb	r3, [r7, #7]
 8005844:	2301      	movs	r3, #1
 8005846:	617b      	str	r3, [r7, #20]
 8005848:	2300      	movs	r3, #0
 800584a:	613b      	str	r3, [r7, #16]
 800584c:	79fb      	ldrb	r3, [r7, #7]
 800584e:	461a      	mov	r2, r3
 8005850:	6939      	ldr	r1, [r7, #16]
 8005852:	6978      	ldr	r0, [r7, #20]
 8005854:	f7ff ff7e 	bl	8005754 <xQueueGenericCreate>
 8005858:	60f8      	str	r0, [r7, #12]
 800585a:	68f8      	ldr	r0, [r7, #12]
 800585c:	f7ff ffd3 	bl	8005806 <prvInitialiseMutex>
 8005860:	68fb      	ldr	r3, [r7, #12]
 8005862:	4618      	mov	r0, r3
 8005864:	3718      	adds	r7, #24
 8005866:	46bd      	mov	sp, r7
 8005868:	bd80      	pop	{r7, pc}

0800586a <xQueueCreateMutexStatic>:
 800586a:	b580      	push	{r7, lr}
 800586c:	b088      	sub	sp, #32
 800586e:	af02      	add	r7, sp, #8
 8005870:	4603      	mov	r3, r0
 8005872:	6039      	str	r1, [r7, #0]
 8005874:	71fb      	strb	r3, [r7, #7]
 8005876:	2301      	movs	r3, #1
 8005878:	617b      	str	r3, [r7, #20]
 800587a:	2300      	movs	r3, #0
 800587c:	613b      	str	r3, [r7, #16]
 800587e:	79fb      	ldrb	r3, [r7, #7]
 8005880:	9300      	str	r3, [sp, #0]
 8005882:	683b      	ldr	r3, [r7, #0]
 8005884:	2200      	movs	r2, #0
 8005886:	6939      	ldr	r1, [r7, #16]
 8005888:	6978      	ldr	r0, [r7, #20]
 800588a:	f7ff feeb 	bl	8005664 <xQueueGenericCreateStatic>
 800588e:	60f8      	str	r0, [r7, #12]
 8005890:	68f8      	ldr	r0, [r7, #12]
 8005892:	f7ff ffb8 	bl	8005806 <prvInitialiseMutex>
 8005896:	68fb      	ldr	r3, [r7, #12]
 8005898:	4618      	mov	r0, r3
 800589a:	3718      	adds	r7, #24
 800589c:	46bd      	mov	sp, r7
 800589e:	bd80      	pop	{r7, pc}

080058a0 <xQueueGenericSend>:
 80058a0:	b580      	push	{r7, lr}
 80058a2:	b08e      	sub	sp, #56	; 0x38
 80058a4:	af00      	add	r7, sp, #0
 80058a6:	60f8      	str	r0, [r7, #12]
 80058a8:	60b9      	str	r1, [r7, #8]
 80058aa:	607a      	str	r2, [r7, #4]
 80058ac:	603b      	str	r3, [r7, #0]
 80058ae:	2300      	movs	r3, #0
 80058b0:	637b      	str	r3, [r7, #52]	; 0x34
 80058b2:	68fb      	ldr	r3, [r7, #12]
 80058b4:	633b      	str	r3, [r7, #48]	; 0x30
 80058b6:	6b3b      	ldr	r3, [r7, #48]	; 0x30
 80058b8:	2b00      	cmp	r3, #0
 80058ba:	d10a      	bne.n	80058d2 <xQueueGenericSend+0x32>
 80058bc:	f04f 0350 	mov.w	r3, #80	; 0x50
 80058c0:	f383 8811 	msr	BASEPRI, r3
 80058c4:	f3bf 8f6f 	isb	sy
 80058c8:	f3bf 8f4f 	dsb	sy
 80058cc:	62bb      	str	r3, [r7, #40]	; 0x28
 80058ce:	bf00      	nop
 80058d0:	e7fe      	b.n	80058d0 <xQueueGenericSend+0x30>
 80058d2:	68bb      	ldr	r3, [r7, #8]
 80058d4:	2b00      	cmp	r3, #0
 80058d6:	d103      	bne.n	80058e0 <xQueueGenericSend+0x40>
 80058d8:	6b3b      	ldr	r3, [r7, #48]	; 0x30
 80058da:	6c1b      	ldr	r3, [r3, #64]	; 0x40
 80058dc:	2b00      	cmp	r3, #0
 80058de:	d101      	bne.n	80058e4 <xQueueGenericSend+0x44>
 80058e0:	2301      	movs	r3, #1
 80058e2:	e000      	b.n	80058e6 <xQueueGenericSend+0x46>
 80058e4:	2300      	movs	r3, #0
 80058e6:	2b00      	cmp	r3, #0
 80058e8:	d10a      	bne.n	8005900 <xQueueGenericSend+0x60>
 80058ea:	f04f 0350 	mov.w	r3, #80	; 0x50
 80058ee:	f383 8811 	msr	BASEPRI, r3
 80058f2:	f3bf 8f6f 	isb	sy
 80058f6:	f3bf 8f4f 	dsb	sy
 80058fa:	627b      	str	r3, [r7, #36]	; 0x24
 80058fc:	bf00      	nop
 80058fe:	e7fe      	b.n	80058fe <xQueueGenericSend+0x5e>
 8005900:	683b      	ldr	r3, [r7, #0]
 8005902:	2b02      	cmp	r3, #2
 8005904:	d103      	bne.n	800590e <xQueueGenericSend+0x6e>
 8005906:	6b3b      	ldr	r3, [r7, #48]	; 0x30
 8005908:	6bdb      	ldr	r3, [r3, #60]	; 0x3c
 800590a:	2b01      	cmp	r3, #1
 800590c:	d101      	bne.n	8005912 <xQueueGenericSend+0x72>
 800590e:	2301      	movs	r3, #1
 8005910:	e000      	b.n	8005914 <xQueueGenericSend+0x74>
 8005912:	2300      	movs	r3, #0
 8005914:	2b00      	cmp	r3, #0
 8005916:	d10a      	bne.n	800592e <xQueueGenericSend+0x8e>
 8005918:	f04f 0350 	mov.w	r3, #80	; 0x50
 800591c:	f383 8811 	msr	BASEPRI, r3
 8005920:	f3bf 8f6f 	isb	sy
 8005924:	f3bf 8f4f 	dsb	sy
 8005928:	623b      	str	r3, [r7, #32]
 800592a:	bf00      	nop
 800592c:	e7fe      	b.n	800592c <xQueueGenericSend+0x8c>
 800592e:	f000 ff4f 	bl	80067d0 <xTaskGetSchedulerState>
 8005932:	4603      	mov	r3, r0
 8005934:	2b00      	cmp	r3, #0
 8005936:	d102      	bne.n	800593e <xQueueGenericSend+0x9e>
 8005938:	687b      	ldr	r3, [r7, #4]
 800593a:	2b00      	cmp	r3, #0
 800593c:	d101      	bne.n	8005942 <xQueueGenericSend+0xa2>
 800593e:	2301      	movs	r3, #1
 8005940:	e000      	b.n	8005944 <xQueueGenericSend+0xa4>
 8005942:	2300      	movs	r3, #0
 8005944:	2b00      	cmp	r3, #0
 8005946:	d10a      	bne.n	800595e <xQueueGenericSend+0xbe>
 8005948:	f04f 0350 	mov.w	r3, #80	; 0x50
 800594c:	f383 8811 	msr	BASEPRI, r3
 8005950:	f3bf 8f6f 	isb	sy
 8005954:	f3bf 8f4f 	dsb	sy
 8005958:	61fb      	str	r3, [r7, #28]
 800595a:	bf00      	nop
 800595c:	e7fe      	b.n	800595c <xQueueGenericSend+0xbc>
 800595e:	f001 f971 	bl	8006c44 <vPortEnterCritical>
 8005962:	6b3b      	ldr	r3, [r7, #48]	; 0x30
 8005964:	6b9a      	ldr	r2, [r3, #56]	; 0x38
 8005966:	6b3b      	ldr	r3, [r7, #48]	; 0x30
 8005968:	6bdb      	ldr	r3, [r3, #60]	; 0x3c
 800596a:	429a      	cmp	r2, r3
 800596c:	d302      	bcc.n	8005974 <xQueueGenericSend+0xd4>
 800596e:	683b      	ldr	r3, [r7, #0]
 8005970:	2b02      	cmp	r3, #2
 8005972:	d129      	bne.n	80059c8 <xQueueGenericSend+0x128>
 8005974:	683a      	ldr	r2, [r7, #0]
 8005976:	68b9      	ldr	r1, [r7, #8]
 8005978:	6b38      	ldr	r0, [r7, #48]	; 0x30
 800597a:	f000 f88f 	bl	8005a9c <prvCopyDataToQueue>
 800597e:	62f8      	str	r0, [r7, #44]	; 0x2c
 8005980:	6b3b      	ldr	r3, [r7, #48]	; 0x30
 8005982:	6a5b      	ldr	r3, [r3, #36]	; 0x24
 8005984:	2b00      	cmp	r3, #0
 8005986:	d010      	beq.n	80059aa <xQueueGenericSend+0x10a>
 8005988:	6b3b      	ldr	r3, [r7, #48]	; 0x30
 800598a:	3324      	adds	r3, #36	; 0x24
 800598c:	4618      	mov	r0, r3
 800598e:	f000 fd63 	bl	8006458 <xTaskRemoveFromEventList>
 8005992:	4603      	mov	r3, r0
 8005994:	2b00      	cmp	r3, #0
 8005996:	d013      	beq.n	80059c0 <xQueueGenericSend+0x120>
 8005998:	4b3f      	ldr	r3, [pc, #252]	; (8005a98 <xQueueGenericSend+0x1f8>)
 800599a:	f04f 5280 	mov.w	r2, #268435456	; 0x10000000
 800599e:	601a      	str	r2, [r3, #0]
 80059a0:	f3bf 8f4f 	dsb	sy
 80059a4:	f3bf 8f6f 	isb	sy
 80059a8:	e00a      	b.n	80059c0 <xQueueGenericSend+0x120>
 80059aa:	6afb      	ldr	r3, [r7, #44]	; 0x2c
 80059ac:	2b00      	cmp	r3, #0
 80059ae:	d007      	beq.n	80059c0 <xQueueGenericSend+0x120>
 80059b0:	4b39      	ldr	r3, [pc, #228]	; (8005a98 <xQueueGenericSend+0x1f8>)
 80059b2:	f04f 5280 	mov.w	r2, #268435456	; 0x10000000
 80059b6:	601a      	str	r2, [r3, #0]
 80059b8:	f3bf 8f4f 	dsb	sy
 80059bc:	f3bf 8f6f 	isb	sy
 80059c0:	f001 f970 	bl	8006ca4 <vPortExitCritical>
 80059c4:	2301      	movs	r3, #1
 80059c6:	e063      	b.n	8005a90 <xQueueGenericSend+0x1f0>
 80059c8:	687b      	ldr	r3, [r7, #4]
 80059ca:	2b00      	cmp	r3, #0
 80059cc:	d103      	bne.n	80059d6 <xQueueGenericSend+0x136>
 80059ce:	f001 f969 	bl	8006ca4 <vPortExitCritical>
 80059d2:	2300      	movs	r3, #0
 80059d4:	e05c      	b.n	8005a90 <xQueueGenericSend+0x1f0>
 80059d6:	6b7b      	ldr	r3, [r7, #52]	; 0x34
 80059d8:	2b00      	cmp	r3, #0
 80059da:	d106      	bne.n	80059ea <xQueueGenericSend+0x14a>
 80059dc:	f107 0314 	add.w	r3, r7, #20
 80059e0:	4618      	mov	r0, r3
 80059e2:	f000 fd9b 	bl	800651c <vTaskInternalSetTimeOutState>
 80059e6:	2301      	movs	r3, #1
 80059e8:	637b      	str	r3, [r7, #52]	; 0x34
 80059ea:	f001 f95b 	bl	8006ca4 <vPortExitCritical>
 80059ee:	f000 fb51 	bl	8006094 <vTaskSuspendAll>
 80059f2:	f001 f927 	bl	8006c44 <vPortEnterCritical>
 80059f6:	6b3b      	ldr	r3, [r7, #48]	; 0x30
 80059f8:	f893 3044 	ldrb.w	r3, [r3, #68]	; 0x44
 80059fc:	b25b      	sxtb	r3, r3
 80059fe:	f1b3 3fff 	cmp.w	r3, #4294967295
 8005a02:	d103      	bne.n	8005a0c <xQueueGenericSend+0x16c>
 8005a04:	6b3b      	ldr	r3, [r7, #48]	; 0x30
 8005a06:	2200      	movs	r2, #0
 8005a08:	f883 2044 	strb.w	r2, [r3, #68]	; 0x44
 8005a0c:	6b3b      	ldr	r3, [r7, #48]	; 0x30
 8005a0e:	f893 3045 	ldrb.w	r3, [r3, #69]	; 0x45
 8005a12:	b25b      	sxtb	r3, r3
 8005a14:	f1b3 3fff 	cmp.w	r3, #4294967295
 8005a18:	d103      	bne.n	8005a22 <xQueueGenericSend+0x182>
 8005a1a:	6b3b      	ldr	r3, [r7, #48]	; 0x30
 8005a1c:	2200      	movs	r2, #0
 8005a1e:	f883 2045 	strb.w	r2, [r3, #69]	; 0x45
 8005a22:	f001 f93f 	bl	8006ca4 <vPortExitCritical>
 8005a26:	1d3a      	adds	r2, r7, #4
 8005a28:	f107 0314 	add.w	r3, r7, #20
 8005a2c:	4611      	mov	r1, r2
 8005a2e:	4618      	mov	r0, r3
 8005a30:	f000 fd8a 	bl	8006548 <xTaskCheckForTimeOut>
 8005a34:	4603      	mov	r3, r0
 8005a36:	2b00      	cmp	r3, #0
 8005a38:	d124      	bne.n	8005a84 <xQueueGenericSend+0x1e4>
 8005a3a:	6b38      	ldr	r0, [r7, #48]	; 0x30
 8005a3c:	f000 f8ea 	bl	8005c14 <prvIsQueueFull>
 8005a40:	4603      	mov	r3, r0
 8005a42:	2b00      	cmp	r3, #0
 8005a44:	d018      	beq.n	8005a78 <xQueueGenericSend+0x1d8>
 8005a46:	6b3b      	ldr	r3, [r7, #48]	; 0x30
 8005a48:	3310      	adds	r3, #16
 8005a4a:	687a      	ldr	r2, [r7, #4]
 8005a4c:	4611      	mov	r1, r2
 8005a4e:	4618      	mov	r0, r3
 8005a50:	f000 fcde 	bl	8006410 <vTaskPlaceOnEventList>
 8005a54:	6b38      	ldr	r0, [r7, #48]	; 0x30
 8005a56:	f000 f88b 	bl	8005b70 <prvUnlockQueue>
 8005a5a:	f000 fb29 	bl	80060b0 <xTaskResumeAll>
 8005a5e:	4603      	mov	r3, r0
 8005a60:	2b00      	cmp	r3, #0
 8005a62:	f47f af7c 	bne.w	800595e <xQueueGenericSend+0xbe>
 8005a66:	4b0c      	ldr	r3, [pc, #48]	; (8005a98 <xQueueGenericSend+0x1f8>)
 8005a68:	f04f 5280 	mov.w	r2, #268435456	; 0x10000000
 8005a6c:	601a      	str	r2, [r3, #0]
 8005a6e:	f3bf 8f4f 	dsb	sy
 8005a72:	f3bf 8f6f 	isb	sy
 8005a76:	e772      	b.n	800595e <xQueueGenericSend+0xbe>
 8005a78:	6b38      	ldr	r0, [r7, #48]	; 0x30
 8005a7a:	f000 f879 	bl	8005b70 <prvUnlockQueue>
 8005a7e:	f000 fb17 	bl	80060b0 <xTaskResumeAll>
 8005a82:	e76c      	b.n	800595e <xQueueGenericSend+0xbe>
 8005a84:	6b38      	ldr	r0, [r7, #48]	; 0x30
 8005a86:	f000 f873 	bl	8005b70 <prvUnlockQueue>
 8005a8a:	f000 fb11 	bl	80060b0 <xTaskResumeAll>
 8005a8e:	2300      	movs	r3, #0
 8005a90:	4618      	mov	r0, r3
 8005a92:	3738      	adds	r7, #56	; 0x38
 8005a94:	46bd      	mov	sp, r7
 8005a96:	bd80      	pop	{r7, pc}
 8005a98:	e000ed04 	.word	0xe000ed04

08005a9c <prvCopyDataToQueue>:
 8005a9c:	b580      	push	{r7, lr}
 8005a9e:	b086      	sub	sp, #24
 8005aa0:	af00      	add	r7, sp, #0
 8005aa2:	60f8      	str	r0, [r7, #12]
 8005aa4:	60b9      	str	r1, [r7, #8]
 8005aa6:	607a      	str	r2, [r7, #4]
 8005aa8:	2300      	movs	r3, #0
 8005aaa:	617b      	str	r3, [r7, #20]
 8005aac:	68fb      	ldr	r3, [r7, #12]
 8005aae:	6b9b      	ldr	r3, [r3, #56]	; 0x38
 8005ab0:	613b      	str	r3, [r7, #16]
 8005ab2:	68fb      	ldr	r3, [r7, #12]
 8005ab4:	6c1b      	ldr	r3, [r3, #64]	; 0x40
 8005ab6:	2b00      	cmp	r3, #0
 8005ab8:	d10d      	bne.n	8005ad6 <prvCopyDataToQueue+0x3a>
 8005aba:	68fb      	ldr	r3, [r7, #12]
 8005abc:	681b      	ldr	r3, [r3, #0]
 8005abe:	2b00      	cmp	r3, #0
 8005ac0:	d14d      	bne.n	8005b5e <prvCopyDataToQueue+0xc2>
 8005ac2:	68fb      	ldr	r3, [r7, #12]
 8005ac4:	689b      	ldr	r3, [r3, #8]
 8005ac6:	4618      	mov	r0, r3
 8005ac8:	f000 fea0 	bl	800680c <xTaskPriorityDisinherit>
 8005acc:	6178      	str	r0, [r7, #20]
 8005ace:	68fb      	ldr	r3, [r7, #12]
 8005ad0:	2200      	movs	r2, #0
 8005ad2:	609a      	str	r2, [r3, #8]
 8005ad4:	e043      	b.n	8005b5e <prvCopyDataToQueue+0xc2>
 8005ad6:	687b      	ldr	r3, [r7, #4]
 8005ad8:	2b00      	cmp	r3, #0
 8005ada:	d119      	bne.n	8005b10 <prvCopyDataToQueue+0x74>
 8005adc:	68fb      	ldr	r3, [r7, #12]
 8005ade:	6858      	ldr	r0, [r3, #4]
 8005ae0:	68fb      	ldr	r3, [r7, #12]
 8005ae2:	6c1b      	ldr	r3, [r3, #64]	; 0x40
 8005ae4:	461a      	mov	r2, r3
 8005ae6:	68b9      	ldr	r1, [r7, #8]
 8005ae8:	f001 fb9c 	bl	8007224 <memcpy>
 8005aec:	68fb      	ldr	r3, [r7, #12]
 8005aee:	685a      	ldr	r2, [r3, #4]
 8005af0:	68fb      	ldr	r3, [r7, #12]
 8005af2:	6c1b      	ldr	r3, [r3, #64]	; 0x40
 8005af4:	441a      	add	r2, r3
 8005af6:	68fb      	ldr	r3, [r7, #12]
 8005af8:	605a      	str	r2, [r3, #4]
 8005afa:	68fb      	ldr	r3, [r7, #12]
 8005afc:	685a      	ldr	r2, [r3, #4]
 8005afe:	68fb      	ldr	r3, [r7, #12]
 8005b00:	689b      	ldr	r3, [r3, #8]
 8005b02:	429a      	cmp	r2, r3
 8005b04:	d32b      	bcc.n	8005b5e <prvCopyDataToQueue+0xc2>
 8005b06:	68fb      	ldr	r3, [r7, #12]
 8005b08:	681a      	ldr	r2, [r3, #0]
 8005b0a:	68fb      	ldr	r3, [r7, #12]
 8005b0c:	605a      	str	r2, [r3, #4]
 8005b0e:	e026      	b.n	8005b5e <prvCopyDataToQueue+0xc2>
 8005b10:	68fb      	ldr	r3, [r7, #12]
 8005b12:	68d8      	ldr	r0, [r3, #12]
 8005b14:	68fb      	ldr	r3, [r7, #12]
 8005b16:	6c1b      	ldr	r3, [r3, #64]	; 0x40
 8005b18:	461a      	mov	r2, r3
 8005b1a:	68b9      	ldr	r1, [r7, #8]
 8005b1c:	f001 fb82 	bl	8007224 <memcpy>
 8005b20:	68fb      	ldr	r3, [r7, #12]
 8005b22:	68da      	ldr	r2, [r3, #12]
 8005b24:	68fb      	ldr	r3, [r7, #12]
 8005b26:	6c1b      	ldr	r3, [r3, #64]	; 0x40
 8005b28:	425b      	negs	r3, r3
 8005b2a:	441a      	add	r2, r3
 8005b2c:	68fb      	ldr	r3, [r7, #12]
 8005b2e:	60da      	str	r2, [r3, #12]
 8005b30:	68fb      	ldr	r3, [r7, #12]
 8005b32:	68da      	ldr	r2, [r3, #12]
 8005b34:	68fb      	ldr	r3, [r7, #12]
 8005b36:	681b      	ldr	r3, [r3, #0]
 8005b38:	429a      	cmp	r2, r3
 8005b3a:	d207      	bcs.n	8005b4c <prvCopyDataToQueue+0xb0>
 8005b3c:	68fb      	ldr	r3, [r7, #12]
 8005b3e:	689a      	ldr	r2, [r3, #8]
 8005b40:	68fb      	ldr	r3, [r7, #12]
 8005b42:	6c1b      	ldr	r3, [r3, #64]	; 0x40
 8005b44:	425b      	negs	r3, r3
 8005b46:	441a      	add	r2, r3
 8005b48:	68fb      	ldr	r3, [r7, #12]
 8005b4a:	60da      	str	r2, [r3, #12]
 8005b4c:	687b      	ldr	r3, [r7, #4]
 8005b4e:	2b02      	cmp	r3, #2
 8005b50:	d105      	bne.n	8005b5e <prvCopyDataToQueue+0xc2>
 8005b52:	693b      	ldr	r3, [r7, #16]
 8005b54:	2b00      	cmp	r3, #0
 8005b56:	d002      	beq.n	8005b5e <prvCopyDataToQueue+0xc2>
 8005b58:	693b      	ldr	r3, [r7, #16]
 8005b5a:	3b01      	subs	r3, #1
 8005b5c:	613b      	str	r3, [r7, #16]
 8005b5e:	693b      	ldr	r3, [r7, #16]
 8005b60:	1c5a      	adds	r2, r3, #1
 8005b62:	68fb      	ldr	r3, [r7, #12]
 8005b64:	639a      	str	r2, [r3, #56]	; 0x38
 8005b66:	697b      	ldr	r3, [r7, #20]
 8005b68:	4618      	mov	r0, r3
 8005b6a:	3718      	adds	r7, #24
 8005b6c:	46bd      	mov	sp, r7
 8005b6e:	bd80      	pop	{r7, pc}

08005b70 <prvUnlockQueue>:
 8005b70:	b580      	push	{r7, lr}
 8005b72:	b084      	sub	sp, #16
 8005b74:	af00      	add	r7, sp, #0
 8005b76:	6078      	str	r0, [r7, #4]
 8005b78:	f001 f864 	bl	8006c44 <vPortEnterCritical>
 8005b7c:	687b      	ldr	r3, [r7, #4]
 8005b7e:	f893 3045 	ldrb.w	r3, [r3, #69]	; 0x45
 8005b82:	73fb      	strb	r3, [r7, #15]
 8005b84:	e011      	b.n	8005baa <prvUnlockQueue+0x3a>
 8005b86:	687b      	ldr	r3, [r7, #4]
 8005b88:	6a5b      	ldr	r3, [r3, #36]	; 0x24
 8005b8a:	2b00      	cmp	r3, #0
 8005b8c:	d012      	beq.n	8005bb4 <prvUnlockQueue+0x44>
 8005b8e:	687b      	ldr	r3, [r7, #4]
 8005b90:	3324      	adds	r3, #36	; 0x24
 8005b92:	4618      	mov	r0, r3
 8005b94:	f000 fc60 	bl	8006458 <xTaskRemoveFromEventList>
 8005b98:	4603      	mov	r3, r0
 8005b9a:	2b00      	cmp	r3, #0
 8005b9c:	d001      	beq.n	8005ba2 <prvUnlockQueue+0x32>
 8005b9e:	f000 fd35 	bl	800660c <vTaskMissedYield>
 8005ba2:	7bfb      	ldrb	r3, [r7, #15]
 8005ba4:	3b01      	subs	r3, #1
 8005ba6:	b2db      	uxtb	r3, r3
 8005ba8:	73fb      	strb	r3, [r7, #15]
 8005baa:	f997 300f 	ldrsb.w	r3, [r7, #15]
 8005bae:	2b00      	cmp	r3, #0
 8005bb0:	dce9      	bgt.n	8005b86 <prvUnlockQueue+0x16>
 8005bb2:	e000      	b.n	8005bb6 <prvUnlockQueue+0x46>
 8005bb4:	bf00      	nop
 8005bb6:	687b      	ldr	r3, [r7, #4]
 8005bb8:	22ff      	movs	r2, #255	; 0xff
 8005bba:	f883 2045 	strb.w	r2, [r3, #69]	; 0x45
 8005bbe:	f001 f871 	bl	8006ca4 <vPortExitCritical>
 8005bc2:	f001 f83f 	bl	8006c44 <vPortEnterCritical>
 8005bc6:	687b      	ldr	r3, [r7, #4]
 8005bc8:	f893 3044 	ldrb.w	r3, [r3, #68]	; 0x44
 8005bcc:	73bb      	strb	r3, [r7, #14]
 8005bce:	e011      	b.n	8005bf4 <prvUnlockQueue+0x84>
 8005bd0:	687b      	ldr	r3, [r7, #4]
 8005bd2:	691b      	ldr	r3, [r3, #16]
 8005bd4:	2b00      	cmp	r3, #0
 8005bd6:	d012      	beq.n	8005bfe <prvUnlockQueue+0x8e>
 8005bd8:	687b      	ldr	r3, [r7, #4]
 8005bda:	3310      	adds	r3, #16
 8005bdc:	4618      	mov	r0, r3
 8005bde:	f000 fc3b 	bl	8006458 <xTaskRemoveFromEventList>
 8005be2:	4603      	mov	r3, r0
 8005be4:	2b00      	cmp	r3, #0
 8005be6:	d001      	beq.n	8005bec <prvUnlockQueue+0x7c>
 8005be8:	f000 fd10 	bl	800660c <vTaskMissedYield>
 8005bec:	7bbb      	ldrb	r3, [r7, #14]
 8005bee:	3b01      	subs	r3, #1
 8005bf0:	b2db      	uxtb	r3, r3
 8005bf2:	73bb      	strb	r3, [r7, #14]
 8005bf4:	f997 300e 	ldrsb.w	r3, [r7, #14]
 8005bf8:	2b00      	cmp	r3, #0
 8005bfa:	dce9      	bgt.n	8005bd0 <prvUnlockQueue+0x60>
 8005bfc:	e000      	b.n	8005c00 <prvUnlockQueue+0x90>
 8005bfe:	bf00      	nop
 8005c00:	687b      	ldr	r3, [r7, #4]
 8005c02:	22ff      	movs	r2, #255	; 0xff
 8005c04:	f883 2044 	strb.w	r2, [r3, #68]	; 0x44
 8005c08:	f001 f84c 	bl	8006ca4 <vPortExitCritical>
 8005c0c:	bf00      	nop
 8005c0e:	3710      	adds	r7, #16
 8005c10:	46bd      	mov	sp, r7
 8005c12:	bd80      	pop	{r7, pc}

08005c14 <prvIsQueueFull>:
 8005c14:	b580      	push	{r7, lr}
 8005c16:	b084      	sub	sp, #16
 8005c18:	af00      	add	r7, sp, #0
 8005c1a:	6078      	str	r0, [r7, #4]
 8005c1c:	f001 f812 	bl	8006c44 <vPortEnterCritical>
 8005c20:	687b      	ldr	r3, [r7, #4]
 8005c22:	6b9a      	ldr	r2, [r3, #56]	; 0x38
 8005c24:	687b      	ldr	r3, [r7, #4]
 8005c26:	6bdb      	ldr	r3, [r3, #60]	; 0x3c
 8005c28:	429a      	cmp	r2, r3
 8005c2a:	d102      	bne.n	8005c32 <prvIsQueueFull+0x1e>
 8005c2c:	2301      	movs	r3, #1
 8005c2e:	60fb      	str	r3, [r7, #12]
 8005c30:	e001      	b.n	8005c36 <prvIsQueueFull+0x22>
 8005c32:	2300      	movs	r3, #0
 8005c34:	60fb      	str	r3, [r7, #12]
 8005c36:	f001 f835 	bl	8006ca4 <vPortExitCritical>
 8005c3a:	68fb      	ldr	r3, [r7, #12]
 8005c3c:	4618      	mov	r0, r3
 8005c3e:	3710      	adds	r7, #16
 8005c40:	46bd      	mov	sp, r7
 8005c42:	bd80      	pop	{r7, pc}

08005c44 <xTaskCreateStatic>:
 8005c44:	b580      	push	{r7, lr}
 8005c46:	b08e      	sub	sp, #56	; 0x38
 8005c48:	af04      	add	r7, sp, #16
 8005c4a:	60f8      	str	r0, [r7, #12]
 8005c4c:	60b9      	str	r1, [r7, #8]
 8005c4e:	607a      	str	r2, [r7, #4]
 8005c50:	603b      	str	r3, [r7, #0]
 8005c52:	6b7b      	ldr	r3, [r7, #52]	; 0x34
 8005c54:	2b00      	cmp	r3, #0
 8005c56:	d10a      	bne.n	8005c6e <xTaskCreateStatic+0x2a>
 8005c58:	f04f 0350 	mov.w	r3, #80	; 0x50
 8005c5c:	f383 8811 	msr	BASEPRI, r3
 8005c60:	f3bf 8f6f 	isb	sy
 8005c64:	f3bf 8f4f 	dsb	sy
 8005c68:	623b      	str	r3, [r7, #32]
 8005c6a:	bf00      	nop
 8005c6c:	e7fe      	b.n	8005c6c <xTaskCreateStatic+0x28>
 8005c6e:	6bbb      	ldr	r3, [r7, #56]	; 0x38
 8005c70:	2b00      	cmp	r3, #0
 8005c72:	d10a      	bne.n	8005c8a <xTaskCreateStatic+0x46>
 8005c74:	f04f 0350 	mov.w	r3, #80	; 0x50
 8005c78:	f383 8811 	msr	BASEPRI, r3
 8005c7c:	f3bf 8f6f 	isb	sy
 8005c80:	f3bf 8f4f 	dsb	sy
 8005c84:	61fb      	str	r3, [r7, #28]
 8005c86:	bf00      	nop
 8005c88:	e7fe      	b.n	8005c88 <xTaskCreateStatic+0x44>
 8005c8a:	2354      	movs	r3, #84	; 0x54
 8005c8c:	613b      	str	r3, [r7, #16]
 8005c8e:	693b      	ldr	r3, [r7, #16]
 8005c90:	2b54      	cmp	r3, #84	; 0x54
 8005c92:	d00a      	beq.n	8005caa <xTaskCreateStatic+0x66>
 8005c94:	f04f 0350 	mov.w	r3, #80	; 0x50
 8005c98:	f383 8811 	msr	BASEPRI, r3
 8005c9c:	f3bf 8f6f 	isb	sy
 8005ca0:	f3bf 8f4f 	dsb	sy
 8005ca4:	61bb      	str	r3, [r7, #24]
 8005ca6:	bf00      	nop
 8005ca8:	e7fe      	b.n	8005ca8 <xTaskCreateStatic+0x64>
 8005caa:	693b      	ldr	r3, [r7, #16]
 8005cac:	6bbb      	ldr	r3, [r7, #56]	; 0x38
 8005cae:	2b00      	cmp	r3, #0
 8005cb0:	d01e      	beq.n	8005cf0 <xTaskCreateStatic+0xac>
 8005cb2:	6b7b      	ldr	r3, [r7, #52]	; 0x34
 8005cb4:	2b00      	cmp	r3, #0
 8005cb6:	d01b      	beq.n	8005cf0 <xTaskCreateStatic+0xac>
 8005cb8:	6bbb      	ldr	r3, [r7, #56]	; 0x38
 8005cba:	627b      	str	r3, [r7, #36]	; 0x24
 8005cbc:	6a7b      	ldr	r3, [r7, #36]	; 0x24
 8005cbe:	6b7a      	ldr	r2, [r7, #52]	; 0x34
 8005cc0:	631a      	str	r2, [r3, #48]	; 0x30
 8005cc2:	6a7b      	ldr	r3, [r7, #36]	; 0x24
 8005cc4:	2202      	movs	r2, #2
 8005cc6:	f883 2051 	strb.w	r2, [r3, #81]	; 0x51
 8005cca:	2300      	movs	r3, #0
 8005ccc:	9303      	str	r3, [sp, #12]
 8005cce:	6a7b      	ldr	r3, [r7, #36]	; 0x24
 8005cd0:	9302      	str	r3, [sp, #8]
 8005cd2:	f107 0314 	add.w	r3, r7, #20
 8005cd6:	9301      	str	r3, [sp, #4]
 8005cd8:	6b3b      	ldr	r3, [r7, #48]	; 0x30
 8005cda:	9300      	str	r3, [sp, #0]
 8005cdc:	683b      	ldr	r3, [r7, #0]
 8005cde:	687a      	ldr	r2, [r7, #4]
 8005ce0:	68b9      	ldr	r1, [r7, #8]
 8005ce2:	68f8      	ldr	r0, [r7, #12]
 8005ce4:	f000 f850 	bl	8005d88 <prvInitialiseNewTask>
 8005ce8:	6a78      	ldr	r0, [r7, #36]	; 0x24
 8005cea:	f000 f8d5 	bl	8005e98 <prvAddNewTaskToReadyList>
 8005cee:	e001      	b.n	8005cf4 <xTaskCreateStatic+0xb0>
 8005cf0:	2300      	movs	r3, #0
 8005cf2:	617b      	str	r3, [r7, #20]
 8005cf4:	697b      	ldr	r3, [r7, #20]
 8005cf6:	4618      	mov	r0, r3
 8005cf8:	3728      	adds	r7, #40	; 0x28
 8005cfa:	46bd      	mov	sp, r7
 8005cfc:	bd80      	pop	{r7, pc}

08005cfe <xTaskCreate>:
 8005cfe:	b580      	push	{r7, lr}
 8005d00:	b08c      	sub	sp, #48	; 0x30
 8005d02:	af04      	add	r7, sp, #16
 8005d04:	60f8      	str	r0, [r7, #12]
 8005d06:	60b9      	str	r1, [r7, #8]
 8005d08:	603b      	str	r3, [r7, #0]
 8005d0a:	4613      	mov	r3, r2
 8005d0c:	80fb      	strh	r3, [r7, #6]
 8005d0e:	88fb      	ldrh	r3, [r7, #6]
 8005d10:	009b      	lsls	r3, r3, #2
 8005d12:	4618      	mov	r0, r3
 8005d14:	f001 f878 	bl	8006e08 <pvPortMalloc>
 8005d18:	6178      	str	r0, [r7, #20]
 8005d1a:	697b      	ldr	r3, [r7, #20]
 8005d1c:	2b00      	cmp	r3, #0
 8005d1e:	d00e      	beq.n	8005d3e <xTaskCreate+0x40>
 8005d20:	2054      	movs	r0, #84	; 0x54
 8005d22:	f001 f871 	bl	8006e08 <pvPortMalloc>
 8005d26:	61f8      	str	r0, [r7, #28]
 8005d28:	69fb      	ldr	r3, [r7, #28]
 8005d2a:	2b00      	cmp	r3, #0
 8005d2c:	d003      	beq.n	8005d36 <xTaskCreate+0x38>
 8005d2e:	69fb      	ldr	r3, [r7, #28]
 8005d30:	697a      	ldr	r2, [r7, #20]
 8005d32:	631a      	str	r2, [r3, #48]	; 0x30
 8005d34:	e005      	b.n	8005d42 <xTaskCreate+0x44>
 8005d36:	6978      	ldr	r0, [r7, #20]
 8005d38:	f001 f932 	bl	8006fa0 <vPortFree>
 8005d3c:	e001      	b.n	8005d42 <xTaskCreate+0x44>
 8005d3e:	2300      	movs	r3, #0
 8005d40:	61fb      	str	r3, [r7, #28]
 8005d42:	69fb      	ldr	r3, [r7, #28]
 8005d44:	2b00      	cmp	r3, #0
 8005d46:	d017      	beq.n	8005d78 <xTaskCreate+0x7a>
 8005d48:	69fb      	ldr	r3, [r7, #28]
 8005d4a:	2200      	movs	r2, #0
 8005d4c:	f883 2051 	strb.w	r2, [r3, #81]	; 0x51
 8005d50:	88fa      	ldrh	r2, [r7, #6]
 8005d52:	2300      	movs	r3, #0
 8005d54:	9303      	str	r3, [sp, #12]
 8005d56:	69fb      	ldr	r3, [r7, #28]
 8005d58:	9302      	str	r3, [sp, #8]
 8005d5a:	6afb      	ldr	r3, [r7, #44]	; 0x2c
 8005d5c:	9301      	str	r3, [sp, #4]
 8005d5e:	6abb      	ldr	r3, [r7, #40]	; 0x28
 8005d60:	9300      	str	r3, [sp, #0]
 8005d62:	683b      	ldr	r3, [r7, #0]
 8005d64:	68b9      	ldr	r1, [r7, #8]
 8005d66:	68f8      	ldr	r0, [r7, #12]
 8005d68:	f000 f80e 	bl	8005d88 <prvInitialiseNewTask>
 8005d6c:	69f8      	ldr	r0, [r7, #28]
 8005d6e:	f000 f893 	bl	8005e98 <prvAddNewTaskToReadyList>
 8005d72:	2301      	movs	r3, #1
 8005d74:	61bb      	str	r3, [r7, #24]
 8005d76:	e002      	b.n	8005d7e <xTaskCreate+0x80>
 8005d78:	f04f 33ff 	mov.w	r3, #4294967295
 8005d7c:	61bb      	str	r3, [r7, #24]
 8005d7e:	69bb      	ldr	r3, [r7, #24]
 8005d80:	4618      	mov	r0, r3
 8005d82:	3720      	adds	r7, #32
 8005d84:	46bd      	mov	sp, r7
 8005d86:	bd80      	pop	{r7, pc}

08005d88 <prvInitialiseNewTask>:
 8005d88:	b580      	push	{r7, lr}
 8005d8a:	b088      	sub	sp, #32
 8005d8c:	af00      	add	r7, sp, #0
 8005d8e:	60f8      	str	r0, [r7, #12]
 8005d90:	60b9      	str	r1, [r7, #8]
 8005d92:	607a      	str	r2, [r7, #4]
 8005d94:	603b      	str	r3, [r7, #0]
 8005d96:	6b3b      	ldr	r3, [r7, #48]	; 0x30
 8005d98:	6b1a      	ldr	r2, [r3, #48]	; 0x30
 8005d9a:	687b      	ldr	r3, [r7, #4]
 8005d9c:	f103 4380 	add.w	r3, r3, #1073741824	; 0x40000000
 8005da0:	3b01      	subs	r3, #1
 8005da2:	009b      	lsls	r3, r3, #2
 8005da4:	4413      	add	r3, r2
 8005da6:	61bb      	str	r3, [r7, #24]
 8005da8:	69bb      	ldr	r3, [r7, #24]
 8005daa:	f023 0307 	bic.w	r3, r3, #7
 8005dae:	61bb      	str	r3, [r7, #24]
 8005db0:	69bb      	ldr	r3, [r7, #24]
 8005db2:	f003 0307 	and.w	r3, r3, #7
 8005db6:	2b00      	cmp	r3, #0
 8005db8:	d00a      	beq.n	8005dd0 <prvInitialiseNewTask+0x48>
 8005dba:	f04f 0350 	mov.w	r3, #80	; 0x50
 8005dbe:	f383 8811 	msr	BASEPRI, r3
 8005dc2:	f3bf 8f6f 	isb	sy
 8005dc6:	f3bf 8f4f 	dsb	sy
 8005dca:	617b      	str	r3, [r7, #20]
 8005dcc:	bf00      	nop
 8005dce:	e7fe      	b.n	8005dce <prvInitialiseNewTask+0x46>
 8005dd0:	68bb      	ldr	r3, [r7, #8]
 8005dd2:	2b00      	cmp	r3, #0
 8005dd4:	d01f      	beq.n	8005e16 <prvInitialiseNewTask+0x8e>
 8005dd6:	2300      	movs	r3, #0
 8005dd8:	61fb      	str	r3, [r7, #28]
 8005dda:	e012      	b.n	8005e02 <prvInitialiseNewTask+0x7a>
 8005ddc:	68ba      	ldr	r2, [r7, #8]
 8005dde:	69fb      	ldr	r3, [r7, #28]
 8005de0:	4413      	add	r3, r2
 8005de2:	7819      	ldrb	r1, [r3, #0]
 8005de4:	6b3a      	ldr	r2, [r7, #48]	; 0x30
 8005de6:	69fb      	ldr	r3, [r7, #28]
 8005de8:	4413      	add	r3, r2
 8005dea:	3334      	adds	r3, #52	; 0x34
 8005dec:	460a      	mov	r2, r1
 8005dee:	701a      	strb	r2, [r3, #0]
 8005df0:	68ba      	ldr	r2, [r7, #8]
 8005df2:	69fb      	ldr	r3, [r7, #28]
 8005df4:	4413      	add	r3, r2
 8005df6:	781b      	ldrb	r3, [r3, #0]
 8005df8:	2b00      	cmp	r3, #0
 8005dfa:	d006      	beq.n	8005e0a <prvInitialiseNewTask+0x82>
 8005dfc:	69fb      	ldr	r3, [r7, #28]
 8005dfe:	3301      	adds	r3, #1
 8005e00:	61fb      	str	r3, [r7, #28]
 8005e02:	69fb      	ldr	r3, [r7, #28]
 8005e04:	2b0f      	cmp	r3, #15
 8005e06:	d9e9      	bls.n	8005ddc <prvInitialiseNewTask+0x54>
 8005e08:	e000      	b.n	8005e0c <prvInitialiseNewTask+0x84>
 8005e0a:	bf00      	nop
 8005e0c:	6b3b      	ldr	r3, [r7, #48]	; 0x30
 8005e0e:	2200      	movs	r2, #0
 8005e10:	f883 2043 	strb.w	r2, [r3, #67]	; 0x43
 8005e14:	e003      	b.n	8005e1e <prvInitialiseNewTask+0x96>
 8005e16:	6b3b      	ldr	r3, [r7, #48]	; 0x30
 8005e18:	2200      	movs	r2, #0
 8005e1a:	f883 2034 	strb.w	r2, [r3, #52]	; 0x34
 8005e1e:	6abb      	ldr	r3, [r7, #40]	; 0x28
 8005e20:	2b06      	cmp	r3, #6
 8005e22:	d901      	bls.n	8005e28 <prvInitialiseNewTask+0xa0>
 8005e24:	2306      	movs	r3, #6
 8005e26:	62bb      	str	r3, [r7, #40]	; 0x28
 8005e28:	6b3b      	ldr	r3, [r7, #48]	; 0x30
 8005e2a:	6aba      	ldr	r2, [r7, #40]	; 0x28
 8005e2c:	62da      	str	r2, [r3, #44]	; 0x2c
 8005e2e:	6b3b      	ldr	r3, [r7, #48]	; 0x30
 8005e30:	6aba      	ldr	r2, [r7, #40]	; 0x28
 8005e32:	645a      	str	r2, [r3, #68]	; 0x44
 8005e34:	6b3b      	ldr	r3, [r7, #48]	; 0x30
 8005e36:	2200      	movs	r2, #0
 8005e38:	649a      	str	r2, [r3, #72]	; 0x48
 8005e3a:	6b3b      	ldr	r3, [r7, #48]	; 0x30
 8005e3c:	3304      	adds	r3, #4
 8005e3e:	4618      	mov	r0, r3
 8005e40:	f7ff fb14 	bl	800546c <vListInitialiseItem>
 8005e44:	6b3b      	ldr	r3, [r7, #48]	; 0x30
 8005e46:	3318      	adds	r3, #24
 8005e48:	4618      	mov	r0, r3
 8005e4a:	f7ff fb0f 	bl	800546c <vListInitialiseItem>
 8005e4e:	6b3b      	ldr	r3, [r7, #48]	; 0x30
 8005e50:	6b3a      	ldr	r2, [r7, #48]	; 0x30
 8005e52:	611a      	str	r2, [r3, #16]
 8005e54:	6abb      	ldr	r3, [r7, #40]	; 0x28
 8005e56:	f1c3 0207 	rsb	r2, r3, #7
 8005e5a:	6b3b      	ldr	r3, [r7, #48]	; 0x30
 8005e5c:	619a      	str	r2, [r3, #24]
 8005e5e:	6b3b      	ldr	r3, [r7, #48]	; 0x30
 8005e60:	6b3a      	ldr	r2, [r7, #48]	; 0x30
 8005e62:	625a      	str	r2, [r3, #36]	; 0x24
 8005e64:	6b3b      	ldr	r3, [r7, #48]	; 0x30
 8005e66:	2200      	movs	r2, #0
 8005e68:	64da      	str	r2, [r3, #76]	; 0x4c
 8005e6a:	6b3b      	ldr	r3, [r7, #48]	; 0x30
 8005e6c:	2200      	movs	r2, #0
 8005e6e:	f883 2050 	strb.w	r2, [r3, #80]	; 0x50
 8005e72:	683a      	ldr	r2, [r7, #0]
 8005e74:	68f9      	ldr	r1, [r7, #12]
 8005e76:	69b8      	ldr	r0, [r7, #24]
 8005e78:	f000 fdb4 	bl	80069e4 <pxPortInitialiseStack>
 8005e7c:	4602      	mov	r2, r0
 8005e7e:	6b3b      	ldr	r3, [r7, #48]	; 0x30
 8005e80:	601a      	str	r2, [r3, #0]
 8005e82:	6afb      	ldr	r3, [r7, #44]	; 0x2c
 8005e84:	2b00      	cmp	r3, #0
 8005e86:	d002      	beq.n	8005e8e <prvInitialiseNewTask+0x106>
 8005e88:	6afb      	ldr	r3, [r7, #44]	; 0x2c
 8005e8a:	6b3a      	ldr	r2, [r7, #48]	; 0x30
 8005e8c:	601a      	str	r2, [r3, #0]
 8005e8e:	bf00      	nop
 8005e90:	3720      	adds	r7, #32
 8005e92:	46bd      	mov	sp, r7
 8005e94:	bd80      	pop	{r7, pc}
	...

08005e98 <prvAddNewTaskToReadyList>:
 8005e98:	b580      	push	{r7, lr}
 8005e9a:	b082      	sub	sp, #8
 8005e9c:	af00      	add	r7, sp, #0
 8005e9e:	6078      	str	r0, [r7, #4]
 8005ea0:	f000 fed0 	bl	8006c44 <vPortEnterCritical>
 8005ea4:	4b2a      	ldr	r3, [pc, #168]	; (8005f50 <prvAddNewTaskToReadyList+0xb8>)
 8005ea6:	681b      	ldr	r3, [r3, #0]
 8005ea8:	3301      	adds	r3, #1
 8005eaa:	4a29      	ldr	r2, [pc, #164]	; (8005f50 <prvAddNewTaskToReadyList+0xb8>)
 8005eac:	6013      	str	r3, [r2, #0]
 8005eae:	4b29      	ldr	r3, [pc, #164]	; (8005f54 <prvAddNewTaskToReadyList+0xbc>)
 8005eb0:	681b      	ldr	r3, [r3, #0]
 8005eb2:	2b00      	cmp	r3, #0
 8005eb4:	d109      	bne.n	8005eca <prvAddNewTaskToReadyList+0x32>
 8005eb6:	4a27      	ldr	r2, [pc, #156]	; (8005f54 <prvAddNewTaskToReadyList+0xbc>)
 8005eb8:	687b      	ldr	r3, [r7, #4]
 8005eba:	6013      	str	r3, [r2, #0]
 8005ebc:	4b24      	ldr	r3, [pc, #144]	; (8005f50 <prvAddNewTaskToReadyList+0xb8>)
 8005ebe:	681b      	ldr	r3, [r3, #0]
 8005ec0:	2b01      	cmp	r3, #1
 8005ec2:	d110      	bne.n	8005ee6 <prvAddNewTaskToReadyList+0x4e>
 8005ec4:	f000 fbc6 	bl	8006654 <prvInitialiseTaskLists>
 8005ec8:	e00d      	b.n	8005ee6 <prvAddNewTaskToReadyList+0x4e>
 8005eca:	4b23      	ldr	r3, [pc, #140]	; (8005f58 <prvAddNewTaskToReadyList+0xc0>)
 8005ecc:	681b      	ldr	r3, [r3, #0]
 8005ece:	2b00      	cmp	r3, #0
 8005ed0:	d109      	bne.n	8005ee6 <prvAddNewTaskToReadyList+0x4e>
 8005ed2:	4b20      	ldr	r3, [pc, #128]	; (8005f54 <prvAddNewTaskToReadyList+0xbc>)
 8005ed4:	681b      	ldr	r3, [r3, #0]
 8005ed6:	6ada      	ldr	r2, [r3, #44]	; 0x2c
 8005ed8:	687b      	ldr	r3, [r7, #4]
 8005eda:	6adb      	ldr	r3, [r3, #44]	; 0x2c
 8005edc:	429a      	cmp	r2, r3
 8005ede:	d802      	bhi.n	8005ee6 <prvAddNewTaskToReadyList+0x4e>
 8005ee0:	4a1c      	ldr	r2, [pc, #112]	; (8005f54 <prvAddNewTaskToReadyList+0xbc>)
 8005ee2:	687b      	ldr	r3, [r7, #4]
 8005ee4:	6013      	str	r3, [r2, #0]
 8005ee6:	4b1d      	ldr	r3, [pc, #116]	; (8005f5c <prvAddNewTaskToReadyList+0xc4>)
 8005ee8:	681b      	ldr	r3, [r3, #0]
 8005eea:	3301      	adds	r3, #1
 8005eec:	4a1b      	ldr	r2, [pc, #108]	; (8005f5c <prvAddNewTaskToReadyList+0xc4>)
 8005eee:	6013      	str	r3, [r2, #0]
 8005ef0:	687b      	ldr	r3, [r7, #4]
 8005ef2:	6adb      	ldr	r3, [r3, #44]	; 0x2c
 8005ef4:	2201      	movs	r2, #1
 8005ef6:	409a      	lsls	r2, r3
 8005ef8:	4b19      	ldr	r3, [pc, #100]	; (8005f60 <prvAddNewTaskToReadyList+0xc8>)
 8005efa:	681b      	ldr	r3, [r3, #0]
 8005efc:	4313      	orrs	r3, r2
 8005efe:	4a18      	ldr	r2, [pc, #96]	; (8005f60 <prvAddNewTaskToReadyList+0xc8>)
 8005f00:	6013      	str	r3, [r2, #0]
 8005f02:	687b      	ldr	r3, [r7, #4]
 8005f04:	6ada      	ldr	r2, [r3, #44]	; 0x2c
 8005f06:	4613      	mov	r3, r2
 8005f08:	009b      	lsls	r3, r3, #2
 8005f0a:	4413      	add	r3, r2
 8005f0c:	009b      	lsls	r3, r3, #2
 8005f0e:	4a15      	ldr	r2, [pc, #84]	; (8005f64 <prvAddNewTaskToReadyList+0xcc>)
 8005f10:	441a      	add	r2, r3
 8005f12:	687b      	ldr	r3, [r7, #4]
 8005f14:	3304      	adds	r3, #4
 8005f16:	4619      	mov	r1, r3
 8005f18:	4610      	mov	r0, r2
 8005f1a:	f7ff fab4 	bl	8005486 <vListInsertEnd>
 8005f1e:	f000 fec1 	bl	8006ca4 <vPortExitCritical>
 8005f22:	4b0d      	ldr	r3, [pc, #52]	; (8005f58 <prvAddNewTaskToReadyList+0xc0>)
 8005f24:	681b      	ldr	r3, [r3, #0]
 8005f26:	2b00      	cmp	r3, #0
 8005f28:	d00e      	beq.n	8005f48 <prvAddNewTaskToReadyList+0xb0>
 8005f2a:	4b0a      	ldr	r3, [pc, #40]	; (8005f54 <prvAddNewTaskToReadyList+0xbc>)
 8005f2c:	681b      	ldr	r3, [r3, #0]
 8005f2e:	6ada      	ldr	r2, [r3, #44]	; 0x2c
 8005f30:	687b      	ldr	r3, [r7, #4]
 8005f32:	6adb      	ldr	r3, [r3, #44]	; 0x2c
 8005f34:	429a      	cmp	r2, r3
 8005f36:	d207      	bcs.n	8005f48 <prvAddNewTaskToReadyList+0xb0>
 8005f38:	4b0b      	ldr	r3, [pc, #44]	; (8005f68 <prvAddNewTaskToReadyList+0xd0>)
 8005f3a:	f04f 5280 	mov.w	r2, #268435456	; 0x10000000
 8005f3e:	601a      	str	r2, [r3, #0]
 8005f40:	f3bf 8f4f 	dsb	sy
 8005f44:	f3bf 8f6f 	isb	sy
 8005f48:	bf00      	nop
 8005f4a:	3708      	adds	r7, #8
 8005f4c:	46bd      	mov	sp, r7
 8005f4e:	bd80      	pop	{r7, pc}
 8005f50:	20000380 	.word	0x20000380
 8005f54:	20000280 	.word	0x20000280
 8005f58:	2000038c 	.word	0x2000038c
 8005f5c:	2000039c 	.word	0x2000039c
 8005f60:	20000388 	.word	0x20000388
 8005f64:	20000284 	.word	0x20000284
 8005f68:	e000ed04 	.word	0xe000ed04

08005f6c <vTaskDelay>:
 8005f6c:	b580      	push	{r7, lr}
 8005f6e:	b084      	sub	sp, #16
 8005f70:	af00      	add	r7, sp, #0
 8005f72:	6078      	str	r0, [r7, #4]
 8005f74:	2300      	movs	r3, #0
 8005f76:	60fb      	str	r3, [r7, #12]
 8005f78:	687b      	ldr	r3, [r7, #4]
 8005f7a:	2b00      	cmp	r3, #0
 8005f7c:	d017      	beq.n	8005fae <vTaskDelay+0x42>
 8005f7e:	4b13      	ldr	r3, [pc, #76]	; (8005fcc <vTaskDelay+0x60>)
 8005f80:	681b      	ldr	r3, [r3, #0]
 8005f82:	2b00      	cmp	r3, #0
 8005f84:	d00a      	beq.n	8005f9c <vTaskDelay+0x30>
 8005f86:	f04f 0350 	mov.w	r3, #80	; 0x50
 8005f8a:	f383 8811 	msr	BASEPRI, r3
 8005f8e:	f3bf 8f6f 	isb	sy
 8005f92:	f3bf 8f4f 	dsb	sy
 8005f96:	60bb      	str	r3, [r7, #8]
 8005f98:	bf00      	nop
 8005f9a:	e7fe      	b.n	8005f9a <vTaskDelay+0x2e>
 8005f9c:	f000 f87a 	bl	8006094 <vTaskSuspendAll>
 8005fa0:	2100      	movs	r1, #0
 8005fa2:	6878      	ldr	r0, [r7, #4]
 8005fa4:	f000 fcb8 	bl	8006918 <prvAddCurrentTaskToDelayedList>
 8005fa8:	f000 f882 	bl	80060b0 <xTaskResumeAll>
 8005fac:	60f8      	str	r0, [r7, #12]
 8005fae:	68fb      	ldr	r3, [r7, #12]
 8005fb0:	2b00      	cmp	r3, #0
 8005fb2:	d107      	bne.n	8005fc4 <vTaskDelay+0x58>
 8005fb4:	4b06      	ldr	r3, [pc, #24]	; (8005fd0 <vTaskDelay+0x64>)
 8005fb6:	f04f 5280 	mov.w	r2, #268435456	; 0x10000000
 8005fba:	601a      	str	r2, [r3, #0]
 8005fbc:	f3bf 8f4f 	dsb	sy
 8005fc0:	f3bf 8f6f 	isb	sy
 8005fc4:	bf00      	nop
 8005fc6:	3710      	adds	r7, #16
 8005fc8:	46bd      	mov	sp, r7
 8005fca:	bd80      	pop	{r7, pc}
 8005fcc:	200003a8 	.word	0x200003a8
 8005fd0:	e000ed04 	.word	0xe000ed04

08005fd4 <vTaskStartScheduler>:
 8005fd4:	b580      	push	{r7, lr}
 8005fd6:	b08a      	sub	sp, #40	; 0x28
 8005fd8:	af04      	add	r7, sp, #16
 8005fda:	2300      	movs	r3, #0
 8005fdc:	60bb      	str	r3, [r7, #8]
 8005fde:	2300      	movs	r3, #0
 8005fe0:	607b      	str	r3, [r7, #4]
 8005fe2:	463a      	mov	r2, r7
 8005fe4:	1d39      	adds	r1, r7, #4
 8005fe6:	f107 0308 	add.w	r3, r7, #8
 8005fea:	4618      	mov	r0, r3
 8005fec:	f7fa fbca 	bl	8000784 <vApplicationGetIdleTaskMemory>
 8005ff0:	6839      	ldr	r1, [r7, #0]
 8005ff2:	687b      	ldr	r3, [r7, #4]
 8005ff4:	68ba      	ldr	r2, [r7, #8]
 8005ff6:	9202      	str	r2, [sp, #8]
 8005ff8:	9301      	str	r3, [sp, #4]
 8005ffa:	2300      	movs	r3, #0
 8005ffc:	9300      	str	r3, [sp, #0]
 8005ffe:	2300      	movs	r3, #0
 8006000:	460a      	mov	r2, r1
 8006002:	491e      	ldr	r1, [pc, #120]	; (800607c <vTaskStartScheduler+0xa8>)
 8006004:	481e      	ldr	r0, [pc, #120]	; (8006080 <vTaskStartScheduler+0xac>)
 8006006:	f7ff fe1d 	bl	8005c44 <xTaskCreateStatic>
 800600a:	4603      	mov	r3, r0
 800600c:	4a1d      	ldr	r2, [pc, #116]	; (8006084 <vTaskStartScheduler+0xb0>)
 800600e:	6013      	str	r3, [r2, #0]
 8006010:	4b1c      	ldr	r3, [pc, #112]	; (8006084 <vTaskStartScheduler+0xb0>)
 8006012:	681b      	ldr	r3, [r3, #0]
 8006014:	2b00      	cmp	r3, #0
 8006016:	d002      	beq.n	800601e <vTaskStartScheduler+0x4a>
 8006018:	2301      	movs	r3, #1
 800601a:	617b      	str	r3, [r7, #20]
 800601c:	e001      	b.n	8006022 <vTaskStartScheduler+0x4e>
 800601e:	2300      	movs	r3, #0
 8006020:	617b      	str	r3, [r7, #20]
 8006022:	697b      	ldr	r3, [r7, #20]
 8006024:	2b01      	cmp	r3, #1
 8006026:	d116      	bne.n	8006056 <vTaskStartScheduler+0x82>
 8006028:	f04f 0350 	mov.w	r3, #80	; 0x50
 800602c:	f383 8811 	msr	BASEPRI, r3
 8006030:	f3bf 8f6f 	isb	sy
 8006034:	f3bf 8f4f 	dsb	sy
 8006038:	613b      	str	r3, [r7, #16]
 800603a:	bf00      	nop
 800603c:	4b12      	ldr	r3, [pc, #72]	; (8006088 <vTaskStartScheduler+0xb4>)
 800603e:	f04f 32ff 	mov.w	r2, #4294967295
 8006042:	601a      	str	r2, [r3, #0]
 8006044:	4b11      	ldr	r3, [pc, #68]	; (800608c <vTaskStartScheduler+0xb8>)
 8006046:	2201      	movs	r2, #1
 8006048:	601a      	str	r2, [r3, #0]
 800604a:	4b11      	ldr	r3, [pc, #68]	; (8006090 <vTaskStartScheduler+0xbc>)
 800604c:	2200      	movs	r2, #0
 800604e:	601a      	str	r2, [r3, #0]
 8006050:	f000 fd56 	bl	8006b00 <xPortStartScheduler>
 8006054:	e00e      	b.n	8006074 <vTaskStartScheduler+0xa0>
 8006056:	697b      	ldr	r3, [r7, #20]
 8006058:	f1b3 3fff 	cmp.w	r3, #4294967295
 800605c:	d10a      	bne.n	8006074 <vTaskStartScheduler+0xa0>
 800605e:	f04f 0350 	mov.w	r3, #80	; 0x50
 8006062:	f383 8811 	msr	BASEPRI, r3
 8006066:	f3bf 8f6f 	isb	sy
 800606a:	f3bf 8f4f 	dsb	sy
 800606e:	60fb      	str	r3, [r7, #12]
 8006070:	bf00      	nop
 8006072:	e7fe      	b.n	8006072 <vTaskStartScheduler+0x9e>
 8006074:	bf00      	nop
 8006076:	3718      	adds	r7, #24
 8006078:	46bd      	mov	sp, r7
 800607a:	bd80      	pop	{r7, pc}
 800607c:	080072d8 	.word	0x080072d8
 8006080:	08006625 	.word	0x08006625
 8006084:	200003a4 	.word	0x200003a4
 8006088:	200003a0 	.word	0x200003a0
 800608c:	2000038c 	.word	0x2000038c
 8006090:	20000384 	.word	0x20000384

08006094 <vTaskSuspendAll>:
 8006094:	b480      	push	{r7}
 8006096:	af00      	add	r7, sp, #0
 8006098:	4b04      	ldr	r3, [pc, #16]	; (80060ac <vTaskSuspendAll+0x18>)
 800609a:	681b      	ldr	r3, [r3, #0]
 800609c:	3301      	adds	r3, #1
 800609e:	4a03      	ldr	r2, [pc, #12]	; (80060ac <vTaskSuspendAll+0x18>)
 80060a0:	6013      	str	r3, [r2, #0]
 80060a2:	bf00      	nop
 80060a4:	46bd      	mov	sp, r7
 80060a6:	f85d 7b04 	ldr.w	r7, [sp], #4
 80060aa:	4770      	bx	lr
 80060ac:	200003a8 	.word	0x200003a8

080060b0 <xTaskResumeAll>:
 80060b0:	b580      	push	{r7, lr}
 80060b2:	b084      	sub	sp, #16
 80060b4:	af00      	add	r7, sp, #0
 80060b6:	2300      	movs	r3, #0
 80060b8:	60fb      	str	r3, [r7, #12]
 80060ba:	2300      	movs	r3, #0
 80060bc:	60bb      	str	r3, [r7, #8]
 80060be:	4b41      	ldr	r3, [pc, #260]	; (80061c4 <xTaskResumeAll+0x114>)
 80060c0:	681b      	ldr	r3, [r3, #0]
 80060c2:	2b00      	cmp	r3, #0
 80060c4:	d10a      	bne.n	80060dc <xTaskResumeAll+0x2c>
 80060c6:	f04f 0350 	mov.w	r3, #80	; 0x50
 80060ca:	f383 8811 	msr	BASEPRI, r3
 80060ce:	f3bf 8f6f 	isb	sy
 80060d2:	f3bf 8f4f 	dsb	sy
 80060d6:	603b      	str	r3, [r7, #0]
 80060d8:	bf00      	nop
 80060da:	e7fe      	b.n	80060da <xTaskResumeAll+0x2a>
 80060dc:	f000 fdb2 	bl	8006c44 <vPortEnterCritical>
 80060e0:	4b38      	ldr	r3, [pc, #224]	; (80061c4 <xTaskResumeAll+0x114>)
 80060e2:	681b      	ldr	r3, [r3, #0]
 80060e4:	3b01      	subs	r3, #1
 80060e6:	4a37      	ldr	r2, [pc, #220]	; (80061c4 <xTaskResumeAll+0x114>)
 80060e8:	6013      	str	r3, [r2, #0]
 80060ea:	4b36      	ldr	r3, [pc, #216]	; (80061c4 <xTaskResumeAll+0x114>)
 80060ec:	681b      	ldr	r3, [r3, #0]
 80060ee:	2b00      	cmp	r3, #0
 80060f0:	d161      	bne.n	80061b6 <xTaskResumeAll+0x106>
 80060f2:	4b35      	ldr	r3, [pc, #212]	; (80061c8 <xTaskResumeAll+0x118>)
 80060f4:	681b      	ldr	r3, [r3, #0]
 80060f6:	2b00      	cmp	r3, #0
 80060f8:	d05d      	beq.n	80061b6 <xTaskResumeAll+0x106>
 80060fa:	e02e      	b.n	800615a <xTaskResumeAll+0xaa>
 80060fc:	4b33      	ldr	r3, [pc, #204]	; (80061cc <xTaskResumeAll+0x11c>)
 80060fe:	68db      	ldr	r3, [r3, #12]
 8006100:	68db      	ldr	r3, [r3, #12]
 8006102:	60fb      	str	r3, [r7, #12]
 8006104:	68fb      	ldr	r3, [r7, #12]
 8006106:	3318      	adds	r3, #24
 8006108:	4618      	mov	r0, r3
 800610a:	f7ff fa19 	bl	8005540 <uxListRemove>
 800610e:	68fb      	ldr	r3, [r7, #12]
 8006110:	3304      	adds	r3, #4
 8006112:	4618      	mov	r0, r3
 8006114:	f7ff fa14 	bl	8005540 <uxListRemove>
 8006118:	68fb      	ldr	r3, [r7, #12]
 800611a:	6adb      	ldr	r3, [r3, #44]	; 0x2c
 800611c:	2201      	movs	r2, #1
 800611e:	409a      	lsls	r2, r3
 8006120:	4b2b      	ldr	r3, [pc, #172]	; (80061d0 <xTaskResumeAll+0x120>)
 8006122:	681b      	ldr	r3, [r3, #0]
 8006124:	4313      	orrs	r3, r2
 8006126:	4a2a      	ldr	r2, [pc, #168]	; (80061d0 <xTaskResumeAll+0x120>)
 8006128:	6013      	str	r3, [r2, #0]
 800612a:	68fb      	ldr	r3, [r7, #12]
 800612c:	6ada      	ldr	r2, [r3, #44]	; 0x2c
 800612e:	4613      	mov	r3, r2
 8006130:	009b      	lsls	r3, r3, #2
 8006132:	4413      	add	r3, r2
 8006134:	009b      	lsls	r3, r3, #2
 8006136:	4a27      	ldr	r2, [pc, #156]	; (80061d4 <xTaskResumeAll+0x124>)
 8006138:	441a      	add	r2, r3
 800613a:	68fb      	ldr	r3, [r7, #12]
 800613c:	3304      	adds	r3, #4
 800613e:	4619      	mov	r1, r3
 8006140:	4610      	mov	r0, r2
 8006142:	f7ff f9a0 	bl	8005486 <vListInsertEnd>
 8006146:	68fb      	ldr	r3, [r7, #12]
 8006148:	6ada      	ldr	r2, [r3, #44]	; 0x2c
 800614a:	4b23      	ldr	r3, [pc, #140]	; (80061d8 <xTaskResumeAll+0x128>)
 800614c:	681b      	ldr	r3, [r3, #0]
 800614e:	6adb      	ldr	r3, [r3, #44]	; 0x2c
 8006150:	429a      	cmp	r2, r3
 8006152:	d302      	bcc.n	800615a <xTaskResumeAll+0xaa>
 8006154:	4b21      	ldr	r3, [pc, #132]	; (80061dc <xTaskResumeAll+0x12c>)
 8006156:	2201      	movs	r2, #1
 8006158:	601a      	str	r2, [r3, #0]
 800615a:	4b1c      	ldr	r3, [pc, #112]	; (80061cc <xTaskResumeAll+0x11c>)
 800615c:	681b      	ldr	r3, [r3, #0]
 800615e:	2b00      	cmp	r3, #0
 8006160:	d1cc      	bne.n	80060fc <xTaskResumeAll+0x4c>
 8006162:	68fb      	ldr	r3, [r7, #12]
 8006164:	2b00      	cmp	r3, #0
 8006166:	d001      	beq.n	800616c <xTaskResumeAll+0xbc>
 8006168:	f000 fb12 	bl	8006790 <prvResetNextTaskUnblockTime>
 800616c:	4b1c      	ldr	r3, [pc, #112]	; (80061e0 <xTaskResumeAll+0x130>)
 800616e:	681b      	ldr	r3, [r3, #0]
 8006170:	607b      	str	r3, [r7, #4]
 8006172:	687b      	ldr	r3, [r7, #4]
 8006174:	2b00      	cmp	r3, #0
 8006176:	d010      	beq.n	800619a <xTaskResumeAll+0xea>
 8006178:	f000 f836 	bl	80061e8 <xTaskIncrementTick>
 800617c:	4603      	mov	r3, r0
 800617e:	2b00      	cmp	r3, #0
 8006180:	d002      	beq.n	8006188 <xTaskResumeAll+0xd8>
 8006182:	4b16      	ldr	r3, [pc, #88]	; (80061dc <xTaskResumeAll+0x12c>)
 8006184:	2201      	movs	r2, #1
 8006186:	601a      	str	r2, [r3, #0]
 8006188:	687b      	ldr	r3, [r7, #4]
 800618a:	3b01      	subs	r3, #1
 800618c:	607b      	str	r3, [r7, #4]
 800618e:	687b      	ldr	r3, [r7, #4]
 8006190:	2b00      	cmp	r3, #0
 8006192:	d1f1      	bne.n	8006178 <xTaskResumeAll+0xc8>
 8006194:	4b12      	ldr	r3, [pc, #72]	; (80061e0 <xTaskResumeAll+0x130>)
 8006196:	2200      	movs	r2, #0
 8006198:	601a      	str	r2, [r3, #0]
 800619a:	4b10      	ldr	r3, [pc, #64]	; (80061dc <xTaskResumeAll+0x12c>)
 800619c:	681b      	ldr	r3, [r3, #0]
 800619e:	2b00      	cmp	r3, #0
 80061a0:	d009      	beq.n	80061b6 <xTaskResumeAll+0x106>
 80061a2:	2301      	movs	r3, #1
 80061a4:	60bb      	str	r3, [r7, #8]
 80061a6:	4b0f      	ldr	r3, [pc, #60]	; (80061e4 <xTaskResumeAll+0x134>)
 80061a8:	f04f 5280 	mov.w	r2, #268435456	; 0x10000000
 80061ac:	601a      	str	r2, [r3, #0]
 80061ae:	f3bf 8f4f 	dsb	sy
 80061b2:	f3bf 8f6f 	isb	sy
 80061b6:	f000 fd75 	bl	8006ca4 <vPortExitCritical>
 80061ba:	68bb      	ldr	r3, [r7, #8]
 80061bc:	4618      	mov	r0, r3
 80061be:	3710      	adds	r7, #16
 80061c0:	46bd      	mov	sp, r7
 80061c2:	bd80      	pop	{r7, pc}
 80061c4:	200003a8 	.word	0x200003a8
 80061c8:	20000380 	.word	0x20000380
 80061cc:	20000340 	.word	0x20000340
 80061d0:	20000388 	.word	0x20000388
 80061d4:	20000284 	.word	0x20000284
 80061d8:	20000280 	.word	0x20000280
 80061dc:	20000394 	.word	0x20000394
 80061e0:	20000390 	.word	0x20000390
 80061e4:	e000ed04 	.word	0xe000ed04

080061e8 <xTaskIncrementTick>:
 80061e8:	b580      	push	{r7, lr}
 80061ea:	b086      	sub	sp, #24
 80061ec:	af00      	add	r7, sp, #0
 80061ee:	2300      	movs	r3, #0
 80061f0:	617b      	str	r3, [r7, #20]
 80061f2:	4b4e      	ldr	r3, [pc, #312]	; (800632c <xTaskIncrementTick+0x144>)
 80061f4:	681b      	ldr	r3, [r3, #0]
 80061f6:	2b00      	cmp	r3, #0
 80061f8:	f040 808e 	bne.w	8006318 <xTaskIncrementTick+0x130>
 80061fc:	4b4c      	ldr	r3, [pc, #304]	; (8006330 <xTaskIncrementTick+0x148>)
 80061fe:	681b      	ldr	r3, [r3, #0]
 8006200:	3301      	adds	r3, #1
 8006202:	613b      	str	r3, [r7, #16]
 8006204:	4a4a      	ldr	r2, [pc, #296]	; (8006330 <xTaskIncrementTick+0x148>)
 8006206:	693b      	ldr	r3, [r7, #16]
 8006208:	6013      	str	r3, [r2, #0]
 800620a:	693b      	ldr	r3, [r7, #16]
 800620c:	2b00      	cmp	r3, #0
 800620e:	d120      	bne.n	8006252 <xTaskIncrementTick+0x6a>
 8006210:	4b48      	ldr	r3, [pc, #288]	; (8006334 <xTaskIncrementTick+0x14c>)
 8006212:	681b      	ldr	r3, [r3, #0]
 8006214:	681b      	ldr	r3, [r3, #0]
 8006216:	2b00      	cmp	r3, #0
 8006218:	d00a      	beq.n	8006230 <xTaskIncrementTick+0x48>
 800621a:	f04f 0350 	mov.w	r3, #80	; 0x50
 800621e:	f383 8811 	msr	BASEPRI, r3
 8006222:	f3bf 8f6f 	isb	sy
 8006226:	f3bf 8f4f 	dsb	sy
 800622a:	603b      	str	r3, [r7, #0]
 800622c:	bf00      	nop
 800622e:	e7fe      	b.n	800622e <xTaskIncrementTick+0x46>
 8006230:	4b40      	ldr	r3, [pc, #256]	; (8006334 <xTaskIncrementTick+0x14c>)
 8006232:	681b      	ldr	r3, [r3, #0]
 8006234:	60fb      	str	r3, [r7, #12]
 8006236:	4b40      	ldr	r3, [pc, #256]	; (8006338 <xTaskIncrementTick+0x150>)
 8006238:	681b      	ldr	r3, [r3, #0]
 800623a:	4a3e      	ldr	r2, [pc, #248]	; (8006334 <xTaskIncrementTick+0x14c>)
 800623c:	6013      	str	r3, [r2, #0]
 800623e:	4a3e      	ldr	r2, [pc, #248]	; (8006338 <xTaskIncrementTick+0x150>)
 8006240:	68fb      	ldr	r3, [r7, #12]
 8006242:	6013      	str	r3, [r2, #0]
 8006244:	4b3d      	ldr	r3, [pc, #244]	; (800633c <xTaskIncrementTick+0x154>)
 8006246:	681b      	ldr	r3, [r3, #0]
 8006248:	3301      	adds	r3, #1
 800624a:	4a3c      	ldr	r2, [pc, #240]	; (800633c <xTaskIncrementTick+0x154>)
 800624c:	6013      	str	r3, [r2, #0]
 800624e:	f000 fa9f 	bl	8006790 <prvResetNextTaskUnblockTime>
 8006252:	4b3b      	ldr	r3, [pc, #236]	; (8006340 <xTaskIncrementTick+0x158>)
 8006254:	681b      	ldr	r3, [r3, #0]
 8006256:	693a      	ldr	r2, [r7, #16]
 8006258:	429a      	cmp	r2, r3
 800625a:	d348      	bcc.n	80062ee <xTaskIncrementTick+0x106>
 800625c:	4b35      	ldr	r3, [pc, #212]	; (8006334 <xTaskIncrementTick+0x14c>)
 800625e:	681b      	ldr	r3, [r3, #0]
 8006260:	681b      	ldr	r3, [r3, #0]
 8006262:	2b00      	cmp	r3, #0
 8006264:	d104      	bne.n	8006270 <xTaskIncrementTick+0x88>
 8006266:	4b36      	ldr	r3, [pc, #216]	; (8006340 <xTaskIncrementTick+0x158>)
 8006268:	f04f 32ff 	mov.w	r2, #4294967295
 800626c:	601a      	str	r2, [r3, #0]
 800626e:	e03e      	b.n	80062ee <xTaskIncrementTick+0x106>
 8006270:	4b30      	ldr	r3, [pc, #192]	; (8006334 <xTaskIncrementTick+0x14c>)
 8006272:	681b      	ldr	r3, [r3, #0]
 8006274:	68db      	ldr	r3, [r3, #12]
 8006276:	68db      	ldr	r3, [r3, #12]
 8006278:	60bb      	str	r3, [r7, #8]
 800627a:	68bb      	ldr	r3, [r7, #8]
 800627c:	685b      	ldr	r3, [r3, #4]
 800627e:	607b      	str	r3, [r7, #4]
 8006280:	693a      	ldr	r2, [r7, #16]
 8006282:	687b      	ldr	r3, [r7, #4]
 8006284:	429a      	cmp	r2, r3
 8006286:	d203      	bcs.n	8006290 <xTaskIncrementTick+0xa8>
 8006288:	4a2d      	ldr	r2, [pc, #180]	; (8006340 <xTaskIncrementTick+0x158>)
 800628a:	687b      	ldr	r3, [r7, #4]
 800628c:	6013      	str	r3, [r2, #0]
 800628e:	e02e      	b.n	80062ee <xTaskIncrementTick+0x106>
 8006290:	68bb      	ldr	r3, [r7, #8]
 8006292:	3304      	adds	r3, #4
 8006294:	4618      	mov	r0, r3
 8006296:	f7ff f953 	bl	8005540 <uxListRemove>
 800629a:	68bb      	ldr	r3, [r7, #8]
 800629c:	6a9b      	ldr	r3, [r3, #40]	; 0x28
 800629e:	2b00      	cmp	r3, #0
 80062a0:	d004      	beq.n	80062ac <xTaskIncrementTick+0xc4>
 80062a2:	68bb      	ldr	r3, [r7, #8]
 80062a4:	3318      	adds	r3, #24
 80062a6:	4618      	mov	r0, r3
 80062a8:	f7ff f94a 	bl	8005540 <uxListRemove>
 80062ac:	68bb      	ldr	r3, [r7, #8]
 80062ae:	6adb      	ldr	r3, [r3, #44]	; 0x2c
 80062b0:	2201      	movs	r2, #1
 80062b2:	409a      	lsls	r2, r3
 80062b4:	4b23      	ldr	r3, [pc, #140]	; (8006344 <xTaskIncrementTick+0x15c>)
 80062b6:	681b      	ldr	r3, [r3, #0]
 80062b8:	4313      	orrs	r3, r2
 80062ba:	4a22      	ldr	r2, [pc, #136]	; (8006344 <xTaskIncrementTick+0x15c>)
 80062bc:	6013      	str	r3, [r2, #0]
 80062be:	68bb      	ldr	r3, [r7, #8]
 80062c0:	6ada      	ldr	r2, [r3, #44]	; 0x2c
 80062c2:	4613      	mov	r3, r2
 80062c4:	009b      	lsls	r3, r3, #2
 80062c6:	4413      	add	r3, r2
 80062c8:	009b      	lsls	r3, r3, #2
 80062ca:	4a1f      	ldr	r2, [pc, #124]	; (8006348 <xTaskIncrementTick+0x160>)
 80062cc:	441a      	add	r2, r3
 80062ce:	68bb      	ldr	r3, [r7, #8]
 80062d0:	3304      	adds	r3, #4
 80062d2:	4619      	mov	r1, r3
 80062d4:	4610      	mov	r0, r2
 80062d6:	f7ff f8d6 	bl	8005486 <vListInsertEnd>
 80062da:	68bb      	ldr	r3, [r7, #8]
 80062dc:	6ada      	ldr	r2, [r3, #44]	; 0x2c
 80062de:	4b1b      	ldr	r3, [pc, #108]	; (800634c <xTaskIncrementTick+0x164>)
 80062e0:	681b      	ldr	r3, [r3, #0]
 80062e2:	6adb      	ldr	r3, [r3, #44]	; 0x2c
 80062e4:	429a      	cmp	r2, r3
 80062e6:	d3b9      	bcc.n	800625c <xTaskIncrementTick+0x74>
 80062e8:	2301      	movs	r3, #1
 80062ea:	617b      	str	r3, [r7, #20]
 80062ec:	e7b6      	b.n	800625c <xTaskIncrementTick+0x74>
 80062ee:	4b17      	ldr	r3, [pc, #92]	; (800634c <xTaskIncrementTick+0x164>)
 80062f0:	681b      	ldr	r3, [r3, #0]
 80062f2:	6ada      	ldr	r2, [r3, #44]	; 0x2c
 80062f4:	4914      	ldr	r1, [pc, #80]	; (8006348 <xTaskIncrementTick+0x160>)
 80062f6:	4613      	mov	r3, r2
 80062f8:	009b      	lsls	r3, r3, #2
 80062fa:	4413      	add	r3, r2
 80062fc:	009b      	lsls	r3, r3, #2
 80062fe:	440b      	add	r3, r1
 8006300:	681b      	ldr	r3, [r3, #0]
 8006302:	2b01      	cmp	r3, #1
 8006304:	d901      	bls.n	800630a <xTaskIncrementTick+0x122>
 8006306:	2301      	movs	r3, #1
 8006308:	617b      	str	r3, [r7, #20]
 800630a:	4b11      	ldr	r3, [pc, #68]	; (8006350 <xTaskIncrementTick+0x168>)
 800630c:	681b      	ldr	r3, [r3, #0]
 800630e:	2b00      	cmp	r3, #0
 8006310:	d007      	beq.n	8006322 <xTaskIncrementTick+0x13a>
 8006312:	2301      	movs	r3, #1
 8006314:	617b      	str	r3, [r7, #20]
 8006316:	e004      	b.n	8006322 <xTaskIncrementTick+0x13a>
 8006318:	4b0e      	ldr	r3, [pc, #56]	; (8006354 <xTaskIncrementTick+0x16c>)
 800631a:	681b      	ldr	r3, [r3, #0]
 800631c:	3301      	adds	r3, #1
 800631e:	4a0d      	ldr	r2, [pc, #52]	; (8006354 <xTaskIncrementTick+0x16c>)
 8006320:	6013      	str	r3, [r2, #0]
 8006322:	697b      	ldr	r3, [r7, #20]
 8006324:	4618      	mov	r0, r3
 8006326:	3718      	adds	r7, #24
 8006328:	46bd      	mov	sp, r7
 800632a:	bd80      	pop	{r7, pc}
 800632c:	200003a8 	.word	0x200003a8
 8006330:	20000384 	.word	0x20000384
 8006334:	20000338 	.word	0x20000338
 8006338:	2000033c 	.word	0x2000033c
 800633c:	20000398 	.word	0x20000398
 8006340:	200003a0 	.word	0x200003a0
 8006344:	20000388 	.word	0x20000388
 8006348:	20000284 	.word	0x20000284
 800634c:	20000280 	.word	0x20000280
 8006350:	20000394 	.word	0x20000394
 8006354:	20000390 	.word	0x20000390

08006358 <vTaskSwitchContext>:
 8006358:	b480      	push	{r7}
 800635a:	b087      	sub	sp, #28
 800635c:	af00      	add	r7, sp, #0
 800635e:	4b27      	ldr	r3, [pc, #156]	; (80063fc <vTaskSwitchContext+0xa4>)
 8006360:	681b      	ldr	r3, [r3, #0]
 8006362:	2b00      	cmp	r3, #0
 8006364:	d003      	beq.n	800636e <vTaskSwitchContext+0x16>
 8006366:	4b26      	ldr	r3, [pc, #152]	; (8006400 <vTaskSwitchContext+0xa8>)
 8006368:	2201      	movs	r2, #1
 800636a:	601a      	str	r2, [r3, #0]
 800636c:	e03f      	b.n	80063ee <vTaskSwitchContext+0x96>
 800636e:	4b24      	ldr	r3, [pc, #144]	; (8006400 <vTaskSwitchContext+0xa8>)
 8006370:	2200      	movs	r2, #0
 8006372:	601a      	str	r2, [r3, #0]
 8006374:	4b23      	ldr	r3, [pc, #140]	; (8006404 <vTaskSwitchContext+0xac>)
 8006376:	681b      	ldr	r3, [r3, #0]
 8006378:	60fb      	str	r3, [r7, #12]
 800637a:	68fb      	ldr	r3, [r7, #12]
 800637c:	fab3 f383 	clz	r3, r3
 8006380:	72fb      	strb	r3, [r7, #11]
 8006382:	7afb      	ldrb	r3, [r7, #11]
 8006384:	f1c3 031f 	rsb	r3, r3, #31
 8006388:	617b      	str	r3, [r7, #20]
 800638a:	491f      	ldr	r1, [pc, #124]	; (8006408 <vTaskSwitchContext+0xb0>)
 800638c:	697a      	ldr	r2, [r7, #20]
 800638e:	4613      	mov	r3, r2
 8006390:	009b      	lsls	r3, r3, #2
 8006392:	4413      	add	r3, r2
 8006394:	009b      	lsls	r3, r3, #2
 8006396:	440b      	add	r3, r1
 8006398:	681b      	ldr	r3, [r3, #0]
 800639a:	2b00      	cmp	r3, #0
 800639c:	d10a      	bne.n	80063b4 <vTaskSwitchContext+0x5c>
 800639e:	f04f 0350 	mov.w	r3, #80	; 0x50
 80063a2:	f383 8811 	msr	BASEPRI, r3
 80063a6:	f3bf 8f6f 	isb	sy
 80063aa:	f3bf 8f4f 	dsb	sy
 80063ae:	607b      	str	r3, [r7, #4]
 80063b0:	bf00      	nop
 80063b2:	e7fe      	b.n	80063b2 <vTaskSwitchContext+0x5a>
 80063b4:	697a      	ldr	r2, [r7, #20]
 80063b6:	4613      	mov	r3, r2
 80063b8:	009b      	lsls	r3, r3, #2
 80063ba:	4413      	add	r3, r2
 80063bc:	009b      	lsls	r3, r3, #2
 80063be:	4a12      	ldr	r2, [pc, #72]	; (8006408 <vTaskSwitchContext+0xb0>)
 80063c0:	4413      	add	r3, r2
 80063c2:	613b      	str	r3, [r7, #16]
 80063c4:	693b      	ldr	r3, [r7, #16]
 80063c6:	685b      	ldr	r3, [r3, #4]
 80063c8:	685a      	ldr	r2, [r3, #4]
 80063ca:	693b      	ldr	r3, [r7, #16]
 80063cc:	605a      	str	r2, [r3, #4]
 80063ce:	693b      	ldr	r3, [r7, #16]
 80063d0:	685a      	ldr	r2, [r3, #4]
 80063d2:	693b      	ldr	r3, [r7, #16]
 80063d4:	3308      	adds	r3, #8
 80063d6:	429a      	cmp	r2, r3
 80063d8:	d104      	bne.n	80063e4 <vTaskSwitchContext+0x8c>
 80063da:	693b      	ldr	r3, [r7, #16]
 80063dc:	685b      	ldr	r3, [r3, #4]
 80063de:	685a      	ldr	r2, [r3, #4]
 80063e0:	693b      	ldr	r3, [r7, #16]
 80063e2:	605a      	str	r2, [r3, #4]
 80063e4:	693b      	ldr	r3, [r7, #16]
 80063e6:	685b      	ldr	r3, [r3, #4]
 80063e8:	68db      	ldr	r3, [r3, #12]
 80063ea:	4a08      	ldr	r2, [pc, #32]	; (800640c <vTaskSwitchContext+0xb4>)
 80063ec:	6013      	str	r3, [r2, #0]
 80063ee:	bf00      	nop
 80063f0:	371c      	adds	r7, #28
 80063f2:	46bd      	mov	sp, r7
 80063f4:	f85d 7b04 	ldr.w	r7, [sp], #4
 80063f8:	4770      	bx	lr
 80063fa:	bf00      	nop
 80063fc:	200003a8 	.word	0x200003a8
 8006400:	20000394 	.word	0x20000394
 8006404:	20000388 	.word	0x20000388
 8006408:	20000284 	.word	0x20000284
 800640c:	20000280 	.word	0x20000280

08006410 <vTaskPlaceOnEventList>:
 8006410:	b580      	push	{r7, lr}
 8006412:	b084      	sub	sp, #16
 8006414:	af00      	add	r7, sp, #0
 8006416:	6078      	str	r0, [r7, #4]
 8006418:	6039      	str	r1, [r7, #0]
 800641a:	687b      	ldr	r3, [r7, #4]
 800641c:	2b00      	cmp	r3, #0
 800641e:	d10a      	bne.n	8006436 <vTaskPlaceOnEventList+0x26>
 8006420:	f04f 0350 	mov.w	r3, #80	; 0x50
 8006424:	f383 8811 	msr	BASEPRI, r3
 8006428:	f3bf 8f6f 	isb	sy
 800642c:	f3bf 8f4f 	dsb	sy
 8006430:	60fb      	str	r3, [r7, #12]
 8006432:	bf00      	nop
 8006434:	e7fe      	b.n	8006434 <vTaskPlaceOnEventList+0x24>
 8006436:	4b07      	ldr	r3, [pc, #28]	; (8006454 <vTaskPlaceOnEventList+0x44>)
 8006438:	681b      	ldr	r3, [r3, #0]
 800643a:	3318      	adds	r3, #24
 800643c:	4619      	mov	r1, r3
 800643e:	6878      	ldr	r0, [r7, #4]
 8006440:	f7ff f845 	bl	80054ce <vListInsert>
 8006444:	2101      	movs	r1, #1
 8006446:	6838      	ldr	r0, [r7, #0]
 8006448:	f000 fa66 	bl	8006918 <prvAddCurrentTaskToDelayedList>
 800644c:	bf00      	nop
 800644e:	3710      	adds	r7, #16
 8006450:	46bd      	mov	sp, r7
 8006452:	bd80      	pop	{r7, pc}
 8006454:	20000280 	.word	0x20000280

08006458 <xTaskRemoveFromEventList>:
 8006458:	b580      	push	{r7, lr}
 800645a:	b086      	sub	sp, #24
 800645c:	af00      	add	r7, sp, #0
 800645e:	6078      	str	r0, [r7, #4]
 8006460:	687b      	ldr	r3, [r7, #4]
 8006462:	68db      	ldr	r3, [r3, #12]
 8006464:	68db      	ldr	r3, [r3, #12]
 8006466:	613b      	str	r3, [r7, #16]
 8006468:	693b      	ldr	r3, [r7, #16]
 800646a:	2b00      	cmp	r3, #0
 800646c:	d10a      	bne.n	8006484 <xTaskRemoveFromEventList+0x2c>
 800646e:	f04f 0350 	mov.w	r3, #80	; 0x50
 8006472:	f383 8811 	msr	BASEPRI, r3
 8006476:	f3bf 8f6f 	isb	sy
 800647a:	f3bf 8f4f 	dsb	sy
 800647e:	60fb      	str	r3, [r7, #12]
 8006480:	bf00      	nop
 8006482:	e7fe      	b.n	8006482 <xTaskRemoveFromEventList+0x2a>
 8006484:	693b      	ldr	r3, [r7, #16]
 8006486:	3318      	adds	r3, #24
 8006488:	4618      	mov	r0, r3
 800648a:	f7ff f859 	bl	8005540 <uxListRemove>
 800648e:	4b1d      	ldr	r3, [pc, #116]	; (8006504 <xTaskRemoveFromEventList+0xac>)
 8006490:	681b      	ldr	r3, [r3, #0]
 8006492:	2b00      	cmp	r3, #0
 8006494:	d11c      	bne.n	80064d0 <xTaskRemoveFromEventList+0x78>
 8006496:	693b      	ldr	r3, [r7, #16]
 8006498:	3304      	adds	r3, #4
 800649a:	4618      	mov	r0, r3
 800649c:	f7ff f850 	bl	8005540 <uxListRemove>
 80064a0:	693b      	ldr	r3, [r7, #16]
 80064a2:	6adb      	ldr	r3, [r3, #44]	; 0x2c
 80064a4:	2201      	movs	r2, #1
 80064a6:	409a      	lsls	r2, r3
 80064a8:	4b17      	ldr	r3, [pc, #92]	; (8006508 <xTaskRemoveFromEventList+0xb0>)
 80064aa:	681b      	ldr	r3, [r3, #0]
 80064ac:	4313      	orrs	r3, r2
 80064ae:	4a16      	ldr	r2, [pc, #88]	; (8006508 <xTaskRemoveFromEventList+0xb0>)
 80064b0:	6013      	str	r3, [r2, #0]
 80064b2:	693b      	ldr	r3, [r7, #16]
 80064b4:	6ada      	ldr	r2, [r3, #44]	; 0x2c
 80064b6:	4613      	mov	r3, r2
 80064b8:	009b      	lsls	r3, r3, #2
 80064ba:	4413      	add	r3, r2
 80064bc:	009b      	lsls	r3, r3, #2
 80064be:	4a13      	ldr	r2, [pc, #76]	; (800650c <xTaskRemoveFromEventList+0xb4>)
 80064c0:	441a      	add	r2, r3
 80064c2:	693b      	ldr	r3, [r7, #16]
 80064c4:	3304      	adds	r3, #4
 80064c6:	4619      	mov	r1, r3
 80064c8:	4610      	mov	r0, r2
 80064ca:	f7fe ffdc 	bl	8005486 <vListInsertEnd>
 80064ce:	e005      	b.n	80064dc <xTaskRemoveFromEventList+0x84>
 80064d0:	693b      	ldr	r3, [r7, #16]
 80064d2:	3318      	adds	r3, #24
 80064d4:	4619      	mov	r1, r3
 80064d6:	480e      	ldr	r0, [pc, #56]	; (8006510 <xTaskRemoveFromEventList+0xb8>)
 80064d8:	f7fe ffd5 	bl	8005486 <vListInsertEnd>
 80064dc:	693b      	ldr	r3, [r7, #16]
 80064de:	6ada      	ldr	r2, [r3, #44]	; 0x2c
 80064e0:	4b0c      	ldr	r3, [pc, #48]	; (8006514 <xTaskRemoveFromEventList+0xbc>)
 80064e2:	681b      	ldr	r3, [r3, #0]
 80064e4:	6adb      	ldr	r3, [r3, #44]	; 0x2c
 80064e6:	429a      	cmp	r2, r3
 80064e8:	d905      	bls.n	80064f6 <xTaskRemoveFromEventList+0x9e>
 80064ea:	2301      	movs	r3, #1
 80064ec:	617b      	str	r3, [r7, #20]
 80064ee:	4b0a      	ldr	r3, [pc, #40]	; (8006518 <xTaskRemoveFromEventList+0xc0>)
 80064f0:	2201      	movs	r2, #1
 80064f2:	601a      	str	r2, [r3, #0]
 80064f4:	e001      	b.n	80064fa <xTaskRemoveFromEventList+0xa2>
 80064f6:	2300      	movs	r3, #0
 80064f8:	617b      	str	r3, [r7, #20]
 80064fa:	697b      	ldr	r3, [r7, #20]
 80064fc:	4618      	mov	r0, r3
 80064fe:	3718      	adds	r7, #24
 8006500:	46bd      	mov	sp, r7
 8006502:	bd80      	pop	{r7, pc}
 8006504:	200003a8 	.word	0x200003a8
 8006508:	20000388 	.word	0x20000388
 800650c:	20000284 	.word	0x20000284
 8006510:	20000340 	.word	0x20000340
 8006514:	20000280 	.word	0x20000280
 8006518:	20000394 	.word	0x20000394

0800651c <vTaskInternalSetTimeOutState>:
 800651c:	b480      	push	{r7}
 800651e:	b083      	sub	sp, #12
 8006520:	af00      	add	r7, sp, #0
 8006522:	6078      	str	r0, [r7, #4]
 8006524:	4b06      	ldr	r3, [pc, #24]	; (8006540 <vTaskInternalSetTimeOutState+0x24>)
 8006526:	681a      	ldr	r2, [r3, #0]
 8006528:	687b      	ldr	r3, [r7, #4]
 800652a:	601a      	str	r2, [r3, #0]
 800652c:	4b05      	ldr	r3, [pc, #20]	; (8006544 <vTaskInternalSetTimeOutState+0x28>)
 800652e:	681a      	ldr	r2, [r3, #0]
 8006530:	687b      	ldr	r3, [r7, #4]
 8006532:	605a      	str	r2, [r3, #4]
 8006534:	bf00      	nop
 8006536:	370c      	adds	r7, #12
 8006538:	46bd      	mov	sp, r7
 800653a:	f85d 7b04 	ldr.w	r7, [sp], #4
 800653e:	4770      	bx	lr
 8006540:	20000398 	.word	0x20000398
 8006544:	20000384 	.word	0x20000384

08006548 <xTaskCheckForTimeOut>:
 8006548:	b580      	push	{r7, lr}
 800654a:	b088      	sub	sp, #32
 800654c:	af00      	add	r7, sp, #0
 800654e:	6078      	str	r0, [r7, #4]
 8006550:	6039      	str	r1, [r7, #0]
 8006552:	687b      	ldr	r3, [r7, #4]
 8006554:	2b00      	cmp	r3, #0
 8006556:	d10a      	bne.n	800656e <xTaskCheckForTimeOut+0x26>
 8006558:	f04f 0350 	mov.w	r3, #80	; 0x50
 800655c:	f383 8811 	msr	BASEPRI, r3
 8006560:	f3bf 8f6f 	isb	sy
 8006564:	f3bf 8f4f 	dsb	sy
 8006568:	613b      	str	r3, [r7, #16]
 800656a:	bf00      	nop
 800656c:	e7fe      	b.n	800656c <xTaskCheckForTimeOut+0x24>
 800656e:	683b      	ldr	r3, [r7, #0]
 8006570:	2b00      	cmp	r3, #0
 8006572:	d10a      	bne.n	800658a <xTaskCheckForTimeOut+0x42>
 8006574:	f04f 0350 	mov.w	r3, #80	; 0x50
 8006578:	f383 8811 	msr	BASEPRI, r3
 800657c:	f3bf 8f6f 	isb	sy
 8006580:	f3bf 8f4f 	dsb	sy
 8006584:	60fb      	str	r3, [r7, #12]
 8006586:	bf00      	nop
 8006588:	e7fe      	b.n	8006588 <xTaskCheckForTimeOut+0x40>
 800658a:	f000 fb5b 	bl	8006c44 <vPortEnterCritical>
 800658e:	4b1d      	ldr	r3, [pc, #116]	; (8006604 <xTaskCheckForTimeOut+0xbc>)
 8006590:	681b      	ldr	r3, [r3, #0]
 8006592:	61bb      	str	r3, [r7, #24]
 8006594:	687b      	ldr	r3, [r7, #4]
 8006596:	685b      	ldr	r3, [r3, #4]
 8006598:	69ba      	ldr	r2, [r7, #24]
 800659a:	1ad3      	subs	r3, r2, r3
 800659c:	617b      	str	r3, [r7, #20]
 800659e:	683b      	ldr	r3, [r7, #0]
 80065a0:	681b      	ldr	r3, [r3, #0]
 80065a2:	f1b3 3fff 	cmp.w	r3, #4294967295
 80065a6:	d102      	bne.n	80065ae <xTaskCheckForTimeOut+0x66>
 80065a8:	2300      	movs	r3, #0
 80065aa:	61fb      	str	r3, [r7, #28]
 80065ac:	e023      	b.n	80065f6 <xTaskCheckForTimeOut+0xae>
 80065ae:	687b      	ldr	r3, [r7, #4]
 80065b0:	681a      	ldr	r2, [r3, #0]
 80065b2:	4b15      	ldr	r3, [pc, #84]	; (8006608 <xTaskCheckForTimeOut+0xc0>)
 80065b4:	681b      	ldr	r3, [r3, #0]
 80065b6:	429a      	cmp	r2, r3
 80065b8:	d007      	beq.n	80065ca <xTaskCheckForTimeOut+0x82>
 80065ba:	687b      	ldr	r3, [r7, #4]
 80065bc:	685b      	ldr	r3, [r3, #4]
 80065be:	69ba      	ldr	r2, [r7, #24]
 80065c0:	429a      	cmp	r2, r3
 80065c2:	d302      	bcc.n	80065ca <xTaskCheckForTimeOut+0x82>
 80065c4:	2301      	movs	r3, #1
 80065c6:	61fb      	str	r3, [r7, #28]
 80065c8:	e015      	b.n	80065f6 <xTaskCheckForTimeOut+0xae>
 80065ca:	683b      	ldr	r3, [r7, #0]
 80065cc:	681b      	ldr	r3, [r3, #0]
 80065ce:	697a      	ldr	r2, [r7, #20]
 80065d0:	429a      	cmp	r2, r3
 80065d2:	d20b      	bcs.n	80065ec <xTaskCheckForTimeOut+0xa4>
 80065d4:	683b      	ldr	r3, [r7, #0]
 80065d6:	681a      	ldr	r2, [r3, #0]
 80065d8:	697b      	ldr	r3, [r7, #20]
 80065da:	1ad2      	subs	r2, r2, r3
 80065dc:	683b      	ldr	r3, [r7, #0]
 80065de:	601a      	str	r2, [r3, #0]
 80065e0:	6878      	ldr	r0, [r7, #4]
 80065e2:	f7ff ff9b 	bl	800651c <vTaskInternalSetTimeOutState>
 80065e6:	2300      	movs	r3, #0
 80065e8:	61fb      	str	r3, [r7, #28]
 80065ea:	e004      	b.n	80065f6 <xTaskCheckForTimeOut+0xae>
 80065ec:	683b      	ldr	r3, [r7, #0]
 80065ee:	2200      	movs	r2, #0
 80065f0:	601a      	str	r2, [r3, #0]
 80065f2:	2301      	movs	r3, #1
 80065f4:	61fb      	str	r3, [r7, #28]
 80065f6:	f000 fb55 	bl	8006ca4 <vPortExitCritical>
 80065fa:	69fb      	ldr	r3, [r7, #28]
 80065fc:	4618      	mov	r0, r3
 80065fe:	3720      	adds	r7, #32
 8006600:	46bd      	mov	sp, r7
 8006602:	bd80      	pop	{r7, pc}
 8006604:	20000384 	.word	0x20000384
 8006608:	20000398 	.word	0x20000398

0800660c <vTaskMissedYield>:
 800660c:	b480      	push	{r7}
 800660e:	af00      	add	r7, sp, #0
 8006610:	4b03      	ldr	r3, [pc, #12]	; (8006620 <vTaskMissedYield+0x14>)
 8006612:	2201      	movs	r2, #1
 8006614:	601a      	str	r2, [r3, #0]
 8006616:	bf00      	nop
 8006618:	46bd      	mov	sp, r7
 800661a:	f85d 7b04 	ldr.w	r7, [sp], #4
 800661e:	4770      	bx	lr
 8006620:	20000394 	.word	0x20000394

08006624 <prvIdleTask>:
 8006624:	b580      	push	{r7, lr}
 8006626:	b082      	sub	sp, #8
 8006628:	af00      	add	r7, sp, #0
 800662a:	6078      	str	r0, [r7, #4]
 800662c:	f000 f852 	bl	80066d4 <prvCheckTasksWaitingTermination>
 8006630:	4b06      	ldr	r3, [pc, #24]	; (800664c <prvIdleTask+0x28>)
 8006632:	681b      	ldr	r3, [r3, #0]
 8006634:	2b01      	cmp	r3, #1
 8006636:	d9f9      	bls.n	800662c <prvIdleTask+0x8>
 8006638:	4b05      	ldr	r3, [pc, #20]	; (8006650 <prvIdleTask+0x2c>)
 800663a:	f04f 5280 	mov.w	r2, #268435456	; 0x10000000
 800663e:	601a      	str	r2, [r3, #0]
 8006640:	f3bf 8f4f 	dsb	sy
 8006644:	f3bf 8f6f 	isb	sy
 8006648:	e7f0      	b.n	800662c <prvIdleTask+0x8>
 800664a:	bf00      	nop
 800664c:	20000284 	.word	0x20000284
 8006650:	e000ed04 	.word	0xe000ed04

08006654 <prvInitialiseTaskLists>:
 8006654:	b580      	push	{r7, lr}
 8006656:	b082      	sub	sp, #8
 8006658:	af00      	add	r7, sp, #0
 800665a:	2300      	movs	r3, #0
 800665c:	607b      	str	r3, [r7, #4]
 800665e:	e00c      	b.n	800667a <prvInitialiseTaskLists+0x26>
 8006660:	687a      	ldr	r2, [r7, #4]
 8006662:	4613      	mov	r3, r2
 8006664:	009b      	lsls	r3, r3, #2
 8006666:	4413      	add	r3, r2
 8006668:	009b      	lsls	r3, r3, #2
 800666a:	4a12      	ldr	r2, [pc, #72]	; (80066b4 <prvInitialiseTaskLists+0x60>)
 800666c:	4413      	add	r3, r2
 800666e:	4618      	mov	r0, r3
 8006670:	f7fe fedc 	bl	800542c <vListInitialise>
 8006674:	687b      	ldr	r3, [r7, #4]
 8006676:	3301      	adds	r3, #1
 8006678:	607b      	str	r3, [r7, #4]
 800667a:	687b      	ldr	r3, [r7, #4]
 800667c:	2b06      	cmp	r3, #6
 800667e:	d9ef      	bls.n	8006660 <prvInitialiseTaskLists+0xc>
 8006680:	480d      	ldr	r0, [pc, #52]	; (80066b8 <prvInitialiseTaskLists+0x64>)
 8006682:	f7fe fed3 	bl	800542c <vListInitialise>
 8006686:	480d      	ldr	r0, [pc, #52]	; (80066bc <prvInitialiseTaskLists+0x68>)
 8006688:	f7fe fed0 	bl	800542c <vListInitialise>
 800668c:	480c      	ldr	r0, [pc, #48]	; (80066c0 <prvInitialiseTaskLists+0x6c>)
 800668e:	f7fe fecd 	bl	800542c <vListInitialise>
 8006692:	480c      	ldr	r0, [pc, #48]	; (80066c4 <prvInitialiseTaskLists+0x70>)
 8006694:	f7fe feca 	bl	800542c <vListInitialise>
 8006698:	480b      	ldr	r0, [pc, #44]	; (80066c8 <prvInitialiseTaskLists+0x74>)
 800669a:	f7fe fec7 	bl	800542c <vListInitialise>
 800669e:	4b0b      	ldr	r3, [pc, #44]	; (80066cc <prvInitialiseTaskLists+0x78>)
 80066a0:	4a05      	ldr	r2, [pc, #20]	; (80066b8 <prvInitialiseTaskLists+0x64>)
 80066a2:	601a      	str	r2, [r3, #0]
 80066a4:	4b0a      	ldr	r3, [pc, #40]	; (80066d0 <prvInitialiseTaskLists+0x7c>)
 80066a6:	4a05      	ldr	r2, [pc, #20]	; (80066bc <prvInitialiseTaskLists+0x68>)
 80066a8:	601a      	str	r2, [r3, #0]
 80066aa:	bf00      	nop
 80066ac:	3708      	adds	r7, #8
 80066ae:	46bd      	mov	sp, r7
 80066b0:	bd80      	pop	{r7, pc}
 80066b2:	bf00      	nop
 80066b4:	20000284 	.word	0x20000284
 80066b8:	20000310 	.word	0x20000310
 80066bc:	20000324 	.word	0x20000324
 80066c0:	20000340 	.word	0x20000340
 80066c4:	20000354 	.word	0x20000354
 80066c8:	2000036c 	.word	0x2000036c
 80066cc:	20000338 	.word	0x20000338
 80066d0:	2000033c 	.word	0x2000033c

080066d4 <prvCheckTasksWaitingTermination>:
 80066d4:	b580      	push	{r7, lr}
 80066d6:	b082      	sub	sp, #8
 80066d8:	af00      	add	r7, sp, #0
 80066da:	e019      	b.n	8006710 <prvCheckTasksWaitingTermination+0x3c>
 80066dc:	f000 fab2 	bl	8006c44 <vPortEnterCritical>
 80066e0:	4b10      	ldr	r3, [pc, #64]	; (8006724 <prvCheckTasksWaitingTermination+0x50>)
 80066e2:	68db      	ldr	r3, [r3, #12]
 80066e4:	68db      	ldr	r3, [r3, #12]
 80066e6:	607b      	str	r3, [r7, #4]
 80066e8:	687b      	ldr	r3, [r7, #4]
 80066ea:	3304      	adds	r3, #4
 80066ec:	4618      	mov	r0, r3
 80066ee:	f7fe ff27 	bl	8005540 <uxListRemove>
 80066f2:	4b0d      	ldr	r3, [pc, #52]	; (8006728 <prvCheckTasksWaitingTermination+0x54>)
 80066f4:	681b      	ldr	r3, [r3, #0]
 80066f6:	3b01      	subs	r3, #1
 80066f8:	4a0b      	ldr	r2, [pc, #44]	; (8006728 <prvCheckTasksWaitingTermination+0x54>)
 80066fa:	6013      	str	r3, [r2, #0]
 80066fc:	4b0b      	ldr	r3, [pc, #44]	; (800672c <prvCheckTasksWaitingTermination+0x58>)
 80066fe:	681b      	ldr	r3, [r3, #0]
 8006700:	3b01      	subs	r3, #1
 8006702:	4a0a      	ldr	r2, [pc, #40]	; (800672c <prvCheckTasksWaitingTermination+0x58>)
 8006704:	6013      	str	r3, [r2, #0]
 8006706:	f000 facd 	bl	8006ca4 <vPortExitCritical>
 800670a:	6878      	ldr	r0, [r7, #4]
 800670c:	f000 f810 	bl	8006730 <prvDeleteTCB>
 8006710:	4b06      	ldr	r3, [pc, #24]	; (800672c <prvCheckTasksWaitingTermination+0x58>)
 8006712:	681b      	ldr	r3, [r3, #0]
 8006714:	2b00      	cmp	r3, #0
 8006716:	d1e1      	bne.n	80066dc <prvCheckTasksWaitingTermination+0x8>
 8006718:	bf00      	nop
 800671a:	bf00      	nop
 800671c:	3708      	adds	r7, #8
 800671e:	46bd      	mov	sp, r7
 8006720:	bd80      	pop	{r7, pc}
 8006722:	bf00      	nop
 8006724:	20000354 	.word	0x20000354
 8006728:	20000380 	.word	0x20000380
 800672c:	20000368 	.word	0x20000368

08006730 <prvDeleteTCB>:
 8006730:	b580      	push	{r7, lr}
 8006732:	b084      	sub	sp, #16
 8006734:	af00      	add	r7, sp, #0
 8006736:	6078      	str	r0, [r7, #4]
 8006738:	687b      	ldr	r3, [r7, #4]
 800673a:	f893 3051 	ldrb.w	r3, [r3, #81]	; 0x51
 800673e:	2b00      	cmp	r3, #0
 8006740:	d108      	bne.n	8006754 <prvDeleteTCB+0x24>
 8006742:	687b      	ldr	r3, [r7, #4]
 8006744:	6b1b      	ldr	r3, [r3, #48]	; 0x30
 8006746:	4618      	mov	r0, r3
 8006748:	f000 fc2a 	bl	8006fa0 <vPortFree>
 800674c:	6878      	ldr	r0, [r7, #4]
 800674e:	f000 fc27 	bl	8006fa0 <vPortFree>
 8006752:	e018      	b.n	8006786 <prvDeleteTCB+0x56>
 8006754:	687b      	ldr	r3, [r7, #4]
 8006756:	f893 3051 	ldrb.w	r3, [r3, #81]	; 0x51
 800675a:	2b01      	cmp	r3, #1
 800675c:	d103      	bne.n	8006766 <prvDeleteTCB+0x36>
 800675e:	6878      	ldr	r0, [r7, #4]
 8006760:	f000 fc1e 	bl	8006fa0 <vPortFree>
 8006764:	e00f      	b.n	8006786 <prvDeleteTCB+0x56>
 8006766:	687b      	ldr	r3, [r7, #4]
 8006768:	f893 3051 	ldrb.w	r3, [r3, #81]	; 0x51
 800676c:	2b02      	cmp	r3, #2
 800676e:	d00a      	beq.n	8006786 <prvDeleteTCB+0x56>
 8006770:	f04f 0350 	mov.w	r3, #80	; 0x50
 8006774:	f383 8811 	msr	BASEPRI, r3
 8006778:	f3bf 8f6f 	isb	sy
 800677c:	f3bf 8f4f 	dsb	sy
 8006780:	60fb      	str	r3, [r7, #12]
 8006782:	bf00      	nop
 8006784:	e7fe      	b.n	8006784 <prvDeleteTCB+0x54>
 8006786:	bf00      	nop
 8006788:	3710      	adds	r7, #16
 800678a:	46bd      	mov	sp, r7
 800678c:	bd80      	pop	{r7, pc}
	...

08006790 <prvResetNextTaskUnblockTime>:
 8006790:	b480      	push	{r7}
 8006792:	b083      	sub	sp, #12
 8006794:	af00      	add	r7, sp, #0
 8006796:	4b0c      	ldr	r3, [pc, #48]	; (80067c8 <prvResetNextTaskUnblockTime+0x38>)
 8006798:	681b      	ldr	r3, [r3, #0]
 800679a:	681b      	ldr	r3, [r3, #0]
 800679c:	2b00      	cmp	r3, #0
 800679e:	d104      	bne.n	80067aa <prvResetNextTaskUnblockTime+0x1a>
 80067a0:	4b0a      	ldr	r3, [pc, #40]	; (80067cc <prvResetNextTaskUnblockTime+0x3c>)
 80067a2:	f04f 32ff 	mov.w	r2, #4294967295
 80067a6:	601a      	str	r2, [r3, #0]
 80067a8:	e008      	b.n	80067bc <prvResetNextTaskUnblockTime+0x2c>
 80067aa:	4b07      	ldr	r3, [pc, #28]	; (80067c8 <prvResetNextTaskUnblockTime+0x38>)
 80067ac:	681b      	ldr	r3, [r3, #0]
 80067ae:	68db      	ldr	r3, [r3, #12]
 80067b0:	68db      	ldr	r3, [r3, #12]
 80067b2:	607b      	str	r3, [r7, #4]
 80067b4:	687b      	ldr	r3, [r7, #4]
 80067b6:	685b      	ldr	r3, [r3, #4]
 80067b8:	4a04      	ldr	r2, [pc, #16]	; (80067cc <prvResetNextTaskUnblockTime+0x3c>)
 80067ba:	6013      	str	r3, [r2, #0]
 80067bc:	bf00      	nop
 80067be:	370c      	adds	r7, #12
 80067c0:	46bd      	mov	sp, r7
 80067c2:	f85d 7b04 	ldr.w	r7, [sp], #4
 80067c6:	4770      	bx	lr
 80067c8:	20000338 	.word	0x20000338
 80067cc:	200003a0 	.word	0x200003a0

080067d0 <xTaskGetSchedulerState>:
 80067d0:	b480      	push	{r7}
 80067d2:	b083      	sub	sp, #12
 80067d4:	af00      	add	r7, sp, #0
 80067d6:	4b0b      	ldr	r3, [pc, #44]	; (8006804 <xTaskGetSchedulerState+0x34>)
 80067d8:	681b      	ldr	r3, [r3, #0]
 80067da:	2b00      	cmp	r3, #0
 80067dc:	d102      	bne.n	80067e4 <xTaskGetSchedulerState+0x14>
 80067de:	2301      	movs	r3, #1
 80067e0:	607b      	str	r3, [r7, #4]
 80067e2:	e008      	b.n	80067f6 <xTaskGetSchedulerState+0x26>
 80067e4:	4b08      	ldr	r3, [pc, #32]	; (8006808 <xTaskGetSchedulerState+0x38>)
 80067e6:	681b      	ldr	r3, [r3, #0]
 80067e8:	2b00      	cmp	r3, #0
 80067ea:	d102      	bne.n	80067f2 <xTaskGetSchedulerState+0x22>
 80067ec:	2302      	movs	r3, #2
 80067ee:	607b      	str	r3, [r7, #4]
 80067f0:	e001      	b.n	80067f6 <xTaskGetSchedulerState+0x26>
 80067f2:	2300      	movs	r3, #0
 80067f4:	607b      	str	r3, [r7, #4]
 80067f6:	687b      	ldr	r3, [r7, #4]
 80067f8:	4618      	mov	r0, r3
 80067fa:	370c      	adds	r7, #12
 80067fc:	46bd      	mov	sp, r7
 80067fe:	f85d 7b04 	ldr.w	r7, [sp], #4
 8006802:	4770      	bx	lr
 8006804:	2000038c 	.word	0x2000038c
 8006808:	200003a8 	.word	0x200003a8

0800680c <xTaskPriorityDisinherit>:
 800680c:	b580      	push	{r7, lr}
 800680e:	b086      	sub	sp, #24
 8006810:	af00      	add	r7, sp, #0
 8006812:	6078      	str	r0, [r7, #4]
 8006814:	687b      	ldr	r3, [r7, #4]
 8006816:	613b      	str	r3, [r7, #16]
 8006818:	2300      	movs	r3, #0
 800681a:	617b      	str	r3, [r7, #20]
 800681c:	687b      	ldr	r3, [r7, #4]
 800681e:	2b00      	cmp	r3, #0
 8006820:	d06e      	beq.n	8006900 <xTaskPriorityDisinherit+0xf4>
 8006822:	4b3a      	ldr	r3, [pc, #232]	; (800690c <xTaskPriorityDisinherit+0x100>)
 8006824:	681b      	ldr	r3, [r3, #0]
 8006826:	693a      	ldr	r2, [r7, #16]
 8006828:	429a      	cmp	r2, r3
 800682a:	d00a      	beq.n	8006842 <xTaskPriorityDisinherit+0x36>
 800682c:	f04f 0350 	mov.w	r3, #80	; 0x50
 8006830:	f383 8811 	msr	BASEPRI, r3
 8006834:	f3bf 8f6f 	isb	sy
 8006838:	f3bf 8f4f 	dsb	sy
 800683c:	60fb      	str	r3, [r7, #12]
 800683e:	bf00      	nop
 8006840:	e7fe      	b.n	8006840 <xTaskPriorityDisinherit+0x34>
 8006842:	693b      	ldr	r3, [r7, #16]
 8006844:	6c9b      	ldr	r3, [r3, #72]	; 0x48
 8006846:	2b00      	cmp	r3, #0
 8006848:	d10a      	bne.n	8006860 <xTaskPriorityDisinherit+0x54>
 800684a:	f04f 0350 	mov.w	r3, #80	; 0x50
 800684e:	f383 8811 	msr	BASEPRI, r3
 8006852:	f3bf 8f6f 	isb	sy
 8006856:	f3bf 8f4f 	dsb	sy
 800685a:	60bb      	str	r3, [r7, #8]
 800685c:	bf00      	nop
 800685e:	e7fe      	b.n	800685e <xTaskPriorityDisinherit+0x52>
 8006860:	693b      	ldr	r3, [r7, #16]
 8006862:	6c9b      	ldr	r3, [r3, #72]	; 0x48
 8006864:	1e5a      	subs	r2, r3, #1
 8006866:	693b      	ldr	r3, [r7, #16]
 8006868:	649a      	str	r2, [r3, #72]	; 0x48
 800686a:	693b      	ldr	r3, [r7, #16]
 800686c:	6ada      	ldr	r2, [r3, #44]	; 0x2c
 800686e:	693b      	ldr	r3, [r7, #16]
 8006870:	6c5b      	ldr	r3, [r3, #68]	; 0x44
 8006872:	429a      	cmp	r2, r3
 8006874:	d044      	beq.n	8006900 <xTaskPriorityDisinherit+0xf4>
 8006876:	693b      	ldr	r3, [r7, #16]
 8006878:	6c9b      	ldr	r3, [r3, #72]	; 0x48
 800687a:	2b00      	cmp	r3, #0
 800687c:	d140      	bne.n	8006900 <xTaskPriorityDisinherit+0xf4>
 800687e:	693b      	ldr	r3, [r7, #16]
 8006880:	3304      	adds	r3, #4
 8006882:	4618      	mov	r0, r3
 8006884:	f7fe fe5c 	bl	8005540 <uxListRemove>
 8006888:	4603      	mov	r3, r0
 800688a:	2b00      	cmp	r3, #0
 800688c:	d115      	bne.n	80068ba <xTaskPriorityDisinherit+0xae>
 800688e:	693b      	ldr	r3, [r7, #16]
 8006890:	6ada      	ldr	r2, [r3, #44]	; 0x2c
 8006892:	491f      	ldr	r1, [pc, #124]	; (8006910 <xTaskPriorityDisinherit+0x104>)
 8006894:	4613      	mov	r3, r2
 8006896:	009b      	lsls	r3, r3, #2
 8006898:	4413      	add	r3, r2
 800689a:	009b      	lsls	r3, r3, #2
 800689c:	440b      	add	r3, r1
 800689e:	681b      	ldr	r3, [r3, #0]
 80068a0:	2b00      	cmp	r3, #0
 80068a2:	d10a      	bne.n	80068ba <xTaskPriorityDisinherit+0xae>
 80068a4:	693b      	ldr	r3, [r7, #16]
 80068a6:	6adb      	ldr	r3, [r3, #44]	; 0x2c
 80068a8:	2201      	movs	r2, #1
 80068aa:	fa02 f303 	lsl.w	r3, r2, r3
 80068ae:	43da      	mvns	r2, r3
 80068b0:	4b18      	ldr	r3, [pc, #96]	; (8006914 <xTaskPriorityDisinherit+0x108>)
 80068b2:	681b      	ldr	r3, [r3, #0]
 80068b4:	4013      	ands	r3, r2
 80068b6:	4a17      	ldr	r2, [pc, #92]	; (8006914 <xTaskPriorityDisinherit+0x108>)
 80068b8:	6013      	str	r3, [r2, #0]
 80068ba:	693b      	ldr	r3, [r7, #16]
 80068bc:	6c5a      	ldr	r2, [r3, #68]	; 0x44
 80068be:	693b      	ldr	r3, [r7, #16]
 80068c0:	62da      	str	r2, [r3, #44]	; 0x2c
 80068c2:	693b      	ldr	r3, [r7, #16]
 80068c4:	6adb      	ldr	r3, [r3, #44]	; 0x2c
 80068c6:	f1c3 0207 	rsb	r2, r3, #7
 80068ca:	693b      	ldr	r3, [r7, #16]
 80068cc:	619a      	str	r2, [r3, #24]
 80068ce:	693b      	ldr	r3, [r7, #16]
 80068d0:	6adb      	ldr	r3, [r3, #44]	; 0x2c
 80068d2:	2201      	movs	r2, #1
 80068d4:	409a      	lsls	r2, r3
 80068d6:	4b0f      	ldr	r3, [pc, #60]	; (8006914 <xTaskPriorityDisinherit+0x108>)
 80068d8:	681b      	ldr	r3, [r3, #0]
 80068da:	4313      	orrs	r3, r2
 80068dc:	4a0d      	ldr	r2, [pc, #52]	; (8006914 <xTaskPriorityDisinherit+0x108>)
 80068de:	6013      	str	r3, [r2, #0]
 80068e0:	693b      	ldr	r3, [r7, #16]
 80068e2:	6ada      	ldr	r2, [r3, #44]	; 0x2c
 80068e4:	4613      	mov	r3, r2
 80068e6:	009b      	lsls	r3, r3, #2
 80068e8:	4413      	add	r3, r2
 80068ea:	009b      	lsls	r3, r3, #2
 80068ec:	4a08      	ldr	r2, [pc, #32]	; (8006910 <xTaskPriorityDisinherit+0x104>)
 80068ee:	441a      	add	r2, r3
 80068f0:	693b      	ldr	r3, [r7, #16]
 80068f2:	3304      	adds	r3, #4
 80068f4:	4619      	mov	r1, r3
 80068f6:	4610      	mov	r0, r2
 80068f8:	f7fe fdc5 	bl	8005486 <vListInsertEnd>
 80068fc:	2301      	movs	r3, #1
 80068fe:	617b      	str	r3, [r7, #20]
 8006900:	697b      	ldr	r3, [r7, #20]
 8006902:	4618      	mov	r0, r3
 8006904:	3718      	adds	r7, #24
 8006906:	46bd      	mov	sp, r7
 8006908:	bd80      	pop	{r7, pc}
 800690a:	bf00      	nop
 800690c:	20000280 	.word	0x20000280
 8006910:	20000284 	.word	0x20000284
 8006914:	20000388 	.word	0x20000388

08006918 <prvAddCurrentTaskToDelayedList>:
 8006918:	b580      	push	{r7, lr}
 800691a:	b084      	sub	sp, #16
 800691c:	af00      	add	r7, sp, #0
 800691e:	6078      	str	r0, [r7, #4]
 8006920:	6039      	str	r1, [r7, #0]
 8006922:	4b29      	ldr	r3, [pc, #164]	; (80069c8 <prvAddCurrentTaskToDelayedList+0xb0>)
 8006924:	681b      	ldr	r3, [r3, #0]
 8006926:	60fb      	str	r3, [r7, #12]
 8006928:	4b28      	ldr	r3, [pc, #160]	; (80069cc <prvAddCurrentTaskToDelayedList+0xb4>)
 800692a:	681b      	ldr	r3, [r3, #0]
 800692c:	3304      	adds	r3, #4
 800692e:	4618      	mov	r0, r3
 8006930:	f7fe fe06 	bl	8005540 <uxListRemove>
 8006934:	4603      	mov	r3, r0
 8006936:	2b00      	cmp	r3, #0
 8006938:	d10b      	bne.n	8006952 <prvAddCurrentTaskToDelayedList+0x3a>
 800693a:	4b24      	ldr	r3, [pc, #144]	; (80069cc <prvAddCurrentTaskToDelayedList+0xb4>)
 800693c:	681b      	ldr	r3, [r3, #0]
 800693e:	6adb      	ldr	r3, [r3, #44]	; 0x2c
 8006940:	2201      	movs	r2, #1
 8006942:	fa02 f303 	lsl.w	r3, r2, r3
 8006946:	43da      	mvns	r2, r3
 8006948:	4b21      	ldr	r3, [pc, #132]	; (80069d0 <prvAddCurrentTaskToDelayedList+0xb8>)
 800694a:	681b      	ldr	r3, [r3, #0]
 800694c:	4013      	ands	r3, r2
 800694e:	4a20      	ldr	r2, [pc, #128]	; (80069d0 <prvAddCurrentTaskToDelayedList+0xb8>)
 8006950:	6013      	str	r3, [r2, #0]
 8006952:	687b      	ldr	r3, [r7, #4]
 8006954:	f1b3 3fff 	cmp.w	r3, #4294967295
 8006958:	d10a      	bne.n	8006970 <prvAddCurrentTaskToDelayedList+0x58>
 800695a:	683b      	ldr	r3, [r7, #0]
 800695c:	2b00      	cmp	r3, #0
 800695e:	d007      	beq.n	8006970 <prvAddCurrentTaskToDelayedList+0x58>
 8006960:	4b1a      	ldr	r3, [pc, #104]	; (80069cc <prvAddCurrentTaskToDelayedList+0xb4>)
 8006962:	681b      	ldr	r3, [r3, #0]
 8006964:	3304      	adds	r3, #4
 8006966:	4619      	mov	r1, r3
 8006968:	481a      	ldr	r0, [pc, #104]	; (80069d4 <prvAddCurrentTaskToDelayedList+0xbc>)
 800696a:	f7fe fd8c 	bl	8005486 <vListInsertEnd>
 800696e:	e026      	b.n	80069be <prvAddCurrentTaskToDelayedList+0xa6>
 8006970:	68fa      	ldr	r2, [r7, #12]
 8006972:	687b      	ldr	r3, [r7, #4]
 8006974:	4413      	add	r3, r2
 8006976:	60bb      	str	r3, [r7, #8]
 8006978:	4b14      	ldr	r3, [pc, #80]	; (80069cc <prvAddCurrentTaskToDelayedList+0xb4>)
 800697a:	681b      	ldr	r3, [r3, #0]
 800697c:	68ba      	ldr	r2, [r7, #8]
 800697e:	605a      	str	r2, [r3, #4]
 8006980:	68ba      	ldr	r2, [r7, #8]
 8006982:	68fb      	ldr	r3, [r7, #12]
 8006984:	429a      	cmp	r2, r3
 8006986:	d209      	bcs.n	800699c <prvAddCurrentTaskToDelayedList+0x84>
 8006988:	4b13      	ldr	r3, [pc, #76]	; (80069d8 <prvAddCurrentTaskToDelayedList+0xc0>)
 800698a:	681a      	ldr	r2, [r3, #0]
 800698c:	4b0f      	ldr	r3, [pc, #60]	; (80069cc <prvAddCurrentTaskToDelayedList+0xb4>)
 800698e:	681b      	ldr	r3, [r3, #0]
 8006990:	3304      	adds	r3, #4
 8006992:	4619      	mov	r1, r3
 8006994:	4610      	mov	r0, r2
 8006996:	f7fe fd9a 	bl	80054ce <vListInsert>
 800699a:	e010      	b.n	80069be <prvAddCurrentTaskToDelayedList+0xa6>
 800699c:	4b0f      	ldr	r3, [pc, #60]	; (80069dc <prvAddCurrentTaskToDelayedList+0xc4>)
 800699e:	681a      	ldr	r2, [r3, #0]
 80069a0:	4b0a      	ldr	r3, [pc, #40]	; (80069cc <prvAddCurrentTaskToDelayedList+0xb4>)
 80069a2:	681b      	ldr	r3, [r3, #0]
 80069a4:	3304      	adds	r3, #4
 80069a6:	4619      	mov	r1, r3
 80069a8:	4610      	mov	r0, r2
 80069aa:	f7fe fd90 	bl	80054ce <vListInsert>
 80069ae:	4b0c      	ldr	r3, [pc, #48]	; (80069e0 <prvAddCurrentTaskToDelayedList+0xc8>)
 80069b0:	681b      	ldr	r3, [r3, #0]
 80069b2:	68ba      	ldr	r2, [r7, #8]
 80069b4:	429a      	cmp	r2, r3
 80069b6:	d202      	bcs.n	80069be <prvAddCurrentTaskToDelayedList+0xa6>
 80069b8:	4a09      	ldr	r2, [pc, #36]	; (80069e0 <prvAddCurrentTaskToDelayedList+0xc8>)
 80069ba:	68bb      	ldr	r3, [r7, #8]
 80069bc:	6013      	str	r3, [r2, #0]
 80069be:	bf00      	nop
 80069c0:	3710      	adds	r7, #16
 80069c2:	46bd      	mov	sp, r7
 80069c4:	bd80      	pop	{r7, pc}
 80069c6:	bf00      	nop
 80069c8:	20000384 	.word	0x20000384
 80069cc:	20000280 	.word	0x20000280
 80069d0:	20000388 	.word	0x20000388
 80069d4:	2000036c 	.word	0x2000036c
 80069d8:	2000033c 	.word	0x2000033c
 80069dc:	20000338 	.word	0x20000338
 80069e0:	200003a0 	.word	0x200003a0

080069e4 <pxPortInitialiseStack>:
 80069e4:	b480      	push	{r7}
 80069e6:	b085      	sub	sp, #20
 80069e8:	af00      	add	r7, sp, #0
 80069ea:	60f8      	str	r0, [r7, #12]
 80069ec:	60b9      	str	r1, [r7, #8]
 80069ee:	607a      	str	r2, [r7, #4]
 80069f0:	68fb      	ldr	r3, [r7, #12]
 80069f2:	3b04      	subs	r3, #4
 80069f4:	60fb      	str	r3, [r7, #12]
 80069f6:	68fb      	ldr	r3, [r7, #12]
 80069f8:	f04f 7280 	mov.w	r2, #16777216	; 0x1000000
 80069fc:	601a      	str	r2, [r3, #0]
 80069fe:	68fb      	ldr	r3, [r7, #12]
 8006a00:	3b04      	subs	r3, #4
 8006a02:	60fb      	str	r3, [r7, #12]
 8006a04:	68bb      	ldr	r3, [r7, #8]
 8006a06:	f023 0201 	bic.w	r2, r3, #1
 8006a0a:	68fb      	ldr	r3, [r7, #12]
 8006a0c:	601a      	str	r2, [r3, #0]
 8006a0e:	68fb      	ldr	r3, [r7, #12]
 8006a10:	3b04      	subs	r3, #4
 8006a12:	60fb      	str	r3, [r7, #12]
 8006a14:	4a0c      	ldr	r2, [pc, #48]	; (8006a48 <pxPortInitialiseStack+0x64>)
 8006a16:	68fb      	ldr	r3, [r7, #12]
 8006a18:	601a      	str	r2, [r3, #0]
 8006a1a:	68fb      	ldr	r3, [r7, #12]
 8006a1c:	3b14      	subs	r3, #20
 8006a1e:	60fb      	str	r3, [r7, #12]
 8006a20:	687a      	ldr	r2, [r7, #4]
 8006a22:	68fb      	ldr	r3, [r7, #12]
 8006a24:	601a      	str	r2, [r3, #0]
 8006a26:	68fb      	ldr	r3, [r7, #12]
 8006a28:	3b04      	subs	r3, #4
 8006a2a:	60fb      	str	r3, [r7, #12]
 8006a2c:	68fb      	ldr	r3, [r7, #12]
 8006a2e:	f06f 0202 	mvn.w	r2, #2
 8006a32:	601a      	str	r2, [r3, #0]
 8006a34:	68fb      	ldr	r3, [r7, #12]
 8006a36:	3b20      	subs	r3, #32
 8006a38:	60fb      	str	r3, [r7, #12]
 8006a3a:	68fb      	ldr	r3, [r7, #12]
 8006a3c:	4618      	mov	r0, r3
 8006a3e:	3714      	adds	r7, #20
 8006a40:	46bd      	mov	sp, r7
 8006a42:	f85d 7b04 	ldr.w	r7, [sp], #4
 8006a46:	4770      	bx	lr
 8006a48:	08006a4d 	.word	0x08006a4d

08006a4c <prvTaskExitError>:
 8006a4c:	b480      	push	{r7}
 8006a4e:	b085      	sub	sp, #20
 8006a50:	af00      	add	r7, sp, #0
 8006a52:	2300      	movs	r3, #0
 8006a54:	607b      	str	r3, [r7, #4]
 8006a56:	4b12      	ldr	r3, [pc, #72]	; (8006aa0 <prvTaskExitError+0x54>)
 8006a58:	681b      	ldr	r3, [r3, #0]
 8006a5a:	f1b3 3fff 	cmp.w	r3, #4294967295
 8006a5e:	d00a      	beq.n	8006a76 <prvTaskExitError+0x2a>
 8006a60:	f04f 0350 	mov.w	r3, #80	; 0x50
 8006a64:	f383 8811 	msr	BASEPRI, r3
 8006a68:	f3bf 8f6f 	isb	sy
 8006a6c:	f3bf 8f4f 	dsb	sy
 8006a70:	60fb      	str	r3, [r7, #12]
 8006a72:	bf00      	nop
 8006a74:	e7fe      	b.n	8006a74 <prvTaskExitError+0x28>
 8006a76:	f04f 0350 	mov.w	r3, #80	; 0x50
 8006a7a:	f383 8811 	msr	BASEPRI, r3
 8006a7e:	f3bf 8f6f 	isb	sy
 8006a82:	f3bf 8f4f 	dsb	sy
 8006a86:	60bb      	str	r3, [r7, #8]
 8006a88:	bf00      	nop
 8006a8a:	bf00      	nop
 8006a8c:	687b      	ldr	r3, [r7, #4]
 8006a8e:	2b00      	cmp	r3, #0
 8006a90:	d0fc      	beq.n	8006a8c <prvTaskExitError+0x40>
 8006a92:	bf00      	nop
 8006a94:	bf00      	nop
 8006a96:	3714      	adds	r7, #20
 8006a98:	46bd      	mov	sp, r7
 8006a9a:	f85d 7b04 	ldr.w	r7, [sp], #4
 8006a9e:	4770      	bx	lr
 8006aa0:	2000000c 	.word	0x2000000c
	...

08006ab0 <SVC_Handler>:
 8006ab0:	4b07      	ldr	r3, [pc, #28]	; (8006ad0 <pxCurrentTCBConst2>)
 8006ab2:	6819      	ldr	r1, [r3, #0]
 8006ab4:	6808      	ldr	r0, [r1, #0]
 8006ab6:	e8b0 4ff0 	ldmia.w	r0!, {r4, r5, r6, r7, r8, r9, sl, fp, lr}
 8006aba:	f380 8809 	msr	PSP, r0
 8006abe:	f3bf 8f6f 	isb	sy
 8006ac2:	f04f 0000 	mov.w	r0, #0
 8006ac6:	f380 8811 	msr	BASEPRI, r0
 8006aca:	4770      	bx	lr
 8006acc:	f3af 8000 	nop.w

08006ad0 <pxCurrentTCBConst2>:
 8006ad0:	20000280 	.word	0x20000280
 8006ad4:	bf00      	nop
 8006ad6:	bf00      	nop

08006ad8 <prvPortStartFirstTask>:
 8006ad8:	4808      	ldr	r0, [pc, #32]	; (8006afc <prvPortStartFirstTask+0x24>)
 8006ada:	6800      	ldr	r0, [r0, #0]
 8006adc:	6800      	ldr	r0, [r0, #0]
 8006ade:	f380 8808 	msr	MSP, r0
 8006ae2:	f04f 0000 	mov.w	r0, #0
 8006ae6:	f380 8814 	msr	CONTROL, r0
 8006aea:	b662      	cpsie	i
 8006aec:	b661      	cpsie	f
 8006aee:	f3bf 8f4f 	dsb	sy
 8006af2:	f3bf 8f6f 	isb	sy
 8006af6:	df00      	svc	0
 8006af8:	bf00      	nop
 8006afa:	bf00      	nop
 8006afc:	e000ed08 	.word	0xe000ed08

08006b00 <xPortStartScheduler>:
 8006b00:	b580      	push	{r7, lr}
 8006b02:	b086      	sub	sp, #24
 8006b04:	af00      	add	r7, sp, #0
 8006b06:	4b46      	ldr	r3, [pc, #280]	; (8006c20 <xPortStartScheduler+0x120>)
 8006b08:	681b      	ldr	r3, [r3, #0]
 8006b0a:	4a46      	ldr	r2, [pc, #280]	; (8006c24 <xPortStartScheduler+0x124>)
 8006b0c:	4293      	cmp	r3, r2
 8006b0e:	d10a      	bne.n	8006b26 <xPortStartScheduler+0x26>
 8006b10:	f04f 0350 	mov.w	r3, #80	; 0x50
 8006b14:	f383 8811 	msr	BASEPRI, r3
 8006b18:	f3bf 8f6f 	isb	sy
 8006b1c:	f3bf 8f4f 	dsb	sy
 8006b20:	613b      	str	r3, [r7, #16]
 8006b22:	bf00      	nop
 8006b24:	e7fe      	b.n	8006b24 <xPortStartScheduler+0x24>
 8006b26:	4b3e      	ldr	r3, [pc, #248]	; (8006c20 <xPortStartScheduler+0x120>)
 8006b28:	681b      	ldr	r3, [r3, #0]
 8006b2a:	4a3f      	ldr	r2, [pc, #252]	; (8006c28 <xPortStartScheduler+0x128>)
 8006b2c:	4293      	cmp	r3, r2
 8006b2e:	d10a      	bne.n	8006b46 <xPortStartScheduler+0x46>
 8006b30:	f04f 0350 	mov.w	r3, #80	; 0x50
 8006b34:	f383 8811 	msr	BASEPRI, r3
 8006b38:	f3bf 8f6f 	isb	sy
 8006b3c:	f3bf 8f4f 	dsb	sy
 8006b40:	60fb      	str	r3, [r7, #12]
 8006b42:	bf00      	nop
 8006b44:	e7fe      	b.n	8006b44 <xPortStartScheduler+0x44>
 8006b46:	4b39      	ldr	r3, [pc, #228]	; (8006c2c <xPortStartScheduler+0x12c>)
 8006b48:	617b      	str	r3, [r7, #20]
 8006b4a:	697b      	ldr	r3, [r7, #20]
 8006b4c:	781b      	ldrb	r3, [r3, #0]
 8006b4e:	b2db      	uxtb	r3, r3
 8006b50:	607b      	str	r3, [r7, #4]
 8006b52:	697b      	ldr	r3, [r7, #20]
 8006b54:	22ff      	movs	r2, #255	; 0xff
 8006b56:	701a      	strb	r2, [r3, #0]
 8006b58:	697b      	ldr	r3, [r7, #20]
 8006b5a:	781b      	ldrb	r3, [r3, #0]
 8006b5c:	b2db      	uxtb	r3, r3
 8006b5e:	70fb      	strb	r3, [r7, #3]
 8006b60:	78fb      	ldrb	r3, [r7, #3]
 8006b62:	b2db      	uxtb	r3, r3
 8006b64:	f003 0350 	and.w	r3, r3, #80	; 0x50
 8006b68:	b2da      	uxtb	r2, r3
 8006b6a:	4b31      	ldr	r3, [pc, #196]	; (8006c30 <xPortStartScheduler+0x130>)
 8006b6c:	701a      	strb	r2, [r3, #0]
 8006b6e:	4b31      	ldr	r3, [pc, #196]	; (8006c34 <xPortStartScheduler+0x134>)
 8006b70:	2207      	movs	r2, #7
 8006b72:	601a      	str	r2, [r3, #0]
 8006b74:	e009      	b.n	8006b8a <xPortStartScheduler+0x8a>
 8006b76:	4b2f      	ldr	r3, [pc, #188]	; (8006c34 <xPortStartScheduler+0x134>)
 8006b78:	681b      	ldr	r3, [r3, #0]
 8006b7a:	3b01      	subs	r3, #1
 8006b7c:	4a2d      	ldr	r2, [pc, #180]	; (8006c34 <xPortStartScheduler+0x134>)
 8006b7e:	6013      	str	r3, [r2, #0]
 8006b80:	78fb      	ldrb	r3, [r7, #3]
 8006b82:	b2db      	uxtb	r3, r3
 8006b84:	005b      	lsls	r3, r3, #1
 8006b86:	b2db      	uxtb	r3, r3
 8006b88:	70fb      	strb	r3, [r7, #3]
 8006b8a:	78fb      	ldrb	r3, [r7, #3]
 8006b8c:	b2db      	uxtb	r3, r3
 8006b8e:	f003 0380 	and.w	r3, r3, #128	; 0x80
 8006b92:	2b80      	cmp	r3, #128	; 0x80
 8006b94:	d0ef      	beq.n	8006b76 <xPortStartScheduler+0x76>
 8006b96:	4b27      	ldr	r3, [pc, #156]	; (8006c34 <xPortStartScheduler+0x134>)
 8006b98:	681b      	ldr	r3, [r3, #0]
 8006b9a:	f1c3 0307 	rsb	r3, r3, #7
 8006b9e:	2b04      	cmp	r3, #4
 8006ba0:	d00a      	beq.n	8006bb8 <xPortStartScheduler+0xb8>
 8006ba2:	f04f 0350 	mov.w	r3, #80	; 0x50
 8006ba6:	f383 8811 	msr	BASEPRI, r3
 8006baa:	f3bf 8f6f 	isb	sy
 8006bae:	f3bf 8f4f 	dsb	sy
 8006bb2:	60bb      	str	r3, [r7, #8]
 8006bb4:	bf00      	nop
 8006bb6:	e7fe      	b.n	8006bb6 <xPortStartScheduler+0xb6>
 8006bb8:	4b1e      	ldr	r3, [pc, #120]	; (8006c34 <xPortStartScheduler+0x134>)
 8006bba:	681b      	ldr	r3, [r3, #0]
 8006bbc:	021b      	lsls	r3, r3, #8
 8006bbe:	4a1d      	ldr	r2, [pc, #116]	; (8006c34 <xPortStartScheduler+0x134>)
 8006bc0:	6013      	str	r3, [r2, #0]
 8006bc2:	4b1c      	ldr	r3, [pc, #112]	; (8006c34 <xPortStartScheduler+0x134>)
 8006bc4:	681b      	ldr	r3, [r3, #0]
 8006bc6:	f403 63e0 	and.w	r3, r3, #1792	; 0x700
 8006bca:	4a1a      	ldr	r2, [pc, #104]	; (8006c34 <xPortStartScheduler+0x134>)
 8006bcc:	6013      	str	r3, [r2, #0]
 8006bce:	687b      	ldr	r3, [r7, #4]
 8006bd0:	b2da      	uxtb	r2, r3
 8006bd2:	697b      	ldr	r3, [r7, #20]
 8006bd4:	701a      	strb	r2, [r3, #0]
 8006bd6:	4b18      	ldr	r3, [pc, #96]	; (8006c38 <xPortStartScheduler+0x138>)
 8006bd8:	681b      	ldr	r3, [r3, #0]
 8006bda:	4a17      	ldr	r2, [pc, #92]	; (8006c38 <xPortStartScheduler+0x138>)
 8006bdc:	f443 0370 	orr.w	r3, r3, #15728640	; 0xf00000
 8006be0:	6013      	str	r3, [r2, #0]
 8006be2:	4b15      	ldr	r3, [pc, #84]	; (8006c38 <xPortStartScheduler+0x138>)
 8006be4:	681b      	ldr	r3, [r3, #0]
 8006be6:	4a14      	ldr	r2, [pc, #80]	; (8006c38 <xPortStartScheduler+0x138>)
 8006be8:	f043 4370 	orr.w	r3, r3, #4026531840	; 0xf0000000
 8006bec:	6013      	str	r3, [r2, #0]
 8006bee:	f000 f8dd 	bl	8006dac <vPortSetupTimerInterrupt>
 8006bf2:	4b12      	ldr	r3, [pc, #72]	; (8006c3c <xPortStartScheduler+0x13c>)
 8006bf4:	2200      	movs	r2, #0
 8006bf6:	601a      	str	r2, [r3, #0]
 8006bf8:	f000 f8fc 	bl	8006df4 <vPortEnableVFP>
 8006bfc:	4b10      	ldr	r3, [pc, #64]	; (8006c40 <xPortStartScheduler+0x140>)
 8006bfe:	681b      	ldr	r3, [r3, #0]
 8006c00:	4a0f      	ldr	r2, [pc, #60]	; (8006c40 <xPortStartScheduler+0x140>)
 8006c02:	f043 4340 	orr.w	r3, r3, #3221225472	; 0xc0000000
 8006c06:	6013      	str	r3, [r2, #0]
 8006c08:	f7ff ff66 	bl	8006ad8 <prvPortStartFirstTask>
 8006c0c:	f7ff fba4 	bl	8006358 <vTaskSwitchContext>
 8006c10:	f7ff ff1c 	bl	8006a4c <prvTaskExitError>
 8006c14:	2300      	movs	r3, #0
 8006c16:	4618      	mov	r0, r3
 8006c18:	3718      	adds	r7, #24
 8006c1a:	46bd      	mov	sp, r7
 8006c1c:	bd80      	pop	{r7, pc}
 8006c1e:	bf00      	nop
 8006c20:	e000ed00 	.word	0xe000ed00
 8006c24:	410fc271 	.word	0x410fc271
 8006c28:	410fc270 	.word	0x410fc270
 8006c2c:	e000e400 	.word	0xe000e400
 8006c30:	200003ac 	.word	0x200003ac
 8006c34:	200003b0 	.word	0x200003b0
 8006c38:	e000ed20 	.word	0xe000ed20
 8006c3c:	2000000c 	.word	0x2000000c
 8006c40:	e000ef34 	.word	0xe000ef34

08006c44 <vPortEnterCritical>:
 8006c44:	b480      	push	{r7}
 8006c46:	b083      	sub	sp, #12
 8006c48:	af00      	add	r7, sp, #0
 8006c4a:	f04f 0350 	mov.w	r3, #80	; 0x50
 8006c4e:	f383 8811 	msr	BASEPRI, r3
 8006c52:	f3bf 8f6f 	isb	sy
 8006c56:	f3bf 8f4f 	dsb	sy
 8006c5a:	607b      	str	r3, [r7, #4]
 8006c5c:	bf00      	nop
 8006c5e:	4b0f      	ldr	r3, [pc, #60]	; (8006c9c <vPortEnterCritical+0x58>)
 8006c60:	681b      	ldr	r3, [r3, #0]
 8006c62:	3301      	adds	r3, #1
 8006c64:	4a0d      	ldr	r2, [pc, #52]	; (8006c9c <vPortEnterCritical+0x58>)
 8006c66:	6013      	str	r3, [r2, #0]
 8006c68:	4b0c      	ldr	r3, [pc, #48]	; (8006c9c <vPortEnterCritical+0x58>)
 8006c6a:	681b      	ldr	r3, [r3, #0]
 8006c6c:	2b01      	cmp	r3, #1
 8006c6e:	d10f      	bne.n	8006c90 <vPortEnterCritical+0x4c>
 8006c70:	4b0b      	ldr	r3, [pc, #44]	; (8006ca0 <vPortEnterCritical+0x5c>)
 8006c72:	681b      	ldr	r3, [r3, #0]
 8006c74:	b2db      	uxtb	r3, r3
 8006c76:	2b00      	cmp	r3, #0
 8006c78:	d00a      	beq.n	8006c90 <vPortEnterCritical+0x4c>
 8006c7a:	f04f 0350 	mov.w	r3, #80	; 0x50
 8006c7e:	f383 8811 	msr	BASEPRI, r3
 8006c82:	f3bf 8f6f 	isb	sy
 8006c86:	f3bf 8f4f 	dsb	sy
 8006c8a:	603b      	str	r3, [r7, #0]
 8006c8c:	bf00      	nop
 8006c8e:	e7fe      	b.n	8006c8e <vPortEnterCritical+0x4a>
 8006c90:	bf00      	nop
 8006c92:	370c      	adds	r7, #12
 8006c94:	46bd      	mov	sp, r7
 8006c96:	f85d 7b04 	ldr.w	r7, [sp], #4
 8006c9a:	4770      	bx	lr
 8006c9c:	2000000c 	.word	0x2000000c
 8006ca0:	e000ed04 	.word	0xe000ed04

08006ca4 <vPortExitCritical>:
 8006ca4:	b480      	push	{r7}
 8006ca6:	b083      	sub	sp, #12
 8006ca8:	af00      	add	r7, sp, #0
 8006caa:	4b12      	ldr	r3, [pc, #72]	; (8006cf4 <vPortExitCritical+0x50>)
 8006cac:	681b      	ldr	r3, [r3, #0]
 8006cae:	2b00      	cmp	r3, #0
 8006cb0:	d10a      	bne.n	8006cc8 <vPortExitCritical+0x24>
 8006cb2:	f04f 0350 	mov.w	r3, #80	; 0x50
 8006cb6:	f383 8811 	msr	BASEPRI, r3
 8006cba:	f3bf 8f6f 	isb	sy
 8006cbe:	f3bf 8f4f 	dsb	sy
 8006cc2:	607b      	str	r3, [r7, #4]
 8006cc4:	bf00      	nop
 8006cc6:	e7fe      	b.n	8006cc6 <vPortExitCritical+0x22>
 8006cc8:	4b0a      	ldr	r3, [pc, #40]	; (8006cf4 <vPortExitCritical+0x50>)
 8006cca:	681b      	ldr	r3, [r3, #0]
 8006ccc:	3b01      	subs	r3, #1
 8006cce:	4a09      	ldr	r2, [pc, #36]	; (8006cf4 <vPortExitCritical+0x50>)
 8006cd0:	6013      	str	r3, [r2, #0]
 8006cd2:	4b08      	ldr	r3, [pc, #32]	; (8006cf4 <vPortExitCritical+0x50>)
 8006cd4:	681b      	ldr	r3, [r3, #0]
 8006cd6:	2b00      	cmp	r3, #0
 8006cd8:	d105      	bne.n	8006ce6 <vPortExitCritical+0x42>
 8006cda:	2300      	movs	r3, #0
 8006cdc:	603b      	str	r3, [r7, #0]
 8006cde:	683b      	ldr	r3, [r7, #0]
 8006ce0:	f383 8811 	msr	BASEPRI, r3
 8006ce4:	bf00      	nop
 8006ce6:	bf00      	nop
 8006ce8:	370c      	adds	r7, #12
 8006cea:	46bd      	mov	sp, r7
 8006cec:	f85d 7b04 	ldr.w	r7, [sp], #4
 8006cf0:	4770      	bx	lr
 8006cf2:	bf00      	nop
 8006cf4:	2000000c 	.word	0x2000000c
	...

08006d00 <PendSV_Handler>:
 8006d00:	f3ef 8009 	mrs	r0, PSP
 8006d04:	f3bf 8f6f 	isb	sy
 8006d08:	4b15      	ldr	r3, [pc, #84]	; (8006d60 <pxCurrentTCBConst>)
 8006d0a:	681a      	ldr	r2, [r3, #0]
 8006d0c:	f01e 0f10 	tst.w	lr, #16
 8006d10:	bf08      	it	eq
 8006d12:	ed20 8a10 	vstmdbeq	r0!, {s16-s31}
 8006d16:	e920 4ff0 	stmdb	r0!, {r4, r5, r6, r7, r8, r9, sl, fp, lr}
 8006d1a:	6010      	str	r0, [r2, #0]
 8006d1c:	e92d 0009 	stmdb	sp!, {r0, r3}
 8006d20:	f04f 0050 	mov.w	r0, #80	; 0x50
 8006d24:	f380 8811 	msr	BASEPRI, r0
 8006d28:	f3bf 8f4f 	dsb	sy
 8006d2c:	f3bf 8f6f 	isb	sy
 8006d30:	f7ff fb12 	bl	8006358 <vTaskSwitchContext>
 8006d34:	f04f 0000 	mov.w	r0, #0
 8006d38:	f380 8811 	msr	BASEPRI, r0
 8006d3c:	bc09      	pop	{r0, r3}
 8006d3e:	6819      	ldr	r1, [r3, #0]
 8006d40:	6808      	ldr	r0, [r1, #0]
 8006d42:	e8b0 4ff0 	ldmia.w	r0!, {r4, r5, r6, r7, r8, r9, sl, fp, lr}
 8006d46:	f01e 0f10 	tst.w	lr, #16
 8006d4a:	bf08      	it	eq
 8006d4c:	ecb0 8a10 	vldmiaeq	r0!, {s16-s31}
 8006d50:	f380 8809 	msr	PSP, r0
 8006d54:	f3bf 8f6f 	isb	sy
 8006d58:	4770      	bx	lr
 8006d5a:	bf00      	nop
 8006d5c:	f3af 8000 	nop.w

08006d60 <pxCurrentTCBConst>:
 8006d60:	20000280 	.word	0x20000280
 8006d64:	bf00      	nop
 8006d66:	bf00      	nop

08006d68 <SysTick_Handler>:
 8006d68:	b580      	push	{r7, lr}
 8006d6a:	b082      	sub	sp, #8
 8006d6c:	af00      	add	r7, sp, #0
 8006d6e:	f04f 0350 	mov.w	r3, #80	; 0x50
 8006d72:	f383 8811 	msr	BASEPRI, r3
 8006d76:	f3bf 8f6f 	isb	sy
 8006d7a:	f3bf 8f4f 	dsb	sy
 8006d7e:	607b      	str	r3, [r7, #4]
 8006d80:	bf00      	nop
 8006d82:	f7ff fa31 	bl	80061e8 <xTaskIncrementTick>
 8006d86:	4603      	mov	r3, r0
 8006d88:	2b00      	cmp	r3, #0
 8006d8a:	d003      	beq.n	8006d94 <SysTick_Handler+0x2c>
 8006d8c:	4b06      	ldr	r3, [pc, #24]	; (8006da8 <SysTick_Handler+0x40>)
 8006d8e:	f04f 5280 	mov.w	r2, #268435456	; 0x10000000
 8006d92:	601a      	str	r2, [r3, #0]
 8006d94:	2300      	movs	r3, #0
 8006d96:	603b      	str	r3, [r7, #0]
 8006d98:	683b      	ldr	r3, [r7, #0]
 8006d9a:	f383 8811 	msr	BASEPRI, r3
 8006d9e:	bf00      	nop
 8006da0:	bf00      	nop
 8006da2:	3708      	adds	r7, #8
 8006da4:	46bd      	mov	sp, r7
 8006da6:	bd80      	pop	{r7, pc}
 8006da8:	e000ed04 	.word	0xe000ed04

08006dac <vPortSetupTimerInterrupt>:
 8006dac:	b480      	push	{r7}
 8006dae:	af00      	add	r7, sp, #0
 8006db0:	4b0b      	ldr	r3, [pc, #44]	; (8006de0 <vPortSetupTimerInterrupt+0x34>)
 8006db2:	2200      	movs	r2, #0
 8006db4:	601a      	str	r2, [r3, #0]
 8006db6:	4b0b      	ldr	r3, [pc, #44]	; (8006de4 <vPortSetupTimerInterrupt+0x38>)
 8006db8:	2200      	movs	r2, #0
 8006dba:	601a      	str	r2, [r3, #0]
 8006dbc:	4b0a      	ldr	r3, [pc, #40]	; (8006de8 <vPortSetupTimerInterrupt+0x3c>)
 8006dbe:	681b      	ldr	r3, [r3, #0]
 8006dc0:	4a0a      	ldr	r2, [pc, #40]	; (8006dec <vPortSetupTimerInterrupt+0x40>)
 8006dc2:	fba2 2303 	umull	r2, r3, r2, r3
 8006dc6:	099b      	lsrs	r3, r3, #6
 8006dc8:	4a09      	ldr	r2, [pc, #36]	; (8006df0 <vPortSetupTimerInterrupt+0x44>)
 8006dca:	3b01      	subs	r3, #1
 8006dcc:	6013      	str	r3, [r2, #0]
 8006dce:	4b04      	ldr	r3, [pc, #16]	; (8006de0 <vPortSetupTimerInterrupt+0x34>)
 8006dd0:	2207      	movs	r2, #7
 8006dd2:	601a      	str	r2, [r3, #0]
 8006dd4:	bf00      	nop
 8006dd6:	46bd      	mov	sp, r7
 8006dd8:	f85d 7b04 	ldr.w	r7, [sp], #4
 8006ddc:	4770      	bx	lr
 8006dde:	bf00      	nop
 8006de0:	e000e010 	.word	0xe000e010
 8006de4:	e000e018 	.word	0xe000e018
 8006de8:	20000000 	.word	0x20000000
 8006dec:	10624dd3 	.word	0x10624dd3
 8006df0:	e000e014 	.word	0xe000e014

08006df4 <vPortEnableVFP>:
 8006df4:	f8df 000c 	ldr.w	r0, [pc, #12]	; 8006e04 <vPortEnableVFP+0x10>
 8006df8:	6801      	ldr	r1, [r0, #0]
 8006dfa:	f441 0170 	orr.w	r1, r1, #15728640	; 0xf00000
 8006dfe:	6001      	str	r1, [r0, #0]
 8006e00:	4770      	bx	lr
 8006e02:	bf00      	nop
 8006e04:	e000ed88 	.word	0xe000ed88

08006e08 <pvPortMalloc>:
 8006e08:	b580      	push	{r7, lr}
 8006e0a:	b08a      	sub	sp, #40	; 0x28
 8006e0c:	af00      	add	r7, sp, #0
 8006e0e:	6078      	str	r0, [r7, #4]
 8006e10:	2300      	movs	r3, #0
 8006e12:	61fb      	str	r3, [r7, #28]
 8006e14:	f7ff f93e 	bl	8006094 <vTaskSuspendAll>
 8006e18:	4b5b      	ldr	r3, [pc, #364]	; (8006f88 <pvPortMalloc+0x180>)
 8006e1a:	681b      	ldr	r3, [r3, #0]
 8006e1c:	2b00      	cmp	r3, #0
 8006e1e:	d101      	bne.n	8006e24 <pvPortMalloc+0x1c>
 8006e20:	f000 f920 	bl	8007064 <prvHeapInit>
 8006e24:	4b59      	ldr	r3, [pc, #356]	; (8006f8c <pvPortMalloc+0x184>)
 8006e26:	681a      	ldr	r2, [r3, #0]
 8006e28:	687b      	ldr	r3, [r7, #4]
 8006e2a:	4013      	ands	r3, r2
 8006e2c:	2b00      	cmp	r3, #0
 8006e2e:	f040 8093 	bne.w	8006f58 <pvPortMalloc+0x150>
 8006e32:	687b      	ldr	r3, [r7, #4]
 8006e34:	2b00      	cmp	r3, #0
 8006e36:	d01d      	beq.n	8006e74 <pvPortMalloc+0x6c>
 8006e38:	2208      	movs	r2, #8
 8006e3a:	687b      	ldr	r3, [r7, #4]
 8006e3c:	4413      	add	r3, r2
 8006e3e:	607b      	str	r3, [r7, #4]
 8006e40:	687b      	ldr	r3, [r7, #4]
 8006e42:	f003 0307 	and.w	r3, r3, #7
 8006e46:	2b00      	cmp	r3, #0
 8006e48:	d014      	beq.n	8006e74 <pvPortMalloc+0x6c>
 8006e4a:	687b      	ldr	r3, [r7, #4]
 8006e4c:	f023 0307 	bic.w	r3, r3, #7
 8006e50:	3308      	adds	r3, #8
 8006e52:	607b      	str	r3, [r7, #4]
 8006e54:	687b      	ldr	r3, [r7, #4]
 8006e56:	f003 0307 	and.w	r3, r3, #7
 8006e5a:	2b00      	cmp	r3, #0
 8006e5c:	d00a      	beq.n	8006e74 <pvPortMalloc+0x6c>
 8006e5e:	f04f 0350 	mov.w	r3, #80	; 0x50
 8006e62:	f383 8811 	msr	BASEPRI, r3
 8006e66:	f3bf 8f6f 	isb	sy
 8006e6a:	f3bf 8f4f 	dsb	sy
 8006e6e:	617b      	str	r3, [r7, #20]
 8006e70:	bf00      	nop
 8006e72:	e7fe      	b.n	8006e72 <pvPortMalloc+0x6a>
 8006e74:	687b      	ldr	r3, [r7, #4]
 8006e76:	2b00      	cmp	r3, #0
 8006e78:	d06e      	beq.n	8006f58 <pvPortMalloc+0x150>
 8006e7a:	4b45      	ldr	r3, [pc, #276]	; (8006f90 <pvPortMalloc+0x188>)
 8006e7c:	681b      	ldr	r3, [r3, #0]
 8006e7e:	687a      	ldr	r2, [r7, #4]
 8006e80:	429a      	cmp	r2, r3
 8006e82:	d869      	bhi.n	8006f58 <pvPortMalloc+0x150>
 8006e84:	4b43      	ldr	r3, [pc, #268]	; (8006f94 <pvPortMalloc+0x18c>)
 8006e86:	623b      	str	r3, [r7, #32]
 8006e88:	4b42      	ldr	r3, [pc, #264]	; (8006f94 <pvPortMalloc+0x18c>)
 8006e8a:	681b      	ldr	r3, [r3, #0]
 8006e8c:	627b      	str	r3, [r7, #36]	; 0x24
 8006e8e:	e004      	b.n	8006e9a <pvPortMalloc+0x92>
 8006e90:	6a7b      	ldr	r3, [r7, #36]	; 0x24
 8006e92:	623b      	str	r3, [r7, #32]
 8006e94:	6a7b      	ldr	r3, [r7, #36]	; 0x24
 8006e96:	681b      	ldr	r3, [r3, #0]
 8006e98:	627b      	str	r3, [r7, #36]	; 0x24
 8006e9a:	6a7b      	ldr	r3, [r7, #36]	; 0x24
 8006e9c:	685b      	ldr	r3, [r3, #4]
 8006e9e:	687a      	ldr	r2, [r7, #4]
 8006ea0:	429a      	cmp	r2, r3
 8006ea2:	d903      	bls.n	8006eac <pvPortMalloc+0xa4>
 8006ea4:	6a7b      	ldr	r3, [r7, #36]	; 0x24
 8006ea6:	681b      	ldr	r3, [r3, #0]
 8006ea8:	2b00      	cmp	r3, #0
 8006eaa:	d1f1      	bne.n	8006e90 <pvPortMalloc+0x88>
 8006eac:	4b36      	ldr	r3, [pc, #216]	; (8006f88 <pvPortMalloc+0x180>)
 8006eae:	681b      	ldr	r3, [r3, #0]
 8006eb0:	6a7a      	ldr	r2, [r7, #36]	; 0x24
 8006eb2:	429a      	cmp	r2, r3
 8006eb4:	d050      	beq.n	8006f58 <pvPortMalloc+0x150>
 8006eb6:	6a3b      	ldr	r3, [r7, #32]
 8006eb8:	681b      	ldr	r3, [r3, #0]
 8006eba:	2208      	movs	r2, #8
 8006ebc:	4413      	add	r3, r2
 8006ebe:	61fb      	str	r3, [r7, #28]
 8006ec0:	6a7b      	ldr	r3, [r7, #36]	; 0x24
 8006ec2:	681a      	ldr	r2, [r3, #0]
 8006ec4:	6a3b      	ldr	r3, [r7, #32]
 8006ec6:	601a      	str	r2, [r3, #0]
 8006ec8:	6a7b      	ldr	r3, [r7, #36]	; 0x24
 8006eca:	685a      	ldr	r2, [r3, #4]
 8006ecc:	687b      	ldr	r3, [r7, #4]
 8006ece:	1ad2      	subs	r2, r2, r3
 8006ed0:	2308      	movs	r3, #8
 8006ed2:	005b      	lsls	r3, r3, #1
 8006ed4:	429a      	cmp	r2, r3
 8006ed6:	d91f      	bls.n	8006f18 <pvPortMalloc+0x110>
 8006ed8:	6a7a      	ldr	r2, [r7, #36]	; 0x24
 8006eda:	687b      	ldr	r3, [r7, #4]
 8006edc:	4413      	add	r3, r2
 8006ede:	61bb      	str	r3, [r7, #24]
 8006ee0:	69bb      	ldr	r3, [r7, #24]
 8006ee2:	f003 0307 	and.w	r3, r3, #7
 8006ee6:	2b00      	cmp	r3, #0
 8006ee8:	d00a      	beq.n	8006f00 <pvPortMalloc+0xf8>
 8006eea:	f04f 0350 	mov.w	r3, #80	; 0x50
 8006eee:	f383 8811 	msr	BASEPRI, r3
 8006ef2:	f3bf 8f6f 	isb	sy
 8006ef6:	f3bf 8f4f 	dsb	sy
 8006efa:	613b      	str	r3, [r7, #16]
 8006efc:	bf00      	nop
 8006efe:	e7fe      	b.n	8006efe <pvPortMalloc+0xf6>
 8006f00:	6a7b      	ldr	r3, [r7, #36]	; 0x24
 8006f02:	685a      	ldr	r2, [r3, #4]
 8006f04:	687b      	ldr	r3, [r7, #4]
 8006f06:	1ad2      	subs	r2, r2, r3
 8006f08:	69bb      	ldr	r3, [r7, #24]
 8006f0a:	605a      	str	r2, [r3, #4]
 8006f0c:	6a7b      	ldr	r3, [r7, #36]	; 0x24
 8006f0e:	687a      	ldr	r2, [r7, #4]
 8006f10:	605a      	str	r2, [r3, #4]
 8006f12:	69b8      	ldr	r0, [r7, #24]
 8006f14:	f000 f908 	bl	8007128 <prvInsertBlockIntoFreeList>
 8006f18:	4b1d      	ldr	r3, [pc, #116]	; (8006f90 <pvPortMalloc+0x188>)
 8006f1a:	681a      	ldr	r2, [r3, #0]
 8006f1c:	6a7b      	ldr	r3, [r7, #36]	; 0x24
 8006f1e:	685b      	ldr	r3, [r3, #4]
 8006f20:	1ad3      	subs	r3, r2, r3
 8006f22:	4a1b      	ldr	r2, [pc, #108]	; (8006f90 <pvPortMalloc+0x188>)
 8006f24:	6013      	str	r3, [r2, #0]
 8006f26:	4b1a      	ldr	r3, [pc, #104]	; (8006f90 <pvPortMalloc+0x188>)
 8006f28:	681a      	ldr	r2, [r3, #0]
 8006f2a:	4b1b      	ldr	r3, [pc, #108]	; (8006f98 <pvPortMalloc+0x190>)
 8006f2c:	681b      	ldr	r3, [r3, #0]
 8006f2e:	429a      	cmp	r2, r3
 8006f30:	d203      	bcs.n	8006f3a <pvPortMalloc+0x132>
 8006f32:	4b17      	ldr	r3, [pc, #92]	; (8006f90 <pvPortMalloc+0x188>)
 8006f34:	681b      	ldr	r3, [r3, #0]
 8006f36:	4a18      	ldr	r2, [pc, #96]	; (8006f98 <pvPortMalloc+0x190>)
 8006f38:	6013      	str	r3, [r2, #0]
 8006f3a:	6a7b      	ldr	r3, [r7, #36]	; 0x24
 8006f3c:	685a      	ldr	r2, [r3, #4]
 8006f3e:	4b13      	ldr	r3, [pc, #76]	; (8006f8c <pvPortMalloc+0x184>)
 8006f40:	681b      	ldr	r3, [r3, #0]
 8006f42:	431a      	orrs	r2, r3
 8006f44:	6a7b      	ldr	r3, [r7, #36]	; 0x24
 8006f46:	605a      	str	r2, [r3, #4]
 8006f48:	6a7b      	ldr	r3, [r7, #36]	; 0x24
 8006f4a:	2200      	movs	r2, #0
 8006f4c:	601a      	str	r2, [r3, #0]
 8006f4e:	4b13      	ldr	r3, [pc, #76]	; (8006f9c <pvPortMalloc+0x194>)
 8006f50:	681b      	ldr	r3, [r3, #0]
 8006f52:	3301      	adds	r3, #1
 8006f54:	4a11      	ldr	r2, [pc, #68]	; (8006f9c <pvPortMalloc+0x194>)
 8006f56:	6013      	str	r3, [r2, #0]
 8006f58:	f7ff f8aa 	bl	80060b0 <xTaskResumeAll>
 8006f5c:	69fb      	ldr	r3, [r7, #28]
 8006f5e:	f003 0307 	and.w	r3, r3, #7
 8006f62:	2b00      	cmp	r3, #0
 8006f64:	d00a      	beq.n	8006f7c <pvPortMalloc+0x174>
 8006f66:	f04f 0350 	mov.w	r3, #80	; 0x50
 8006f6a:	f383 8811 	msr	BASEPRI, r3
 8006f6e:	f3bf 8f6f 	isb	sy
 8006f72:	f3bf 8f4f 	dsb	sy
 8006f76:	60fb      	str	r3, [r7, #12]
 8006f78:	bf00      	nop
 8006f7a:	e7fe      	b.n	8006f7a <pvPortMalloc+0x172>
 8006f7c:	69fb      	ldr	r3, [r7, #28]
 8006f7e:	4618      	mov	r0, r3
 8006f80:	3728      	adds	r7, #40	; 0x28
 8006f82:	46bd      	mov	sp, r7
 8006f84:	bd80      	pop	{r7, pc}
 8006f86:	bf00      	nop
 8006f88:	20000f74 	.word	0x20000f74
 8006f8c:	20000f88 	.word	0x20000f88
 8006f90:	20000f78 	.word	0x20000f78
 8006f94:	20000f6c 	.word	0x20000f6c
 8006f98:	20000f7c 	.word	0x20000f7c
 8006f9c:	20000f80 	.word	0x20000f80

08006fa0 <vPortFree>:
 8006fa0:	b580      	push	{r7, lr}
 8006fa2:	b086      	sub	sp, #24
 8006fa4:	af00      	add	r7, sp, #0
 8006fa6:	6078      	str	r0, [r7, #4]
 8006fa8:	687b      	ldr	r3, [r7, #4]
 8006faa:	617b      	str	r3, [r7, #20]
 8006fac:	687b      	ldr	r3, [r7, #4]
 8006fae:	2b00      	cmp	r3, #0
 8006fb0:	d04d      	beq.n	800704e <vPortFree+0xae>
 8006fb2:	2308      	movs	r3, #8
 8006fb4:	425b      	negs	r3, r3
 8006fb6:	697a      	ldr	r2, [r7, #20]
 8006fb8:	4413      	add	r3, r2
 8006fba:	617b      	str	r3, [r7, #20]
 8006fbc:	697b      	ldr	r3, [r7, #20]
 8006fbe:	613b      	str	r3, [r7, #16]
 8006fc0:	693b      	ldr	r3, [r7, #16]
 8006fc2:	685a      	ldr	r2, [r3, #4]
 8006fc4:	4b24      	ldr	r3, [pc, #144]	; (8007058 <vPortFree+0xb8>)
 8006fc6:	681b      	ldr	r3, [r3, #0]
 8006fc8:	4013      	ands	r3, r2
 8006fca:	2b00      	cmp	r3, #0
 8006fcc:	d10a      	bne.n	8006fe4 <vPortFree+0x44>
 8006fce:	f04f 0350 	mov.w	r3, #80	; 0x50
 8006fd2:	f383 8811 	msr	BASEPRI, r3
 8006fd6:	f3bf 8f6f 	isb	sy
 8006fda:	f3bf 8f4f 	dsb	sy
 8006fde:	60fb      	str	r3, [r7, #12]
 8006fe0:	bf00      	nop
 8006fe2:	e7fe      	b.n	8006fe2 <vPortFree+0x42>
 8006fe4:	693b      	ldr	r3, [r7, #16]
 8006fe6:	681b      	ldr	r3, [r3, #0]
 8006fe8:	2b00      	cmp	r3, #0
 8006fea:	d00a      	beq.n	8007002 <vPortFree+0x62>
 8006fec:	f04f 0350 	mov.w	r3, #80	; 0x50
 8006ff0:	f383 8811 	msr	BASEPRI, r3
 8006ff4:	f3bf 8f6f 	isb	sy
 8006ff8:	f3bf 8f4f 	dsb	sy
 8006ffc:	60bb      	str	r3, [r7, #8]
 8006ffe:	bf00      	nop
 8007000:	e7fe      	b.n	8007000 <vPortFree+0x60>
 8007002:	693b      	ldr	r3, [r7, #16]
 8007004:	685a      	ldr	r2, [r3, #4]
 8007006:	4b14      	ldr	r3, [pc, #80]	; (8007058 <vPortFree+0xb8>)
 8007008:	681b      	ldr	r3, [r3, #0]
 800700a:	4013      	ands	r3, r2
 800700c:	2b00      	cmp	r3, #0
 800700e:	d01e      	beq.n	800704e <vPortFree+0xae>
 8007010:	693b      	ldr	r3, [r7, #16]
 8007012:	681b      	ldr	r3, [r3, #0]
 8007014:	2b00      	cmp	r3, #0
 8007016:	d11a      	bne.n	800704e <vPortFree+0xae>
 8007018:	693b      	ldr	r3, [r7, #16]
 800701a:	685a      	ldr	r2, [r3, #4]
 800701c:	4b0e      	ldr	r3, [pc, #56]	; (8007058 <vPortFree+0xb8>)
 800701e:	681b      	ldr	r3, [r3, #0]
 8007020:	43db      	mvns	r3, r3
 8007022:	401a      	ands	r2, r3
 8007024:	693b      	ldr	r3, [r7, #16]
 8007026:	605a      	str	r2, [r3, #4]
 8007028:	f7ff f834 	bl	8006094 <vTaskSuspendAll>
 800702c:	693b      	ldr	r3, [r7, #16]
 800702e:	685a      	ldr	r2, [r3, #4]
 8007030:	4b0a      	ldr	r3, [pc, #40]	; (800705c <vPortFree+0xbc>)
 8007032:	681b      	ldr	r3, [r3, #0]
 8007034:	4413      	add	r3, r2
 8007036:	4a09      	ldr	r2, [pc, #36]	; (800705c <vPortFree+0xbc>)
 8007038:	6013      	str	r3, [r2, #0]
 800703a:	6938      	ldr	r0, [r7, #16]
 800703c:	f000 f874 	bl	8007128 <prvInsertBlockIntoFreeList>
 8007040:	4b07      	ldr	r3, [pc, #28]	; (8007060 <vPortFree+0xc0>)
 8007042:	681b      	ldr	r3, [r3, #0]
 8007044:	3301      	adds	r3, #1
 8007046:	4a06      	ldr	r2, [pc, #24]	; (8007060 <vPortFree+0xc0>)
 8007048:	6013      	str	r3, [r2, #0]
 800704a:	f7ff f831 	bl	80060b0 <xTaskResumeAll>
 800704e:	bf00      	nop
 8007050:	3718      	adds	r7, #24
 8007052:	46bd      	mov	sp, r7
 8007054:	bd80      	pop	{r7, pc}
 8007056:	bf00      	nop
 8007058:	20000f88 	.word	0x20000f88
 800705c:	20000f78 	.word	0x20000f78
 8007060:	20000f84 	.word	0x20000f84

08007064 <prvHeapInit>:
 8007064:	b480      	push	{r7}
 8007066:	b085      	sub	sp, #20
 8007068:	af00      	add	r7, sp, #0
 800706a:	f640 33b8 	movw	r3, #3000	; 0xbb8
 800706e:	60bb      	str	r3, [r7, #8]
 8007070:	4b27      	ldr	r3, [pc, #156]	; (8007110 <prvHeapInit+0xac>)
 8007072:	60fb      	str	r3, [r7, #12]
 8007074:	68fb      	ldr	r3, [r7, #12]
 8007076:	f003 0307 	and.w	r3, r3, #7
 800707a:	2b00      	cmp	r3, #0
 800707c:	d00c      	beq.n	8007098 <prvHeapInit+0x34>
 800707e:	68fb      	ldr	r3, [r7, #12]
 8007080:	3307      	adds	r3, #7
 8007082:	60fb      	str	r3, [r7, #12]
 8007084:	68fb      	ldr	r3, [r7, #12]
 8007086:	f023 0307 	bic.w	r3, r3, #7
 800708a:	60fb      	str	r3, [r7, #12]
 800708c:	68ba      	ldr	r2, [r7, #8]
 800708e:	68fb      	ldr	r3, [r7, #12]
 8007090:	1ad3      	subs	r3, r2, r3
 8007092:	4a1f      	ldr	r2, [pc, #124]	; (8007110 <prvHeapInit+0xac>)
 8007094:	4413      	add	r3, r2
 8007096:	60bb      	str	r3, [r7, #8]
 8007098:	68fb      	ldr	r3, [r7, #12]
 800709a:	607b      	str	r3, [r7, #4]
 800709c:	4a1d      	ldr	r2, [pc, #116]	; (8007114 <prvHeapInit+0xb0>)
 800709e:	687b      	ldr	r3, [r7, #4]
 80070a0:	6013      	str	r3, [r2, #0]
 80070a2:	4b1c      	ldr	r3, [pc, #112]	; (8007114 <prvHeapInit+0xb0>)
 80070a4:	2200      	movs	r2, #0
 80070a6:	605a      	str	r2, [r3, #4]
 80070a8:	687b      	ldr	r3, [r7, #4]
 80070aa:	68ba      	ldr	r2, [r7, #8]
 80070ac:	4413      	add	r3, r2
 80070ae:	60fb      	str	r3, [r7, #12]
 80070b0:	2208      	movs	r2, #8
 80070b2:	68fb      	ldr	r3, [r7, #12]
 80070b4:	1a9b      	subs	r3, r3, r2
 80070b6:	60fb      	str	r3, [r7, #12]
 80070b8:	68fb      	ldr	r3, [r7, #12]
 80070ba:	f023 0307 	bic.w	r3, r3, #7
 80070be:	60fb      	str	r3, [r7, #12]
 80070c0:	68fb      	ldr	r3, [r7, #12]
 80070c2:	4a15      	ldr	r2, [pc, #84]	; (8007118 <prvHeapInit+0xb4>)
 80070c4:	6013      	str	r3, [r2, #0]
 80070c6:	4b14      	ldr	r3, [pc, #80]	; (8007118 <prvHeapInit+0xb4>)
 80070c8:	681b      	ldr	r3, [r3, #0]
 80070ca:	2200      	movs	r2, #0
 80070cc:	605a      	str	r2, [r3, #4]
 80070ce:	4b12      	ldr	r3, [pc, #72]	; (8007118 <prvHeapInit+0xb4>)
 80070d0:	681b      	ldr	r3, [r3, #0]
 80070d2:	2200      	movs	r2, #0
 80070d4:	601a      	str	r2, [r3, #0]
 80070d6:	687b      	ldr	r3, [r7, #4]
 80070d8:	603b      	str	r3, [r7, #0]
 80070da:	683b      	ldr	r3, [r7, #0]
 80070dc:	68fa      	ldr	r2, [r7, #12]
 80070de:	1ad2      	subs	r2, r2, r3
 80070e0:	683b      	ldr	r3, [r7, #0]
 80070e2:	605a      	str	r2, [r3, #4]
 80070e4:	4b0c      	ldr	r3, [pc, #48]	; (8007118 <prvHeapInit+0xb4>)
 80070e6:	681a      	ldr	r2, [r3, #0]
 80070e8:	683b      	ldr	r3, [r7, #0]
 80070ea:	601a      	str	r2, [r3, #0]
 80070ec:	683b      	ldr	r3, [r7, #0]
 80070ee:	685b      	ldr	r3, [r3, #4]
 80070f0:	4a0a      	ldr	r2, [pc, #40]	; (800711c <prvHeapInit+0xb8>)
 80070f2:	6013      	str	r3, [r2, #0]
 80070f4:	683b      	ldr	r3, [r7, #0]
 80070f6:	685b      	ldr	r3, [r3, #4]
 80070f8:	4a09      	ldr	r2, [pc, #36]	; (8007120 <prvHeapInit+0xbc>)
 80070fa:	6013      	str	r3, [r2, #0]
 80070fc:	4b09      	ldr	r3, [pc, #36]	; (8007124 <prvHeapInit+0xc0>)
 80070fe:	f04f 4200 	mov.w	r2, #2147483648	; 0x80000000
 8007102:	601a      	str	r2, [r3, #0]
 8007104:	bf00      	nop
 8007106:	3714      	adds	r7, #20
 8007108:	46bd      	mov	sp, r7
 800710a:	f85d 7b04 	ldr.w	r7, [sp], #4
 800710e:	4770      	bx	lr
 8007110:	200003b4 	.word	0x200003b4
 8007114:	20000f6c 	.word	0x20000f6c
 8007118:	20000f74 	.word	0x20000f74
 800711c:	20000f7c 	.word	0x20000f7c
 8007120:	20000f78 	.word	0x20000f78
 8007124:	20000f88 	.word	0x20000f88

08007128 <prvInsertBlockIntoFreeList>:
 8007128:	b480      	push	{r7}
 800712a:	b085      	sub	sp, #20
 800712c:	af00      	add	r7, sp, #0
 800712e:	6078      	str	r0, [r7, #4]
 8007130:	4b28      	ldr	r3, [pc, #160]	; (80071d4 <prvInsertBlockIntoFreeList+0xac>)
 8007132:	60fb      	str	r3, [r7, #12]
 8007134:	e002      	b.n	800713c <prvInsertBlockIntoFreeList+0x14>
 8007136:	68fb      	ldr	r3, [r7, #12]
 8007138:	681b      	ldr	r3, [r3, #0]
 800713a:	60fb      	str	r3, [r7, #12]
 800713c:	68fb      	ldr	r3, [r7, #12]
 800713e:	681b      	ldr	r3, [r3, #0]
 8007140:	687a      	ldr	r2, [r7, #4]
 8007142:	429a      	cmp	r2, r3
 8007144:	d8f7      	bhi.n	8007136 <prvInsertBlockIntoFreeList+0xe>
 8007146:	68fb      	ldr	r3, [r7, #12]
 8007148:	60bb      	str	r3, [r7, #8]
 800714a:	68fb      	ldr	r3, [r7, #12]
 800714c:	685b      	ldr	r3, [r3, #4]
 800714e:	68ba      	ldr	r2, [r7, #8]
 8007150:	4413      	add	r3, r2
 8007152:	687a      	ldr	r2, [r7, #4]
 8007154:	429a      	cmp	r2, r3
 8007156:	d108      	bne.n	800716a <prvInsertBlockIntoFreeList+0x42>
 8007158:	68fb      	ldr	r3, [r7, #12]
 800715a:	685a      	ldr	r2, [r3, #4]
 800715c:	687b      	ldr	r3, [r7, #4]
 800715e:	685b      	ldr	r3, [r3, #4]
 8007160:	441a      	add	r2, r3
 8007162:	68fb      	ldr	r3, [r7, #12]
 8007164:	605a      	str	r2, [r3, #4]
 8007166:	68fb      	ldr	r3, [r7, #12]
 8007168:	607b      	str	r3, [r7, #4]
 800716a:	687b      	ldr	r3, [r7, #4]
 800716c:	60bb      	str	r3, [r7, #8]
 800716e:	687b      	ldr	r3, [r7, #4]
 8007170:	685b      	ldr	r3, [r3, #4]
 8007172:	68ba      	ldr	r2, [r7, #8]
 8007174:	441a      	add	r2, r3
 8007176:	68fb      	ldr	r3, [r7, #12]
 8007178:	681b      	ldr	r3, [r3, #0]
 800717a:	429a      	cmp	r2, r3
 800717c:	d118      	bne.n	80071b0 <prvInsertBlockIntoFreeList+0x88>
 800717e:	68fb      	ldr	r3, [r7, #12]
 8007180:	681a      	ldr	r2, [r3, #0]
 8007182:	4b15      	ldr	r3, [pc, #84]	; (80071d8 <prvInsertBlockIntoFreeList+0xb0>)
 8007184:	681b      	ldr	r3, [r3, #0]
 8007186:	429a      	cmp	r2, r3
 8007188:	d00d      	beq.n	80071a6 <prvInsertBlockIntoFreeList+0x7e>
 800718a:	687b      	ldr	r3, [r7, #4]
 800718c:	685a      	ldr	r2, [r3, #4]
 800718e:	68fb      	ldr	r3, [r7, #12]
 8007190:	681b      	ldr	r3, [r3, #0]
 8007192:	685b      	ldr	r3, [r3, #4]
 8007194:	441a      	add	r2, r3
 8007196:	687b      	ldr	r3, [r7, #4]
 8007198:	605a      	str	r2, [r3, #4]
 800719a:	68fb      	ldr	r3, [r7, #12]
 800719c:	681b      	ldr	r3, [r3, #0]
 800719e:	681a      	ldr	r2, [r3, #0]
 80071a0:	687b      	ldr	r3, [r7, #4]
 80071a2:	601a      	str	r2, [r3, #0]
 80071a4:	e008      	b.n	80071b8 <prvInsertBlockIntoFreeList+0x90>
 80071a6:	4b0c      	ldr	r3, [pc, #48]	; (80071d8 <prvInsertBlockIntoFreeList+0xb0>)
 80071a8:	681a      	ldr	r2, [r3, #0]
 80071aa:	687b      	ldr	r3, [r7, #4]
 80071ac:	601a      	str	r2, [r3, #0]
 80071ae:	e003      	b.n	80071b8 <prvInsertBlockIntoFreeList+0x90>
 80071b0:	68fb      	ldr	r3, [r7, #12]
 80071b2:	681a      	ldr	r2, [r3, #0]
 80071b4:	687b      	ldr	r3, [r7, #4]
 80071b6:	601a      	str	r2, [r3, #0]
 80071b8:	68fa      	ldr	r2, [r7, #12]
 80071ba:	687b      	ldr	r3, [r7, #4]
 80071bc:	429a      	cmp	r2, r3
 80071be:	d002      	beq.n	80071c6 <prvInsertBlockIntoFreeList+0x9e>
 80071c0:	68fb      	ldr	r3, [r7, #12]
 80071c2:	687a      	ldr	r2, [r7, #4]
 80071c4:	601a      	str	r2, [r3, #0]
 80071c6:	bf00      	nop
 80071c8:	3714      	adds	r7, #20
 80071ca:	46bd      	mov	sp, r7
 80071cc:	f85d 7b04 	ldr.w	r7, [sp], #4
 80071d0:	4770      	bx	lr
 80071d2:	bf00      	nop
 80071d4:	20000f6c 	.word	0x20000f6c
 80071d8:	20000f74 	.word	0x20000f74

080071dc <__libc_init_array>:
 80071dc:	b570      	push	{r4, r5, r6, lr}
 80071de:	4d0d      	ldr	r5, [pc, #52]	; (8007214 <__libc_init_array+0x38>)
 80071e0:	4c0d      	ldr	r4, [pc, #52]	; (8007218 <__libc_init_array+0x3c>)
 80071e2:	1b64      	subs	r4, r4, r5
 80071e4:	10a4      	asrs	r4, r4, #2
 80071e6:	2600      	movs	r6, #0
 80071e8:	42a6      	cmp	r6, r4
 80071ea:	d109      	bne.n	8007200 <__libc_init_array+0x24>
 80071ec:	4d0b      	ldr	r5, [pc, #44]	; (800721c <__libc_init_array+0x40>)
 80071ee:	4c0c      	ldr	r4, [pc, #48]	; (8007220 <__libc_init_array+0x44>)
 80071f0:	f000 f82e 	bl	8007250 <_init>
 80071f4:	1b64      	subs	r4, r4, r5
 80071f6:	10a4      	asrs	r4, r4, #2
 80071f8:	2600      	movs	r6, #0
 80071fa:	42a6      	cmp	r6, r4
 80071fc:	d105      	bne.n	800720a <__libc_init_array+0x2e>
 80071fe:	bd70      	pop	{r4, r5, r6, pc}
 8007200:	f855 3b04 	ldr.w	r3, [r5], #4
 8007204:	4798      	blx	r3
 8007206:	3601      	adds	r6, #1
 8007208:	e7ee      	b.n	80071e8 <__libc_init_array+0xc>
 800720a:	f855 3b04 	ldr.w	r3, [r5], #4
 800720e:	4798      	blx	r3
 8007210:	3601      	adds	r6, #1
 8007212:	e7f2      	b.n	80071fa <__libc_init_array+0x1e>
 8007214:	08007330 	.word	0x08007330
 8007218:	08007330 	.word	0x08007330
 800721c:	08007330 	.word	0x08007330
 8007220:	08007334 	.word	0x08007334

08007224 <memcpy>:
 8007224:	440a      	add	r2, r1
 8007226:	4291      	cmp	r1, r2
 8007228:	f100 33ff 	add.w	r3, r0, #4294967295
 800722c:	d100      	bne.n	8007230 <memcpy+0xc>
 800722e:	4770      	bx	lr
 8007230:	b510      	push	{r4, lr}
 8007232:	f811 4b01 	ldrb.w	r4, [r1], #1
 8007236:	f803 4f01 	strb.w	r4, [r3, #1]!
 800723a:	4291      	cmp	r1, r2
 800723c:	d1f9      	bne.n	8007232 <memcpy+0xe>
 800723e:	bd10      	pop	{r4, pc}

08007240 <memset>:
 8007240:	4402      	add	r2, r0
 8007242:	4603      	mov	r3, r0
 8007244:	4293      	cmp	r3, r2
 8007246:	d100      	bne.n	800724a <memset+0xa>
 8007248:	4770      	bx	lr
 800724a:	f803 1b01 	strb.w	r1, [r3], #1
 800724e:	e7f9      	b.n	8007244 <memset+0x4>

08007250 <_init>:
 8007250:	b5f8      	push	{r3, r4, r5, r6, r7, lr}
 8007252:	bf00      	nop
 8007254:	bcf8      	pop	{r3, r4, r5, r6, r7}
 8007256:	bc08      	pop	{r3}
 8007258:	469e      	mov	lr, r3
 800725a:	4770      	bx	lr

0800725c <_fini>:
 800725c:	b5f8      	push	{r3, r4, r5, r6, r7, lr}
 800725e:	bf00      	nop
 8007260:	bcf8      	pop	{r3, r4, r5, r6, r7}
 8007262:	bc08      	pop	{r3}
 8007264:	469e      	mov	lr, r3
 8007266:	4770      	bx	lr
